 Minecraft_Reboot

 Timestamp is 6701af6b (Sat Oct  5 17:28:11 2024)

 Preferred load address is 0000000140000000

 Start         Length     Name                   Class
 0001:00000000 00040f1dH .textbss                DATA
 0002:00000000 00006890H .text$di                CODE
 0002:00006890 00082600H .text$mn                CODE
 0002:00088e90 00001040H .text$mn$00             CODE
 0002:00089ed0 00002640H .text$x                 CODE
 0002:0008c510 0000104cH .text$yd                CODE
 0003:00000000 00000110H .CRT$XCA                DATA
 0003:00000110 00000110H .CRT$XCAA               DATA
 0003:00000220 00000110H .CRT$XCL                DATA
 0003:00000330 00000110H .CRT$XCU                DATA
 0003:00000440 00000110H .CRT$XCZ                DATA
 0003:00000550 00000110H .CRT$XIA                DATA
 0003:00000660 00000110H .CRT$XIAA               DATA
 0003:00000770 00000110H .CRT$XIAC               DATA
 0003:00000880 00000110H .CRT$XIZ                DATA
 0003:00000990 00000008H .CRT$XLA                DATA
 0003:00000998 00000008H .CRT$XLZ                DATA
 0003:000009a0 00000110H .CRT$XPA                DATA
 0003:00000ab0 00000110H .CRT$XPZ                DATA
 0003:00000bc0 00000110H .CRT$XTA                DATA
 0003:00000cd0 00000110H .CRT$XTZ                DATA
 0003:00000de0 000140a0H .rdata                  DATA
 0003:00014e80 00000200H .rdata$CastGuardVftablesA DATA
 0003:00015080 000001a0H .rdata$CastGuardVftablesC DATA
 0003:00015220 00000130H .rdata$T                DATA
 0003:00015350 00000f08H .rdata$r                DATA
 0003:00016258 000001a8H .rdata$zzzdbg           DATA
 0003:00016400 00000110H .rtc$IAA                DATA
 0003:00016510 00000350H .rtc$IMZ                DATA
 0003:00016860 00000110H .rtc$IZZ                DATA
 0003:00016970 00000110H .rtc$TAA                DATA
 0003:00016a80 00000350H .rtc$TMZ                DATA
 0003:00016dd0 00000110H .rtc$TZZ                DATA
 0003:00016ee0 000093b0H .xdata                  DATA
 0003:00020290 000002deH .xdata$x                DATA
 0003:0002056e 00000000H .edata                  DATA
 0004:00000000 0002e2b8H .data                   DATA
 0004:0002e2b8 000001f8H .data$r                 DATA
 0004:0002e4b0 00000660H .data$rs                DATA
 0004:0002eb10 00005d40H .bss                    DATA
 0005:00000000 00007a40H .pdata                  DATA
 0006:00000000 00000ec8H .idata$5                DATA
 0006:00000ec8 000000a0H .idata$2                DATA
 0006:00000f68 00000018H .idata$3                DATA
 0006:00000f80 00000ec8H .idata$4                DATA
 0006:00001e48 000027bfH .idata$6                DATA
 0007:00000000 000014deH .msvcjmc                DATA
 0008:00000000 00000108H .tls                    DATA
 0008:00000108 0000012dH .tls$                   DATA
 0008:00000235 00000101H .tls$ZZZ                DATA
 0009:00000000 00000175H .00cfg                  DATA
 000a:00000000 00000170H .rsrc$01                DATA
 000a:00000170 000002ccH .rsrc$02                DATA

  Address         Publics by Value              Rva+Base               Lib:Object

 0000:00000000       __AbsoluteZero             0000000000000000     <absolute>
 0000:00000000       ___safe_se_handler_count   0000000000000000     <absolute>
 0000:00000000       ___safe_se_handler_table   0000000000000000     <absolute>
 0000:00000000       __arm64x_extra_rfe_table   0000000000000000     <absolute>
 0000:00000000       __arm64x_extra_rfe_table_size 0000000000000000     <absolute>
 0000:00000000       __arm64x_native_entrypoint 0000000000000000     <absolute>
 0000:00000000       __arm64x_redirection_metadata 0000000000000000     <absolute>
 0000:00000000       __arm64x_redirection_metadata_count 0000000000000000     <absolute>
 0000:00000000       __dynamic_value_reloc_table 0000000000000000     <absolute>
 0000:00000000       __enclave_config           0000000000000000     <absolute>
 0000:00000000       __guard_check_icall_a64n_fptr 0000000000000000     <absolute>
 0000:00000000       __guard_eh_cont_count      0000000000000000     <absolute>
 0000:00000000       __guard_eh_cont_table      0000000000000000     <absolute>
 0000:00000000       __guard_fids_count         0000000000000000     <absolute>
 0000:00000000       __guard_fids_table         0000000000000000     <absolute>
 0000:00000000       __guard_iat_count          0000000000000000     <absolute>
 0000:00000000       __guard_iat_table          0000000000000000     <absolute>
 0000:00000000       __guard_longjmp_count      0000000000000000     <absolute>
 0000:00000000       __guard_longjmp_table      0000000000000000     <absolute>
 0000:00000000       __hybrid_auxiliary_delayload_iat 0000000000000000     <absolute>
 0000:00000000       __hybrid_auxiliary_delayload_iat_copy 0000000000000000     <absolute>
 0000:00000000       __hybrid_auxiliary_iat     0000000000000000     <absolute>
 0000:00000000       __hybrid_auxiliary_iat_copy 0000000000000000     <absolute>
 0000:00000000       __hybrid_code_map          0000000000000000     <absolute>
 0000:00000000       __hybrid_code_map_count    0000000000000000     <absolute>
 0000:00000000       __hybrid_image_info_bitfield 0000000000000000     <absolute>
 0000:00000000       __volatile_metadata        0000000000000000     <absolute>
 0000:00000000       __x64_code_ranges_to_entry_points 0000000000000000     <absolute>
 0000:00000000       __x64_code_ranges_to_entry_points_count 0000000000000000     <absolute>
 0000:00000100       __guard_flags              0000000000000100     <absolute>
 0000:00000000       __ImageBase                0000000140000000     <linker-defined>
 0001:00000000       __enc$textbss$begin        0000000140001000     <linker-defined>
 0001:00040f1d       __enc$textbss$end          0000000140041f1d     <linker-defined>
 0002:00006890       __JustMyCode_Default       0000000140048890 f i glad.obj
 0002:000068a0       __local_stdio_scanf_options 00000001400488a0 f i glad.obj
 0002:000068e0       _vsscanf_s_l               00000001400488e0 f i glad.obj
 0002:00007210       gladLoadGL                 0000000140049210 f   glad.obj
 0002:00007280       gladLoadGLLoader           0000000140049280 f   glad.obj
 0002:0000bf90       sscanf_s                   000000014004df90 f i glad.obj
 0002:0000c080       vsscanf_s                  000000014004e080 f i glad.obj
 0002:0000c0f0       ??$?0HHHM@?$vec@$03M$0A@@glm@@QEAA@HHHM@Z 000000014004e0f0 f i Camera.obj
 0002:0000c1b0       ??$?0HHMH@?$vec@$03M$0A@@glm@@QEAA@HHMH@Z 000000014004e1b0 f i Camera.obj
 0002:0000c270       ??$?0HMHH@?$vec@$03M$0A@@glm@@QEAA@HMHH@Z 000000014004e270 f i Camera.obj
 0002:0000c330       ??$?0MHHH@?$vec@$03M$0A@@glm@@QEAA@MHHH@Z 000000014004e330 f i Camera.obj
 0002:0000c3f0       ??$?DM$0A@@glm@@YA?AU?$vec@$02M$0A@@0@AEBU10@0@Z 000000014004e3f0 f i Camera.obj
 0002:0000c4c0       ??$?DM$0A@@glm@@YA?AU?$vec@$02M$0A@@0@AEBU10@M@Z 000000014004e4c0 f i Camera.obj
 0002:0000c590       ??$?GM$0A@@glm@@YA?AU?$vec@$02M$0A@@0@AEBU10@0@Z 000000014004e590 f i Camera.obj
 0002:0000c660       ??$?HM$0A@@glm@@YA?AU?$vec@$02M$0A@@0@AEBU10@0@Z 000000014004e660 f i Camera.obj
 0002:0000c730       ??$?YM@?$vec@$02M$0A@@glm@@QEAAAEAU01@AEBU01@@Z 000000014004e730 f i Camera.obj
 0002:0000c800       ??$?ZM@?$vec@$02M$0A@@glm@@QEAAAEAU01@AEBU01@@Z 000000014004e800 f i Camera.obj
 0002:0000c8d0       ??$cross@M$0A@@glm@@YA?AU?$vec@$02M$0A@@0@AEBU10@0@Z 000000014004e8d0 f i Camera.obj
 0002:0000c940       ??$dot@$02M$0A@@glm@@YAMAEBU?$vec@$02M$0A@@0@0@Z 000000014004e940 f i Camera.obj
 0002:0000c9a0       ??$inversesqrt@M@glm@@YAMM@Z 000000014004e9a0 f i Camera.obj
 0002:0000ca00       ??$lookAt@M$0A@@glm@@YA?AU?$mat@$03$03M$0A@@0@AEBU?$vec@$02M$0A@@0@00@Z 000000014004ea00 f i Camera.obj
 0002:0000cac0       ??$lookAtLH@M$0A@@glm@@YA?AU?$mat@$03$03M$0A@@0@AEBU?$vec@$02M$0A@@0@00@Z 000000014004eac0 f i Camera.obj
 0002:0000ced0       ??$lookAtRH@M$0A@@glm@@YA?AU?$mat@$03$03M$0A@@0@AEBU?$vec@$02M$0A@@0@00@Z 000000014004eed0 f i Camera.obj
 0002:0000d320       ??$normalize@$02M$0A@@glm@@YA?AU?$vec@$02M$0A@@0@AEBU10@@Z 000000014004f320 f i Camera.obj
 0002:0000d380       ??$radians@M@glm@@YAMM@Z   000000014004f380 f i Camera.obj
 0002:0000d3d0       ??0?$mat@$03$03M$0A@@glm@@QEAA@AEBM@Z 000000014004f3d0 f i Camera.obj
 0002:0000d4f0       ??0?$vec@$02M$0A@@glm@@QEAA@MMM@Z 000000014004f4f0 f i Camera.obj
 0002:0000d590       ??0Camera@@QEAA@XZ         000000014004f590 f   Camera.obj
 0002:0000d760       ??1Camera@@UEAA@XZ         000000014004f760 f i Camera.obj
 0002:0000d7a0       ??A?$mat@$03$03M$0A@@glm@@QEAAAEAU?$vec@$03M$0A@@1@H@Z 000000014004f7a0 f i Camera.obj
 0002:0000d830       ??A?$vec@$03M$0A@@glm@@QEAAAEAMH@Z 000000014004f830 f i Camera.obj
 0002:0000d920       ??_ECamera@@UEAAPEAXI@Z    000000014004f920 f i Camera.obj
 0002:0000d920       ??_GCamera@@UEAAPEAXI@Z    000000014004f920 f i Camera.obj
 0002:0000d990       ?__empty_global_delete@@YAXPEAX@Z 000000014004f990 f i Camera.obj
 0002:0000d9d0       ?__empty_global_delete@@YAXPEAX_K@Z 000000014004f9d0 f i Camera.obj
 0002:0000d9d0       ?__global_delete@@YAXPEAX_K@Z 000000014004f9d0 f i Camera.obj
 0002:0000da10       ?call@?$compute_cross@M$0A@$0A@@detail@glm@@SA?AU?$vec@$02M$0A@@3@AEBU43@0@Z 000000014004fa10 f i Camera.obj
 0002:0000db50       ?call@?$compute_dot@U?$vec@$02M$0A@@glm@@M$0A@@detail@glm@@SAMAEBU?$vec@$02M$0A@@3@0@Z 000000014004fb50 f i Camera.obj
 0002:0000dc30       ?call@?$compute_normalize@$02M$0A@$0A@@detail@glm@@SA?AU?$vec@$02M$0A@@3@AEBU43@@Z 000000014004fc30 f i Camera.obj
 0002:0000dcb0       ?cos@@YAMM@Z               000000014004fcb0 f i Camera.obj
 0002:0000dd00       ?destroy@Camera@@UEAAXXZ   000000014004fd00 f   Camera.obj
 0002:0000dd40       ?getViewMatrix@Camera@@QEAA?AU?$mat@$03$03M$0A@@glm@@XZ 000000014004fd40 f   Camera.obj
 0002:0000de80       ?init@Camera@@UEAAXXZ      000000014004fe80 f   Camera.obj
 0002:0000dec0       ?length@?$mat@$03$03M$0A@@glm@@SAHXZ 000000014004fec0 f i Camera.obj
 0002:0000df00       ?length@?$vec@$03M$0A@@glm@@SAHXZ 000000014004ff00 f i Camera.obj
 0002:0000df40       ?moveBackward@Camera@@AEAAXM@Z 000000014004ff40 f   Camera.obj
 0002:0000dff0       ?moveForward@Camera@@AEAAXM@Z 000000014004fff0 f   Camera.obj
 0002:0000e0a0       ?moveLeft@Camera@@AEAAXM@Z 00000001400500a0 f   Camera.obj
 0002:0000e180       ?moveRight@Camera@@AEAAXM@Z 0000000140050180 f   Camera.obj
 0002:0000e260       ?processKeyInputs@Camera@@AEAAXM@Z 0000000140050260 f   Camera.obj
 0002:0000e3a0       ?render@Camera@@UEAAXM@Z   00000001400503a0 f   Camera.obj
 0002:0000e3e0       ?sin@@YAMM@Z               00000001400503e0 f i Camera.obj
 0002:0000e430       ?sqrt@@YAMM@Z              0000000140050430 f i Camera.obj
 0002:0000e480       ?turnAround@Camera@@AEAAXMM@Z 0000000140050480 f   Camera.obj
 0002:0000e800       ?update@Camera@@UEAAXM@Z   0000000140050800 f   Camera.obj
 0002:0000e8b0       ??$?0HHH@?$vec@$02M$0A@@glm@@QEAA@HHH@Z 00000001400508b0 f i Chunk.obj
 0002:0000e950       ??$?0I@?$allocator@U_Container_proxy@std@@@std@@QEAA@AEBV?$allocator@I@1@@Z 0000000140050950 f i Chunk.obj
 0002:0000e9a0       ??$?0M$0A@@?$vec@$02M$0A@@glm@@QEAA@AEBU?$vec@$03M$0A@@1@@Z 00000001400509a0 f i Chunk.obj
 0002:0000ea40       ??$?0M@?$allocator@U_Container_proxy@std@@@std@@QEAA@AEBV?$allocator@M@1@@Z 0000000140050a40 f i Chunk.obj
 0002:0000ea90       ??$?0MM$0A@@?$vec@$03M$0A@@glm@@QEAA@AEBU?$vec@$02M$0A@@1@M@Z 0000000140050a90 f i Chunk.obj
 0002:0000eb50       ??$?DM$0A@@glm@@YA?AU?$vec@$03M$0A@@0@AEBU10@0@Z 0000000140050b50 f i Chunk.obj
 0002:0000ebf0       ??$?DM$0A@@glm@@YA?AU?$vec@$03M$0A@@0@AEBU10@AEBM@Z 0000000140050bf0 f i Chunk.obj
 0002:0000ec90       ??$?DM$0A@@glm@@YA?AU?$vec@$03M$0A@@0@AEBU?$mat@$03$03M$0A@@0@AEBU10@@Z 0000000140050c90 f i Chunk.obj
 0002:0000ef00       ??$?HM$0A@@glm@@YA?AU?$vec@$03M$0A@@0@AEBU10@0@Z 0000000140050f00 f i Chunk.obj
 0002:0000efa0       ??$?XM@?$vec@$03M$0A@@glm@@QEAAAEAU01@AEBU01@@Z 0000000140050fa0 f i Chunk.obj
 0002:0000f040       ??$?XM@?$vec@$03M$0A@@glm@@QEAAAEAU01@M@Z 0000000140051040 f i Chunk.obj
 0002:0000f0e0       ??$?YM@?$vec@$03M$0A@@glm@@QEAAAEAU01@AEBU01@@Z 00000001400510e0 f i Chunk.obj
 0002:0000f180       ??$_Deallocate@$0BA@@std@@YAXPEAX_K@Z 0000000140051180 f i Chunk.obj
 0002:0000f200       ??$_Deallocate_plain@V?$allocator@U_Container_proxy@std@@@std@@@std@@YAXAEAV?$allocator@U_Container_proxy@std@@@0@QEAU_Container_proxy@0@@Z 0000000140051200 f i Chunk.obj
 0002:0000f260       ??$_Delete_plain_internal@V?$allocator@U_Container_proxy@std@@@std@@@std@@YAXAEAV?$allocator@U_Container_proxy@std@@@0@QEAU_Container_proxy@0@@Z 0000000140051260 f i Chunk.obj
 0002:0000f2c0       ??$_Destroy_range@V?$allocator@I@std@@@std@@YAXPEAIQEAIAEAV?$allocator@I@0@@Z 00000001400512c0 f i Chunk.obj
 0002:0000f310       ??$_Destroy_range@V?$allocator@M@std@@@std@@YAXPEAMQEAMAEAV?$allocator@M@0@@Z 0000000140051310 f i Chunk.obj
 0002:0000fce0       ??$exchange@PEAU_Container_proxy@std@@$$T@std@@YAPEAU_Container_proxy@0@AEAPEAU10@$$QEA$$T@Z 0000000140051ce0 f i Chunk.obj
 0002:0000fd50       ??$exchange@PEAU_Iterator_base12@std@@$$T@std@@YAPEAU_Iterator_base12@0@AEAPEAU10@$$QEA$$T@Z 0000000140051d50 f i Chunk.obj
 0002:00010100       ??$perlin@M@db@@YAMM@Z     0000000140052100 f i Chunk.obj
 0002:00010230       ??$perlin@M@db@@YAMMM@Z    0000000140052230 f i Chunk.obj
 0002:00010540       ??$perlin@M@db@@YAMMMM@Z   0000000140052540 f i Chunk.obj
 0002:00010c30       ??$perlin@N@db@@YANN@Z     0000000140052c30 f i Chunk.obj
 0002:00010d60       ??$perlin@N@db@@YANNN@Z    0000000140052d60 f i Chunk.obj
 0002:00011070       ??$perlin@N@db@@YANNNN@Z   0000000140053070 f i Chunk.obj
 0002:00011760       ??$translate@M$0A@@glm@@YA?AU?$mat@$03$03M$0A@@0@AEBU10@AEBU?$vec@$02M$0A@@0@@Z 0000000140053760 f i Chunk.obj
 0002:000119c0       ??0?$vec@$03M$0A@@glm@@QEAA@M@Z 00000001400539c0 f i Chunk.obj
 0002:00011a70       ??0?$vec@$03M$0A@@glm@@QEAA@MMMM@Z 0000000140053a70 f i Chunk.obj
 0002:00011b30       ??0Chunk@@QEAA@U?$vec@$02M$0A@@glm@@0@Z 0000000140053b30 f   Chunk.obj
 0002:00011d00       ??0exception@std@@QEAA@AEBV01@@Z 0000000140053d00 f i Chunk.obj
 0002:00011da0       ??0exception@std@@QEAA@QEBD@Z 0000000140053da0 f i Chunk.obj
 0002:00011eb0       ??0runtime_error@std@@QEAA@AEBV01@@Z 0000000140053eb0 f i Chunk.obj
 0002:00011f20       ??0runtime_error@std@@QEAA@PEBD@Z 0000000140053f20 f i Chunk.obj
 0002:00011fa0       ??1?$shared_ptr@VShaderProgram@@@std@@QEAA@XZ 0000000140053fa0 f i Chunk.obj
 0002:00011ff0       ??1?$vector@IV?$allocator@I@std@@@std@@QEAA@XZ 0000000140053ff0 f i Chunk.obj
 0002:00012100       ??1?$vector@MV?$allocator@M@std@@@std@@QEAA@XZ 0000000140054100 f i Chunk.obj
 0002:00012210       ??1Chunk@@UEAA@XZ          0000000140054210 f   Chunk.obj
 0002:00012320       ??1MeshBuilder@@QEAA@XZ    0000000140054320 f i Chunk.obj
 0002:00012390       ??1exception@std@@UEAA@XZ  0000000140054390 f i Chunk.obj
 0002:00012400       ??1runtime_error@std@@UEAA@XZ 0000000140054400 f i Chunk.obj
 0002:00012440       ??A?$mat@$03$03M$0A@@glm@@QEBAAEBU?$vec@$03M$0A@@1@H@Z 0000000140054440 f i Chunk.obj
 0002:000124d0       ??A?$vec@$02M$0A@@glm@@QEAAAEAMH@Z 00000001400544d0 f i Chunk.obj
 0002:000125b0       ??A?$vec@$02M$0A@@glm@@QEBAAEBMH@Z 00000001400545b0 f i Chunk.obj
 0002:00012690       ??A?$vec@$03M$0A@@glm@@QEBAAEBMH@Z 0000000140054690 f i Chunk.obj
 0002:00012780       ??_EChunk@@UEAAPEAXI@Z     0000000140054780 f i Chunk.obj
 0002:00012780       ??_GChunk@@UEAAPEAXI@Z     0000000140054780 f i Chunk.obj
 0002:000127f0       ??_GMeshBuilder@@QEAAPEAXI@Z 00000001400547f0 f i Chunk.obj
 0002:00012860       ??_Eexception@std@@UEAAPEAXI@Z 0000000140054860 f i Chunk.obj
 0002:00012860       ??_Gexception@std@@UEAAPEAXI@Z 0000000140054860 f i Chunk.obj
 0002:000128d0       ??_Eruntime_error@std@@UEAAPEAXI@Z 00000001400548d0 f i Chunk.obj
 0002:000128d0       ??_Gruntime_error@std@@UEAAPEAXI@Z 00000001400548d0 f i Chunk.obj
 0002:00012940       ?_Adjust_manually_vector_aligned@std@@YAXAEAPEAXAEA_K@Z 0000000140054940 f i Chunk.obj
 0002:00012b80       ?_Decref@?$_Ptr_base@VShaderProgram@@@std@@IEAAXXZ 0000000140054b80 f i Chunk.obj
 0002:00012be0       ?_Decref@_Ref_count_base@std@@QEAAXXZ 0000000140054be0 f i Chunk.obj
 0002:00012c60       ?_Decwref@_Ref_count_base@std@@QEAAXXZ 0000000140054c60 f i Chunk.obj
 0002:00012ce0       ?_Get_first@?$_Compressed_pair@V?$allocator@I@std@@V?$_Vector_val@U?$_Simple_types@I@std@@@2@$00@std@@QEAAAEAV?$allocator@I@2@XZ 0000000140054ce0 f i Chunk.obj
 0002:00012d20       ?_Get_first@?$_Compressed_pair@V?$allocator@M@std@@V?$_Vector_val@U?$_Simple_types@M@std@@@2@$00@std@@QEAAAEAV?$allocator@M@2@XZ 0000000140054d20 f i Chunk.obj
 0002:00012d60       ?_Getal@?$vector@IV?$allocator@I@std@@@std@@AEAAAEAV?$allocator@I@2@XZ 0000000140054d60 f i Chunk.obj
 0002:00012db0       ?_Getal@?$vector@MV?$allocator@M@std@@@std@@AEAAAEAV?$allocator@M@2@XZ 0000000140054db0 f i Chunk.obj
 0002:00012e00       ?_Orphan_all@_Container_base12@std@@QEAAXXZ 0000000140054e00 f i Chunk.obj
 0002:00012e50       ?_Orphan_all_locked_v3@_Container_base12@std@@AEAAXXZ 0000000140054e50 f i Chunk.obj
 0002:00012f20       ?_Orphan_all_unlocked_v3@_Container_base12@std@@AEAAXXZ 0000000140054f20 f i Chunk.obj
 0002:00012fd0       ?_Tidy@?$vector@IV?$allocator@I@std@@@std@@AEAAXXZ 0000000140054fd0 f i Chunk.obj
 0002:00013100       ?_Tidy@?$vector@MV?$allocator@M@std@@@std@@AEAAXXZ 0000000140055100 f i Chunk.obj
 0002:00013230       ?__autoclassinit2@MeshBuilder@@QEAAX_K@Z 0000000140055230 f i Chunk.obj
 0002:00013270       ?call@?$compute_vec4_add@M$0A@$0A@@detail@glm@@SA?AU?$vec@$03M$0A@@3@AEBU43@0@Z 0000000140055270 f i Chunk.obj
 0002:00013370       ?call@?$compute_vec4_mul@M$0A@$0A@@detail@glm@@SA?AU?$vec@$03M$0A@@3@AEBU43@0@Z 0000000140055370 f i Chunk.obj
 0002:00013470       ?cullingMeshing@Chunk@@AEAAXXZ 0000000140055470 f   Chunk.obj
 0002:00013ec0       ?deallocate@?$_Default_allocator_traits@V?$allocator@U_Container_proxy@std@@@std@@@std@@SAXAEAV?$allocator@U_Container_proxy@std@@@2@QEAU_Container_proxy@2@_K@Z 0000000140055ec0 f i Chunk.obj
 0002:00013f20       ?deallocate@?$allocator@I@std@@QEAAXQEAI_K@Z 0000000140055f20 f i Chunk.obj
 0002:00014040       ?deallocate@?$allocator@M@std@@QEAAXQEAM_K@Z 0000000140056040 f i Chunk.obj
 0002:00014160       ?destroy@Chunk@@UEAAXXZ    0000000140056160 f   Chunk.obj
 0002:000141b0       ?getActualFaceIndex@Chunk@@AEAAHH_N@Z 00000001400561b0 f   Chunk.obj
 0002:000142f0       ?greedyMeshing@Chunk@@AEAAXXZ 00000001400562f0 f   Chunk.obj
 0002:00015900       ?init@Chunk@@UEAAXXZ       0000000140057900 f   Chunk.obj
 0002:00015a40       ?isFaceBlocking@Chunk@@AEAA_NU?$vec@$02M$0A@@glm@@H_N@Z 0000000140057a40 f   Chunk.obj
 0002:00015c00       ?length@?$vec@$02M$0A@@glm@@SAHXZ 0000000140057c00 f i Chunk.obj
 0002:00015c40       ?render@Chunk@@UEAAXM@Z    0000000140057c40 f   Chunk.obj
 0002:00015cb0       ?shouldMergeTwoVoxel@Chunk@@AEAA_NU?$vec@$02M$0A@@glm@@0H_N@Z 0000000140057cb0 f   Chunk.obj
 0002:00015ef0       ?stupidMeshing@Chunk@@AEAAXXZ 0000000140057ef0 f   Chunk.obj
 0002:00016910       ?update@Chunk@@UEAAXM@Z    0000000140058910 f   Chunk.obj
 0002:00016950       ?what@exception@std@@UEBAPEBDXZ 0000000140058950 f i Chunk.obj
 0002:000169d0       ??$?0$$V@?$_Compressed_pair@V?$allocator@D@std@@V?$_String_val@U?$_Simple_types@D@std@@@2@$00@std@@QEAA@U_Zero_then_variadic_args_t@1@@Z 00000001400589d0 f i FileUtils.obj
 0002:00016a40       ??$?0AEAPEAV_Facet_base@std@@@?$_Compressed_pair@U?$default_delete@V_Facet_base@std@@@std@@PEAV_Facet_base@2@$00@std@@QEAA@U_Zero_then_variadic_args_t@1@AEAPEAV_Facet_base@1@@Z 0000000140058a40 f i FileUtils.obj
 0002:00016ab0       ??$?0AEBV?$allocator@D@std@@$$V@?$_Compressed_pair@V?$allocator@D@std@@V?$_String_val@U?$_Simple_types@D@std@@@2@$00@std@@QEAA@U_One_then_variadic_args_t@1@AEBV?$allocator@D@1@@Z 0000000140058ab0 f i FileUtils.obj
 0002:00016b10       ??$?0D@?$allocator@U_Container_proxy@std@@@std@@QEAA@AEBV?$allocator@D@1@@Z 0000000140058b10 f i FileUtils.obj
 0002:00016b60       ??$?0U?$default_delete@V_Facet_base@std@@@std@@$0A@@?$unique_ptr@V_Facet_base@std@@U?$default_delete@V_Facet_base@std@@@2@@std@@QEAA@PEAV_Facet_base@1@@Z 0000000140058b60 f i FileUtils.obj
 0002:00016bd0       ??$?6U?$char_traits@D@std@@@std@@YAAEAV?$basic_ostream@DU?$char_traits@D@std@@@0@AEAV10@PEBD@Z 0000000140058bd0 f i FileUtils.obj
 0002:00017070       ??$_Alloc_proxy@V?$allocator@U_Container_proxy@std@@@std@@@_Container_base12@std@@QEAAX$$QEAV?$allocator@U_Container_proxy@std@@@1@@Z 0000000140059070 f i FileUtils.obj
 0002:00017120       ??$_Allocate@$0BA@U_Default_allocate_traits@std@@@std@@YAPEAX_K@Z 0000000140059120 f i FileUtils.obj
 0002:000171a0       ??$_Allocate_at_least_helper@V?$allocator@D@std@@@std@@YAPEADAEAV?$allocator@D@0@AEA_K@Z 00000001400591a0 f i FileUtils.obj
 0002:00017200       ??$_Allocate_for_capacity@$0A@@?$basic_string@DU?$char_traits@D@std@@V?$allocator@D@2@@std@@CAPEADAEAV?$allocator@D@1@AEA_K@Z 0000000140059200 f i FileUtils.obj
 0002:000172a0       ??$_Allocate_manually_vector_aligned@U_Default_allocate_traits@std@@@std@@YAPEAX_K@Z 00000001400592a0 f i FileUtils.obj
 0002:00017400       ??$_Construct_in_place@PEADAEBQEAD@std@@YAXAEAPEADAEBQEAD@Z 0000000140059400 f i FileUtils.obj
 0002:00017480       ??$_Construct_in_place@U_Container_proxy@std@@PEAU_Container_base12@2@@std@@YAXAEAU_Container_proxy@0@$$QEAPEAU_Container_base12@0@@Z 0000000140059480 f i FileUtils.obj
 0002:00017500       ??$_Destroy_in_place@PEAD@std@@YAXAEAPEAD@Z 0000000140059500 f i FileUtils.obj
 0002:00017540       ??$_Fgetc@D@std@@YA_NAEADPEAU_iobuf@@@Z 0000000140059540 f i FileUtils.obj
 0002:000175b0       ??$_Fputc@D@std@@YA_NDPEAU_iobuf@@@Z 00000001400595b0 f i FileUtils.obj
 0002:00017630       ??$_Get_size_of_n@$00@std@@YA_K_K@Z 0000000140059630 f i FileUtils.obj
 0002:00017680       ??$_Get_size_of_n@$0BA@@std@@YA_K_K@Z 0000000140059680 f i FileUtils.obj
 0002:00017700       ??$_Max_limit@_J@std@@YA_JXZ 0000000140059700 f i FileUtils.obj
 0002:00017750       ??$_Reallocate_for@V<lambda_1>@?1??assign@?$basic_string@DU?$char_traits@D@std@@V?$allocator@D@2@@std@@QEAAAEAV34@QEBD_K@Z@PEBD@?$basic_string@DU?$char_traits@D@std@@V?$allocator@D@2@@std@@AEAAAEAV01@_KV<lambda_1>@?1??assign@01@QEAAAEAV01@QEBD0@Z@PEBD@Z 0000000140059750 f i FileUtils.obj
 0002:00017950       ??$_Reallocate_grow_by@V<lambda_1>@?1??push_back@?$basic_string@DU?$char_traits@D@std@@V?$allocator@D@2@@std@@QEAAXD@Z@D@?$basic_string@DU?$char_traits@D@std@@V?$allocator@D@2@@std@@AEAAAEAV01@_KV<lambda_1>@?1??push_back@01@QEAAXD@Z@D@Z 0000000140059950 f i FileUtils.obj
 0002:00017bf0       ??$_Unfancy@D@std@@YAPEADPEAD@Z 0000000140059bf0 f i FileUtils.obj
 0002:00017c30       ??$_Unfancy@U_Container_proxy@std@@@std@@YAPEAU_Container_proxy@0@PEAU10@@Z 0000000140059c30 f i FileUtils.obj
 0002:00017c70       ??$_Ungetc@D@std@@YA_NAEBDPEAU_iobuf@@@Z 0000000140059c70 f i FileUtils.obj
 0002:00017d00       ??$addressof@$$CBV?$basic_filebuf@DU?$char_traits@D@std@@@std@@@std@@YAPEBV?$basic_filebuf@DU?$char_traits@D@std@@@0@AEBV10@@Z 0000000140059d00 f i FileUtils.obj
 0002:00017d40       ??$addressof@$$CBV?$codecvt@DDU_Mbstatet@@@std@@@std@@YAPEBV?$codecvt@DDU_Mbstatet@@@0@AEBV10@@Z 0000000140059d40 f i FileUtils.obj
 0002:00017d80       ??$addressof@D@std@@YAPEADAEAD@Z 0000000140059d80 f i FileUtils.obj
 0002:00017dc0       ??$addressof@PEAD@std@@YAPEAPEADAEAPEAD@Z 0000000140059dc0 f i FileUtils.obj
 0002:00017e00       ??$addressof@U_Container_proxy@std@@@std@@YAPEAU_Container_proxy@0@AEAU10@@Z 0000000140059e00 f i FileUtils.obj
 0002:00017e40       ??$addressof@V?$basic_filebuf@DU?$char_traits@D@std@@@std@@@std@@YAPEAV?$basic_filebuf@DU?$char_traits@D@std@@@0@AEAV10@@Z 0000000140059e40 f i FileUtils.obj
 0002:00017e80       ??$addressof@V?$basic_stringbuf@DU?$char_traits@D@std@@V?$allocator@D@2@@std@@@std@@YAPEAV?$basic_stringbuf@DU?$char_traits@D@std@@V?$allocator@D@2@@0@AEAV10@@Z 0000000140059e80 f i FileUtils.obj
 0002:00017ec0       ??$endl@DU?$char_traits@D@std@@@std@@YAAEAV?$basic_ostream@DU?$char_traits@D@std@@@0@AEAV10@@Z 0000000140059ec0 f i FileUtils.obj
 0002:00017f60       ??$exchange@PEAV_Facet_base@std@@$$T@std@@YAPEAV_Facet_base@0@AEAPEAV10@$$QEA$$T@Z 0000000140059f60 f i FileUtils.obj
 0002:00017fd0       ??$max@PEAD@std@@YAAEBQEADAEBQEAD0@Z 0000000140059fd0 f i FileUtils.obj
 0002:00018070       ??$max@_K@std@@YAAEB_KAEB_K0@Z 000000014005a070 f i FileUtils.obj
 0002:00018110       ??$min@_K@std@@YAAEB_KAEB_K0@Z 000000014005a110 f i FileUtils.obj
 0002:000181b0       ??$use_facet@V?$codecvt@DDU_Mbstatet@@@std@@@std@@YAAEBV?$codecvt@DDU_Mbstatet@@@0@AEBVlocale@0@@Z 000000014005a1b0 f i FileUtils.obj
 0002:000183b0       ??0?$_String_val@U?$_Simple_types@D@std@@@std@@QEAA@XZ 000000014005a3b0 f i FileUtils.obj
 0002:00018440       ??0?$allocator@D@std@@QEAA@XZ 000000014005a440 f i FileUtils.obj
 0002:00018480       ??0?$basic_filebuf@DU?$char_traits@D@std@@@std@@QEAA@XZ 000000014005a480 f i FileUtils.obj
 0002:00018500       ??0?$basic_ifstream@DU?$char_traits@D@std@@@std@@QEAA@XZ 000000014005a500 f i FileUtils.obj
 0002:00018650       ??0?$basic_string@DU?$char_traits@D@std@@V?$allocator@D@2@@std@@QEAA@AEBV?$allocator@D@1@@Z 000000014005a650 f i FileUtils.obj
 0002:000186d0       ??0?$basic_string@DU?$char_traits@D@std@@V?$allocator@D@2@@std@@QEAA@XZ 000000014005a6d0 f i FileUtils.obj
 0002:00018740       ??0?$basic_stringbuf@DU?$char_traits@D@std@@V?$allocator@D@2@@std@@QEAA@H@Z 000000014005a740 f i FileUtils.obj
 0002:000187f0       ??0?$basic_stringstream@DU?$char_traits@D@std@@V?$allocator@D@2@@std@@QEAA@XZ 000000014005a7f0 f i FileUtils.obj
 0002:00018960       ??0?$fpos@U_Mbstatet@@@std@@QEAA@U_Mbstatet@@_J@Z 000000014005a960 f i FileUtils.obj
 0002:000189f0       ??0?$fpos@U_Mbstatet@@@std@@QEAA@_J@Z 000000014005a9f0 f i FileUtils.obj
 0002:00018a80       ??0_Bxty@?$_String_val@U?$_Simple_types@D@std@@@std@@QEAA@XZ 000000014005aa80 f i FileUtils.obj
 0002:00018ae0       ??0_Container_base12@std@@QEAA@XZ 000000014005aae0 f i FileUtils.obj
 0002:00018b30       ??0_Container_proxy@std@@QEAA@PEAU_Container_base12@1@@Z 000000014005ab30 f i FileUtils.obj
 0002:00018ba0       ??0_Sentry_base@?$basic_ostream@DU?$char_traits@D@std@@@std@@QEAA@AEAV12@@Z 000000014005aba0 f i FileUtils.obj
 0002:00018c60       ??0bad_alloc@std@@AEAA@QEBD@Z 000000014005ac60 f i FileUtils.obj
 0002:00018ce0       ??0bad_alloc@std@@QEAA@AEBV01@@Z 000000014005ace0 f i FileUtils.obj
 0002:00018d50       ??0bad_array_new_length@std@@QEAA@AEBV01@@Z 000000014005ad50 f i FileUtils.obj
 0002:00018dc0       ??0bad_array_new_length@std@@QEAA@XZ 000000014005adc0 f i FileUtils.obj
 0002:00018e30       ??0bad_cast@std@@QEAA@AEBV01@@Z 000000014005ae30 f i FileUtils.obj
 0002:00018ea0       ??0bad_cast@std@@QEAA@XZ   000000014005aea0 f i FileUtils.obj
 0002:00018f20       ??0exception@std@@QEAA@QEBDH@Z 000000014005af20 f i FileUtils.obj
 0002:00018fc0       ??0sentry@?$basic_ostream@DU?$char_traits@D@std@@@std@@QEAA@AEAV12@@Z 000000014005afc0 f i FileUtils.obj
 0002:00019110       ??1?$_Compressed_pair@V?$allocator@D@std@@V?$_String_val@U?$_Simple_types@D@std@@@2@$00@std@@QEAA@XZ 000000014005b110 f i FileUtils.obj
 0002:00019150       ??1?$_String_val@U?$_Simple_types@D@std@@@std@@QEAA@XZ 000000014005b150 f i FileUtils.obj
 0002:00019190       ??1?$basic_filebuf@DU?$char_traits@D@std@@@std@@UEAA@XZ 000000014005b190 f i FileUtils.obj
 0002:00019240       ??1?$basic_ifstream@DU?$char_traits@D@std@@@std@@UEAA@XZ 000000014005b240 f i FileUtils.obj
 0002:00019330       ??1?$basic_string@DU?$char_traits@D@std@@V?$allocator@D@2@@std@@QEAA@XZ 000000014005b330 f i FileUtils.obj
 0002:00019440       ??1?$basic_stringbuf@DU?$char_traits@D@std@@V?$allocator@D@2@@std@@UEAA@XZ 000000014005b440 f i FileUtils.obj
 0002:000194b0       ??1?$basic_stringstream@DU?$char_traits@D@std@@V?$allocator@D@2@@std@@UEAA@XZ 000000014005b4b0 f i FileUtils.obj
 0002:000195a0       ??1?$unique_ptr@V_Facet_base@std@@U?$default_delete@V_Facet_base@std@@@2@@std@@QEAA@XZ 000000014005b5a0 f i FileUtils.obj
 0002:00019610       ??1_Bxty@?$_String_val@U?$_Simple_types@D@std@@@std@@QEAA@XZ 000000014005b610 f i FileUtils.obj
 0002:00019650       ??1_Sentry_base@?$basic_ostream@DU?$char_traits@D@std@@@std@@QEAA@XZ 000000014005b650 f i FileUtils.obj
 0002:000196f0       ??1bad_alloc@std@@UEAA@XZ  000000014005b6f0 f i FileUtils.obj
 0002:00019730       ??1bad_array_new_length@std@@UEAA@XZ 000000014005b730 f i FileUtils.obj
 0002:00019770       ??1bad_cast@std@@UEAA@XZ   000000014005b770 f i FileUtils.obj
 0002:000197b0       ??1locale@std@@QEAA@XZ     000000014005b7b0 f i FileUtils.obj
 0002:00019870       ??1sentry@?$basic_ostream@DU?$char_traits@D@std@@@std@@QEAA@XZ 000000014005b870 f i FileUtils.obj
 0002:00019910       ??2@YAPEAX_KPEAX@Z         000000014005b910 f i FileUtils.obj
 0002:00019960       ??B?$fpos@U_Mbstatet@@@std@@QEBA_JXZ 000000014005b960 f i FileUtils.obj
 0002:000199b0       ??Bsentry@?$basic_ostream@DU?$char_traits@D@std@@@std@@QEBA_NXZ 000000014005b9b0 f i FileUtils.obj
 0002:00019a00       ??R<lambda_1>@?1??assign@?$basic_string@DU?$char_traits@D@std@@V?$allocator@D@2@@std@@QEAAAEAV23@QEBD_K@Z@QEBA@QEAD10@Z 000000014005ba00 f i FileUtils.obj
 0002:00019aa0       ??R<lambda_1>@?1??push_back@?$basic_string@DU?$char_traits@D@std@@V?$allocator@D@2@@std@@QEAAXD@Z@QEBA@QEADQEBD_KD@Z 000000014005baa0 f i FileUtils.obj
 0002:00019b70       ??R?$default_delete@V_Facet_base@std@@@std@@QEBAXPEAV_Facet_base@1@@Z 000000014005bb70 f i FileUtils.obj
 0002:00019c00       ??_D?$basic_ifstream@DU?$char_traits@D@std@@@std@@QEAAXXZ 000000014005bc00 f i FileUtils.obj
 0002:00019c60       ??_D?$basic_stringstream@DU?$char_traits@D@std@@V?$allocator@D@2@@std@@QEAAXXZ 000000014005bc60 f i FileUtils.obj
 0002:00019cbc       ??_E?$basic_ifstream@DU?$char_traits@D@std@@@std@@$4PPPPPPPM@A@EAAPEAXI@Z 000000014005bcbc f i FileUtils.obj
 0002:00019ccc       ??_E?$basic_stringstream@DU?$char_traits@D@std@@V?$allocator@D@2@@std@@$4PPPPPPPM@A@EAAPEAXI@Z 000000014005bccc f i FileUtils.obj
 0002:00019ce0       ??_E?$basic_filebuf@DU?$char_traits@D@std@@@std@@UEAAPEAXI@Z 000000014005bce0 f i FileUtils.obj
 0002:00019ce0       ??_G?$basic_filebuf@DU?$char_traits@D@std@@@std@@UEAAPEAXI@Z 000000014005bce0 f i FileUtils.obj
 0002:00019d50       ??_E?$basic_ifstream@DU?$char_traits@D@std@@@std@@UEAAPEAXI@Z 000000014005bd50 f i FileUtils.obj
 0002:00019d50       ??_G?$basic_ifstream@DU?$char_traits@D@std@@@std@@UEAAPEAXI@Z 000000014005bd50 f i FileUtils.obj
 0002:00019de0       ??_E?$basic_stringbuf@DU?$char_traits@D@std@@V?$allocator@D@2@@std@@UEAAPEAXI@Z 000000014005bde0 f i FileUtils.obj
 0002:00019de0       ??_G?$basic_stringbuf@DU?$char_traits@D@std@@V?$allocator@D@2@@std@@UEAAPEAXI@Z 000000014005bde0 f i FileUtils.obj
 0002:00019e50       ??_E?$basic_stringstream@DU?$char_traits@D@std@@V?$allocator@D@2@@std@@UEAAPEAXI@Z 000000014005be50 f i FileUtils.obj
 0002:00019e50       ??_G?$basic_stringstream@DU?$char_traits@D@std@@V?$allocator@D@2@@std@@UEAAPEAXI@Z 000000014005be50 f i FileUtils.obj
 0002:00019ee0       ??_Ebad_alloc@std@@UEAAPEAXI@Z 000000014005bee0 f i FileUtils.obj
 0002:00019ee0       ??_Gbad_alloc@std@@UEAAPEAXI@Z 000000014005bee0 f i FileUtils.obj
 0002:00019f50       ??_Ebad_array_new_length@std@@UEAAPEAXI@Z 000000014005bf50 f i FileUtils.obj
 0002:00019f50       ??_Gbad_array_new_length@std@@UEAAPEAXI@Z 000000014005bf50 f i FileUtils.obj
 0002:00019fc0       ??_Ebad_cast@std@@UEAAPEAXI@Z 000000014005bfc0 f i FileUtils.obj
 0002:00019fc0       ??_Gbad_cast@std@@UEAAPEAXI@Z 000000014005bfc0 f i FileUtils.obj
 0002:0001a030       ?_Activate_SSO_buffer@?$_String_val@U?$_Simple_types@D@std@@@std@@QEAAXXZ 000000014005c030 f i FileUtils.obj
 0002:0001a070       ?_Allocate@_Default_allocate_traits@std@@SAPEAX_K@Z 000000014005c070 f i FileUtils.obj
 0002:0001a0c0       ?_Calculate_growth@?$basic_string@DU?$char_traits@D@std@@V?$allocator@D@2@@std@@AEBA_K_K@Z 000000014005c0c0 f i FileUtils.obj
 0002:0001a130       ?_Calculate_growth@?$basic_string@DU?$char_traits@D@std@@V?$allocator@D@2@@std@@CA_K_K00@Z 000000014005c130 f i FileUtils.obj
 0002:0001a290       ?_Check_offset@?$_String_val@U?$_Simple_types@D@std@@@std@@QEBAX_K@Z 000000014005c290 f i FileUtils.obj
 0002:0001a2f0       ?_Clamp_suffix_size@?$_String_val@U?$_Simple_types@D@std@@@std@@QEBA_K_K0@Z 000000014005c2f0 f i FileUtils.obj
 0002:0001a370       ?_Construct_empty@?$basic_string@DU?$char_traits@D@std@@V?$allocator@D@2@@std@@AEAAXXZ 000000014005c370 f i FileUtils.obj
 0002:0001a450       ?_Deallocate_for_capacity@?$basic_string@DU?$char_traits@D@std@@V?$allocator@D@2@@std@@CAXAEAV?$allocator@D@2@QEAD_K@Z 000000014005c450 f i FileUtils.obj
 0002:0001a4c0       ?_Endwrite@?$basic_filebuf@DU?$char_traits@D@std@@@std@@IEAA_NXZ 000000014005c4c0 f i FileUtils.obj
 0002:0001a730       ?_Erase_noexcept@?$basic_string@DU?$char_traits@D@std@@V?$allocator@D@2@@std@@AEAAAEAV12@_K_K@Z 000000014005c730 f i FileUtils.obj
 0002:0001a860       ?_Get_buffer_view@?$basic_stringbuf@DU?$char_traits@D@std@@V?$allocator@D@2@@std@@QEBA?AU_Buffer_view@12@XZ 000000014005c860 f i FileUtils.obj
 0002:0001aa70       ?_Get_first@?$_Compressed_pair@U?$default_delete@V_Facet_base@std@@@std@@PEAV_Facet_base@2@$00@std@@QEAAAEAU?$default_delete@V_Facet_base@std@@@2@XZ 000000014005ca70 f i FileUtils.obj
 0002:0001aab0       ?_Get_first@?$_Compressed_pair@V?$allocator@D@std@@V?$_String_val@U?$_Simple_types@D@std@@@2@$00@std@@QEAAAEAV?$allocator@D@2@XZ 000000014005cab0 f i FileUtils.obj
 0002:0001aaf0       ?_Get_first@?$_Compressed_pair@V?$allocator@D@std@@V?$_String_val@U?$_Simple_types@D@std@@@2@$00@std@@QEBAAEBV?$allocator@D@2@XZ 000000014005caf0 f i FileUtils.obj
 0002:0001ab30       ?_Getal@?$basic_string@DU?$char_traits@D@std@@V?$allocator@D@2@@std@@AEAAAEAV?$allocator@D@2@XZ 000000014005cb30 f i FileUtils.obj
 0002:0001ab80       ?_Getal@?$basic_string@DU?$char_traits@D@std@@V?$allocator@D@2@@std@@AEBAAEBV?$allocator@D@2@XZ 000000014005cb80 f i FileUtils.obj
 0002:0001abd0       ?_Getfacet@locale@std@@QEBAPEBVfacet@12@_K@Z 000000014005cbd0 f i FileUtils.obj
 0002:0001ace0       ?_Getstate@?$basic_stringbuf@DU?$char_traits@D@std@@V?$allocator@D@2@@std@@CAHH@Z 000000014005cce0 f i FileUtils.obj
 0002:0001ad90       ?_Init@?$basic_filebuf@DU?$char_traits@D@std@@@std@@IEAAXPEAU_iobuf@@W4_Initfl@12@@Z 000000014005cd90 f i FileUtils.obj
 0002:0001af70       ?_Initcvt@?$basic_filebuf@DU?$char_traits@D@std@@@std@@IEAAXAEBV?$codecvt@DDU_Mbstatet@@@2@@Z 000000014005cf70 f i FileUtils.obj
 0002:0001b010       ?_Large_mode_engaged@?$_String_val@U?$_Simple_types@D@std@@@std@@QEBA_NXZ 000000014005d010 f i FileUtils.obj
 0002:0001b080       ?_Lock@?$basic_filebuf@DU?$char_traits@D@std@@@std@@UEAAXXZ 000000014005d080 f i FileUtils.obj
 0002:0001b0f0       ?_Myptr@?$_String_val@U?$_Simple_types@D@std@@@std@@QEAAPEADXZ 000000014005d0f0 f i FileUtils.obj
 0002:0001b170       ?_Myptr@?$_String_val@U?$_Simple_types@D@std@@@std@@QEBAPEBDXZ 000000014005d170 f i FileUtils.obj
 0002:0001b1f0       ?_Reset_back@?$basic_filebuf@DU?$char_traits@D@std@@@std@@AEAAXXZ 000000014005d1f0 f i FileUtils.obj
 0002:0001b290       ?_Set_back@?$basic_filebuf@DU?$char_traits@D@std@@@std@@AEAAXXZ 000000014005d290 f i FileUtils.obj
 0002:0001b370       ?_Switch_to_buf@_Bxty@?$_String_val@U?$_Simple_types@D@std@@@std@@QEAAXXZ 000000014005d370 f i FileUtils.obj
 0002:0001b3c0       ?_Throw_bad_array_new_length@std@@YAXXZ 000000014005d3c0 f i FileUtils.obj
 0002:0001b420       ?_Throw_bad_cast@std@@YAXXZ 000000014005d420 f i FileUtils.obj
 0002:0001b480       ?_Tidy@?$basic_stringbuf@DU?$char_traits@D@std@@V?$allocator@D@2@@std@@IEAAXXZ 000000014005d480 f i FileUtils.obj
 0002:0001b5f0       ?_Tidy_deallocate@?$basic_string@DU?$char_traits@D@std@@V?$allocator@D@2@@std@@AEAAXXZ 000000014005d5f0 f i FileUtils.obj
 0002:0001b6f0       ?_Unlock@?$basic_filebuf@DU?$char_traits@D@std@@@std@@UEAAXXZ 000000014005d6f0 f i FileUtils.obj
 0002:0001b760       ?_Xlen_string@std@@YAXXZ   000000014005d760 f i FileUtils.obj
 0002:0001b7a0       ?_Xran@?$_String_val@U?$_Simple_types@D@std@@@std@@SAXXZ 000000014005d7a0 f i FileUtils.obj
 0002:0001b7e0       ?__autoclassinit2@?$basic_ifstream@DU?$char_traits@D@std@@@std@@QEAAX_K@Z 000000014005d7e0 f i FileUtils.obj
 0002:0001b820       ?__autoclassinit2@?$basic_stringstream@DU?$char_traits@D@std@@V?$allocator@D@2@@std@@QEAAX_K@Z 000000014005d820 f i FileUtils.obj
 0002:0001b860       ?__autoclassinit2@?$unique_ptr@V_Facet_base@std@@U?$default_delete@V_Facet_base@std@@@2@@std@@QEAAX_K@Z 000000014005d860 f i FileUtils.obj
 0002:0001b8a0       ?allocate@?$allocator@D@std@@QEAAPEAD_K@Z 000000014005d8a0 f i FileUtils.obj
 0002:0001b900       ?allocate@?$allocator@U_Container_proxy@std@@@std@@QEAAPEAU_Container_proxy@2@_K@Z 000000014005d900 f i FileUtils.obj
 0002:0001b960       ?assign@?$_Narrow_char_traits@DH@std@@SAXAEADAEBD@Z 000000014005d960 f i FileUtils.obj
 0002:0001b9c0       ?assign@?$basic_string@DU?$char_traits@D@std@@V?$allocator@D@2@@std@@QEAAAEAV12@QEBD_K@Z 000000014005d9c0 f i FileUtils.obj
 0002:0001baf0       ?close@?$basic_filebuf@DU?$char_traits@D@std@@@std@@QEAAPEAV12@XZ 000000014005daf0 f i FileUtils.obj
 0002:0001bbd0       ?close@?$basic_ifstream@DU?$char_traits@D@std@@@std@@QEAAXXZ 000000014005dbd0 f i FileUtils.obj
 0002:0001bc60       ?copy@?$_Char_traits@DH@std@@SAPEADQEADQEBD_K@Z 000000014005dc60 f i FileUtils.obj
 0002:0001bcd0       ?data@?$basic_string@DU?$char_traits@D@std@@V?$allocator@D@2@@std@@QEBAPEBDXZ 000000014005dcd0 f i FileUtils.obj
 0002:0001bd20       ?deallocate@?$allocator@D@std@@QEAAXQEAD_K@Z 000000014005dd20 f i FileUtils.obj
 0002:0001be30       ?eof@?$_Narrow_char_traits@DH@std@@SAHXZ 000000014005de30 f i FileUtils.obj
 0002:0001be70       ?eq@?$_Narrow_char_traits@DH@std@@SA_NDD@Z 000000014005de70 f i FileUtils.obj
 0002:0001bef0       ?eq_int_type@?$_Narrow_char_traits@DH@std@@SA_NHH@Z 000000014005def0 f i FileUtils.obj
 0002:0001bf60       ?erase@?$basic_string@DU?$char_traits@D@std@@V?$allocator@D@2@@std@@QEAAAEAV12@_K0@Z 000000014005df60 f i FileUtils.obj
 0002:0001bfe0       ?front@?$basic_string@DU?$char_traits@D@std@@V?$allocator@D@2@@std@@QEAAAEADXZ 000000014005dfe0 f i FileUtils.obj
 0002:0001c0e0       ?imbue@?$basic_filebuf@DU?$char_traits@D@std@@@std@@MEAAXAEBVlocale@2@@Z 000000014005e0e0 f i FileUtils.obj
 0002:0001c140       ?length@?$_Narrow_char_traits@DH@std@@SA_KQEBD@Z 000000014005e140 f i FileUtils.obj
 0002:0001c190       ?max_size@?$_Default_allocator_traits@V?$allocator@D@std@@@std@@SA_KAEBV?$allocator@D@2@@Z 000000014005e190 f i FileUtils.obj
 0002:0001c1d0       ?max_size@?$basic_string@DU?$char_traits@D@std@@V?$allocator@D@2@@std@@QEBA_KXZ 000000014005e1d0 f i FileUtils.obj
 0002:0001c2f0       ?move@?$_Char_traits@DH@std@@SAPEADQEADQEBD_K@Z 000000014005e2f0 f i FileUtils.obj
 0002:0001c360       ?not_eof@?$_Narrow_char_traits@DH@std@@SAHH@Z 000000014005e360 f i FileUtils.obj
 0002:0001c400       ?open@?$basic_filebuf@DU?$char_traits@D@std@@@std@@QEAAPEAV12@PEBDHH@Z 000000014005e400 f i FileUtils.obj
 0002:0001c530       ?open@?$basic_ifstream@DU?$char_traits@D@std@@@std@@QEAAXPEBDHH@Z 000000014005e530 f i FileUtils.obj
 0002:0001c630       ?overflow@?$basic_filebuf@DU?$char_traits@D@std@@@std@@MEAAHH@Z 000000014005e630 f i FileUtils.obj
 0002:0001c9e0       ?overflow@?$basic_stringbuf@DU?$char_traits@D@std@@V?$allocator@D@2@@std@@MEAAHH@Z 000000014005e9e0 f i FileUtils.obj
 0002:0001ce00       ?pbackfail@?$basic_filebuf@DU?$char_traits@D@std@@@std@@MEAAHH@Z 000000014005ee00 f i FileUtils.obj
 0002:0001d020       ?pbackfail@?$basic_stringbuf@DU?$char_traits@D@std@@V?$allocator@D@2@@std@@MEAAHH@Z 000000014005f020 f i FileUtils.obj
 0002:0001d190       ?pointer_to@?$pointer_traits@PEAD@std@@SAPEADAEAD@Z 000000014005f190 f i FileUtils.obj
 0002:0001d1e0       ?push_back@?$basic_string@DU?$char_traits@D@std@@V?$allocator@D@2@@std@@QEAAXD@Z 000000014005f1e0 f i FileUtils.obj
 0002:0001d310       ?rdbuf@?$basic_ifstream@DU?$char_traits@D@std@@@std@@QEBAPEAV?$basic_filebuf@DU?$char_traits@D@std@@@2@XZ 000000014005f310 f i FileUtils.obj
 0002:0001d360       ?readFile@FileUtils@@SA?AV?$basic_string@DU?$char_traits@D@std@@V?$allocator@D@2@@std@@PEBD@Z 000000014005f360 f   FileUtils.obj
 0002:0001d560       ?release@?$unique_ptr@V_Facet_base@std@@U?$default_delete@V_Facet_base@std@@@2@@std@@QEAAPEAV_Facet_base@2@XZ 000000014005f560 f i FileUtils.obj
 0002:0001d5c0       ?seekoff@?$basic_filebuf@DU?$char_traits@D@std@@@std@@MEAA?AV?$fpos@U_Mbstatet@@@2@_JHH@Z 000000014005f5c0 f i FileUtils.obj
 0002:0001d7c0       ?seekoff@?$basic_stringbuf@DU?$char_traits@D@std@@V?$allocator@D@2@@std@@MEAA?AV?$fpos@U_Mbstatet@@@2@_JHH@Z 000000014005f7c0 f i FileUtils.obj
 0002:0001dc90       ?seekpos@?$basic_filebuf@DU?$char_traits@D@std@@@std@@MEAA?AV?$fpos@U_Mbstatet@@@2@V32@H@Z 000000014005fc90 f i FileUtils.obj
 0002:0001de30       ?seekpos@?$basic_stringbuf@DU?$char_traits@D@std@@V?$allocator@D@2@@std@@MEAA?AV?$fpos@U_Mbstatet@@@2@V32@H@Z 000000014005fe30 f i FileUtils.obj
 0002:0001e1b0       ?setbuf@?$basic_filebuf@DU?$char_traits@D@std@@@std@@MEAAPEAV?$basic_streambuf@DU?$char_traits@D@std@@@2@PEAD_J@Z 00000001400601b0 f i FileUtils.obj
 0002:0001e2b0       ?size@?$basic_string@DU?$char_traits@D@std@@V?$allocator@D@2@@std@@QEBA_KXZ 00000001400602b0 f i FileUtils.obj
 0002:0001e300       ?state@?$fpos@U_Mbstatet@@@std@@QEBA?AU_Mbstatet@@XZ 0000000140060300 f i FileUtils.obj
 0002:0001e360       ?str@?$basic_stringbuf@DU?$char_traits@D@std@@V?$allocator@D@2@@std@@QEBA?AV?$basic_string@DU?$char_traits@D@std@@V?$allocator@D@2@@2@XZ 0000000140060360 f i FileUtils.obj
 0002:0001e490       ?str@?$basic_stringstream@DU?$char_traits@D@std@@V?$allocator@D@2@@std@@QEBA?AV?$basic_string@DU?$char_traits@D@std@@V?$allocator@D@2@@2@XZ 0000000140060490 f i FileUtils.obj
 0002:0001e520       ?sync@?$basic_filebuf@DU?$char_traits@D@std@@@std@@MEAAHXZ 0000000140060520 f i FileUtils.obj
 0002:0001e5f0       ?to_char_type@?$_Narrow_char_traits@DH@std@@SADH@Z 00000001400605f0 f i FileUtils.obj
 0002:0001e630       ?to_int_type@?$_Narrow_char_traits@DH@std@@SAHD@Z 0000000140060630 f i FileUtils.obj
 0002:0001e670       ?uflow@?$basic_filebuf@DU?$char_traits@D@std@@@std@@MEAAHXZ 0000000140060670 f i FileUtils.obj
 0002:0001eaf0       ?underflow@?$basic_filebuf@DU?$char_traits@D@std@@@std@@MEAAHXZ 0000000140060af0 f i FileUtils.obj
 0002:0001ec00       ?underflow@?$basic_stringbuf@DU?$char_traits@D@std@@V?$allocator@D@2@@std@@MEAAHXZ 0000000140060c00 f i FileUtils.obj
 0002:0001edf0       ?xsgetn@?$basic_filebuf@DU?$char_traits@D@std@@@std@@MEAA_JPEAD_J@Z 0000000140060df0 f i FileUtils.obj
 0002:0001f0f0       ?xsputn@?$basic_filebuf@DU?$char_traits@D@std@@@std@@MEAA_JPEBD_J@Z 00000001400610f0 f i FileUtils.obj
 0002:0001f2d0       ??$?0$$V@?$_Compressed_pair@V?$allocator@V?$shared_ptr@VGameObject@@@std@@@std@@V?$_Vector_val@U?$_Simple_types@V?$shared_ptr@VGameObject@@@std@@@std@@@2@$00@std@@QEAA@U_Zero_then_variadic_args_t@1@@Z 00000001400612d0 f i Game.obj
 0002:0001f340       ??$?0U?$vec@$02M$0A@@glm@@U01@@?$_Ref_count_obj2@VChunk@@@std@@QEAA@$$QEAU?$vec@$02M$0A@@glm@@0@Z 0000000140061340 f i Game.obj
 0002:0001f3f0       ??$?0V?$shared_ptr@VGameObject@@@std@@@?$allocator@U_Container_proxy@std@@@std@@QEAA@AEBV?$allocator@V?$shared_ptr@VGameObject@@@std@@@1@@Z 00000001400613f0 f i Game.obj
 0002:0001f440       ??$?0VChunk@@$0A@@?$shared_ptr@VGameObject@@@std@@QEAA@$$QEAV?$shared_ptr@VChunk@@@1@@Z 0000000140061440 f i Game.obj
 0002:0001f4b0       ??$?CVGameObject@@$0A@@?$shared_ptr@VGameObject@@@std@@QEBAPEAVGameObject@@XZ 00000001400614b0 f i Game.obj
 0002:0001f500       ??$?CVShaderProgram@@$0A@@?$shared_ptr@VShaderProgram@@@std@@QEBAPEAVShaderProgram@@XZ 0000000140061500 f i Game.obj
 0002:0001f550       ??$_Allocate_at_least_helper@V?$allocator@V?$shared_ptr@VGameObject@@@std@@@std@@@std@@YAPEAV?$shared_ptr@VGameObject@@@0@AEAV?$allocator@V?$shared_ptr@VGameObject@@@std@@@0@AEA_K@Z 0000000140061550 f i Game.obj
 0002:0001f5b0       ??$_Construct@$00PEBD@?$basic_string@DU?$char_traits@D@std@@V?$allocator@D@2@@std@@AEAAXQEBD_K@Z 00000001400615b0 f i Game.obj
 0002:0001f890       ??$_Construct_in_place@V?$shared_ptr@VGameObject@@@std@@V12@@std@@YAXAEAV?$shared_ptr@VGameObject@@@0@$$QEAV10@@Z 0000000140061890 f i Game.obj
 0002:0001f910       ??$_Construct_in_place@VChunk@@U?$vec@$02M$0A@@glm@@U23@@std@@YAXAEAVChunk@@$$QEAU?$vec@$02M$0A@@glm@@1@Z 0000000140061910 f i Game.obj
 0002:0001f9e0       ??$_Convert_size@_K_K@std@@YA_K_K@Z 00000001400619e0 f i Game.obj
 0002:0001fa20       ??$_Destroy_in_place@VChunk@@@std@@YAXAEAVChunk@@@Z 0000000140061a20 f i Game.obj
 0002:0001fa70       ??$_Destroy_range@V?$allocator@V?$shared_ptr@VGameObject@@@std@@@std@@@std@@YAXPEAV?$shared_ptr@VGameObject@@@0@QEAV10@AEAV?$allocator@V?$shared_ptr@VGameObject@@@std@@@0@@Z 0000000140061a70 f i Game.obj
 0002:0001fb10       ??$_Emplace_back@V?$shared_ptr@VGameObject@@@std@@@?$_Uninitialized_backout_al@V?$allocator@V?$shared_ptr@VGameObject@@@std@@@std@@@std@@QEAAX$$QEAV?$shared_ptr@VGameObject@@@1@@Z 0000000140061b10 f i Game.obj
 0002:0001fbb0       ??$_Emplace_back_with_unused_capacity@V?$shared_ptr@VGameObject@@@std@@@?$vector@V?$shared_ptr@VGameObject@@@std@@V?$allocator@V?$shared_ptr@VGameObject@@@std@@@2@@std@@AEAAAEAV?$shared_ptr@VGameObject@@@1@$$QEAV21@@Z 0000000140061bb0 f i Game.obj
 0002:0001fc70       ??$_Emplace_one_at_back@V?$shared_ptr@VGameObject@@@std@@@?$vector@V?$shared_ptr@VGameObject@@@std@@V?$allocator@V?$shared_ptr@VGameObject@@@std@@@2@@std@@AEAAAEAV?$shared_ptr@VGameObject@@@1@$$QEAV21@@Z 0000000140061c70 f i Game.obj
 0002:0001fd20       ??$_Emplace_reallocate@V?$shared_ptr@VGameObject@@@std@@@?$vector@V?$shared_ptr@VGameObject@@@std@@V?$allocator@V?$shared_ptr@VGameObject@@@std@@@2@@std@@AEAAPEAV?$shared_ptr@VGameObject@@@1@QEAV21@$$QEAV21@@Z 0000000140061d20 f i Game.obj
 0002:00020050       ??$_Get_unwrapped@AEBQEAV?$shared_ptr@VGameObject@@@std@@@std@@YA?A_TAEBQEAV?$shared_ptr@VGameObject@@@0@@Z 0000000140062050 f i Game.obj
 0002:000200a0       ??$_Move_construct_from@VChunk@@@?$_Ptr_base@VGameObject@@@std@@IEAAX$$QEAV?$_Ptr_base@VChunk@@@1@@Z 00000001400620a0 f i Game.obj
 0002:00020140       ??$_Move_construct_from@VGameObject@@@?$_Ptr_base@VGameObject@@@std@@IEAAX$$QEAV01@@Z 0000000140062140 f i Game.obj
 0002:000201e0       ??$_Set_ptr_rep_and_enable_shared@VChunk@@@?$shared_ptr@VChunk@@@std@@AEAAXQEAVChunk@@QEAV_Ref_count_base@1@@Z 00000001400621e0 f i Game.obj
 0002:00020250       ??$_Unfancy@V?$shared_ptr@VGameObject@@@std@@@std@@YAPEAV?$shared_ptr@VGameObject@@@0@PEAV10@@Z 0000000140062250 f i Game.obj
 0002:00020290       ??$_Unfancy_maybe_null@V?$shared_ptr@VGameObject@@@std@@@std@@YAPEAV?$shared_ptr@VGameObject@@@0@PEAV10@@Z 0000000140062290 f i Game.obj
 0002:000202d0       ??$_Uninitialized_move@PEAV?$shared_ptr@VGameObject@@@std@@V?$allocator@V?$shared_ptr@VGameObject@@@std@@@2@@std@@YAPEAV?$shared_ptr@VGameObject@@@0@QEAV10@0PEAV10@AEAV?$allocator@V?$shared_ptr@VGameObject@@@std@@@0@@Z 00000001400622d0 f i Game.obj
 0002:00020430       ??$abs@M@glm@@YAMM@Z       0000000140062430 f i Game.obj
 0002:00020480       ??$addressof@U_Container_base12@std@@@std@@YAPEAU_Container_base12@0@AEAU10@@Z 0000000140062480 f i Game.obj
 0002:000204c0       ??$addressof@V?$shared_ptr@VGameObject@@@std@@@std@@YAPEAV?$shared_ptr@VGameObject@@@0@AEAV10@@Z 00000001400624c0 f i Game.obj
 0002:00020500       ??$addressof@VChunk@@@std@@YAPEAVChunk@@AEAV1@@Z 0000000140062500 f i Game.obj
 0002:00020540       ??$construct@V?$shared_ptr@VGameObject@@@std@@V12@@?$_Default_allocator_traits@V?$allocator@V?$shared_ptr@VGameObject@@@std@@@std@@@std@@SAXAEAV?$allocator@V?$shared_ptr@VGameObject@@@std@@@1@QEAV?$shared_ptr@VGameObject@@@1@$$QEAV31@@Z 0000000140062540 f i Game.obj
 0002:000205c0       ??$destroy@V?$shared_ptr@VGameObject@@@std@@@?$_Default_allocator_traits@V?$allocator@V?$shared_ptr@VGameObject@@@std@@@std@@@std@@SAXAEAV?$allocator@V?$shared_ptr@VGameObject@@@std@@@1@QEAV?$shared_ptr@VGameObject@@@1@@Z 00000001400625c0 f i Game.obj
 0002:000212d0       ??$make_shared@VChunk@@U?$vec@$02M$0A@@glm@@U23@@std@@YA?AV?$shared_ptr@VChunk@@@0@$$QEAU?$vec@$02M$0A@@glm@@0@Z 00000001400632d0 f i Game.obj
 0002:00021450       ??$perspective@M@glm@@YA?AU?$mat@$03$03M$0A@@0@MMMM@Z 0000000140063450 f i Game.obj
 0002:000214f0       ??$perspectiveRH_NO@M@glm@@YA?AU?$mat@$03$03M$0A@@0@MMMM@Z 00000001400634f0 f i Game.obj
 0002:000217f0       ??0?$_Container_proxy_ptr12@V?$allocator@U_Container_proxy@std@@@std@@@std@@QEAA@AEAV?$allocator@U_Container_proxy@std@@@1@AEAU_Container_base12@1@@Z 00000001400637f0 f i Game.obj
 0002:000218e0       ??0?$_Ptr_base@VChunk@@@std@@IEAA@XZ 00000001400638e0 f i Game.obj
 0002:00021950       ??0?$_Ptr_base@VGameObject@@@std@@IEAA@XZ 0000000140063950 f i Game.obj
 0002:000219c0       ??0?$_Uninitialized_backout_al@V?$allocator@V?$shared_ptr@VGameObject@@@std@@@std@@@std@@QEAA@PEAV?$shared_ptr@VGameObject@@@1@AEAV?$allocator@V?$shared_ptr@VGameObject@@@std@@@1@@Z 00000001400639c0 f i Game.obj
 0002:00021a50       ??0?$_Vector_val@U?$_Simple_types@V?$shared_ptr@VGameObject@@@std@@@std@@@std@@QEAA@XZ 0000000140063a50 f i Game.obj
 0002:00021ae0       ??0?$allocator@V?$shared_ptr@VGameObject@@@std@@@std@@QEAA@XZ 0000000140063ae0 f i Game.obj
 0002:00021b20       ??0?$basic_string@DU?$char_traits@D@std@@V?$allocator@D@2@@std@@QEAA@QEBD@Z 0000000140063b20 f i Game.obj
 0002:00021bc0       ??0?$shared_ptr@VChunk@@@std@@QEAA@XZ 0000000140063bc0 f i Game.obj
 0002:00021c10       ??0?$shared_ptr@VGameObject@@@std@@QEAA@$$QEAV01@@Z 0000000140063c10 f i Game.obj
 0002:00021c80       ??0?$vector@V?$shared_ptr@VGameObject@@@std@@V?$allocator@V?$shared_ptr@VGameObject@@@std@@@2@@std@@QEAA@XZ 0000000140063c80 f i Game.obj
 0002:00021d10       ??0Game@@QEAA@HH@Z         0000000140063d10 f   Game.obj
 0002:00021e90       ??0_Basic_container_proxy_ptr12@std@@IEAA@XZ 0000000140063e90 f i Game.obj
 0002:00021ee0       ??0_Ref_count_base@std@@IEAA@XZ 0000000140063ee0 f i Game.obj
 0002:00021f40       ??1?$_Container_proxy_ptr12@V?$allocator@U_Container_proxy@std@@@std@@@std@@QEAA@XZ 0000000140063f40 f i Game.obj
 0002:00021fb0       ??1?$_Ref_count_obj2@VChunk@@@std@@UEAA@XZ 0000000140063fb0 f i Game.obj
 0002:00022010       ??1?$_Uninitialized_backout_al@V?$allocator@V?$shared_ptr@VGameObject@@@std@@@std@@@std@@QEAA@XZ 0000000140064010 f i Game.obj
 0002:00022080       ??1?$shared_ptr@VChunk@@@std@@QEAA@XZ 0000000140064080 f i Game.obj
 0002:000220d0       ??1?$shared_ptr@VGameObject@@@std@@QEAA@XZ 00000001400640d0 f i Game.obj
 0002:00022120       ??1?$shared_ptr@VTexture2DArray@@@std@@QEAA@XZ 0000000140064120 f i Game.obj
 0002:00022170       ??1?$vector@V?$shared_ptr@VGameObject@@@std@@V?$allocator@V?$shared_ptr@VGameObject@@@std@@@2@@std@@QEAA@XZ 0000000140064170 f i Game.obj
 0002:00022280       ??1Game@@QEAA@XZ           0000000140064280 f   Game.obj
 0002:000223a0       ??1_Ref_count_base@std@@UEAA@XZ 00000001400643a0 f i Game.obj
 0002:000223e0       ??_E?$_Ref_count_obj2@VChunk@@@std@@UEAAPEAXI@Z 00000001400643e0 f i Game.obj
 0002:000223e0       ??_G?$_Ref_count_obj2@VChunk@@@std@@UEAAPEAXI@Z 00000001400643e0 f i Game.obj
 0002:00022450       ??_G?$shared_ptr@VGameObject@@@std@@QEAAPEAXI@Z 0000000140064450 f i Game.obj
 0002:000224c0       ?_Calculate_growth@?$vector@V?$shared_ptr@VGameObject@@@std@@V?$allocator@V?$shared_ptr@VGameObject@@@std@@@2@@std@@AEBA_K_K@Z 00000001400644c0 f i Game.obj
 0002:000225a0       ?_Change_array@?$vector@V?$shared_ptr@VGameObject@@@std@@V?$allocator@V?$shared_ptr@VGameObject@@@std@@@2@@std@@AEAAXQEAV?$shared_ptr@VGameObject@@@2@_K1@Z 00000001400645a0 f i Game.obj
 0002:00022710       ?_Decref@?$_Ptr_base@VChunk@@@std@@IEAAXXZ 0000000140064710 f i Game.obj
 0002:00022770       ?_Decref@?$_Ptr_base@VGameObject@@@std@@IEAAXXZ 0000000140064770 f i Game.obj
 0002:000227d0       ?_Decref@?$_Ptr_base@VTexture2DArray@@@std@@IEAAXXZ 00000001400647d0 f i Game.obj
 0002:00022830       ?_Delete_this@?$_Ref_count_obj2@VChunk@@@std@@EEAAXXZ 0000000140064830 f i Game.obj
 0002:000228c0       ?_Destroy@?$_Ref_count_obj2@VChunk@@@std@@EEAAXXZ 00000001400648c0 f i Game.obj
 0002:00022910       ?_Get_deleter@_Ref_count_base@std@@UEBAPEAXAEBVtype_info@@@Z 0000000140064910 f i Game.obj
 0002:00022950       ?_Get_first@?$_Compressed_pair@V?$allocator@V?$shared_ptr@VGameObject@@@std@@@std@@V?$_Vector_val@U?$_Simple_types@V?$shared_ptr@VGameObject@@@std@@@std@@@2@$00@std@@QEAAAEAV?$allocator@V?$shared_ptr@VGameObject@@@std@@@2@XZ 0000000140064950 f i Game.obj
 0002:00022990       ?_Get_first@?$_Compressed_pair@V?$allocator@V?$shared_ptr@VGameObject@@@std@@@std@@V?$_Vector_val@U?$_Simple_types@V?$shared_ptr@VGameObject@@@std@@@std@@@2@$00@std@@QEBAAEBV?$allocator@V?$shared_ptr@VGameObject@@@std@@@2@XZ 0000000140064990 f i Game.obj
 0002:000229d0       ?_Getal@?$vector@V?$shared_ptr@VGameObject@@@std@@V?$allocator@V?$shared_ptr@VGameObject@@@std@@@2@@std@@AEAAAEAV?$allocator@V?$shared_ptr@VGameObject@@@std@@@2@XZ 00000001400649d0 f i Game.obj
 0002:00022a20       ?_Getal@?$vector@V?$shared_ptr@VGameObject@@@std@@V?$allocator@V?$shared_ptr@VGameObject@@@std@@@2@@std@@AEBAAEBV?$allocator@V?$shared_ptr@VGameObject@@@std@@@2@XZ 0000000140064a20 f i Game.obj
 0002:00022a70       ?_Orphan_range@?$vector@V?$shared_ptr@VGameObject@@@std@@V?$allocator@V?$shared_ptr@VGameObject@@@std@@@2@@std@@AEBAXPEAV?$shared_ptr@VGameObject@@@2@0@Z 0000000140064a70 f i Game.obj
 0002:00022ae0       ?_Orphan_range_locked@?$vector@V?$shared_ptr@VGameObject@@@std@@V?$allocator@V?$shared_ptr@VGameObject@@@std@@@2@@std@@AEBAXPEAV?$shared_ptr@VGameObject@@@2@0@Z 0000000140064ae0 f i Game.obj
 0002:00022bc0       ?_Orphan_range_unlocked@?$vector@V?$shared_ptr@VGameObject@@@std@@V?$allocator@V?$shared_ptr@VGameObject@@@std@@@2@@std@@AEBAXPEAV?$shared_ptr@VGameObject@@@2@0@Z 0000000140064bc0 f i Game.obj
 0002:00022ca0       ?_Release@?$_Uninitialized_backout_al@V?$allocator@V?$shared_ptr@VGameObject@@@std@@@std@@@std@@QEAAPEAV?$shared_ptr@VGameObject@@@2@XZ 0000000140064ca0 f i Game.obj
 0002:00022d00       ?_Release@_Basic_container_proxy_ptr12@std@@QEAAXXZ 0000000140064d00 f i Game.obj
 0002:00022d50       ?_Tidy@?$vector@V?$shared_ptr@VGameObject@@@std@@V?$allocator@V?$shared_ptr@VGameObject@@@std@@@2@@std@@AEAAXXZ 0000000140064d50 f i Game.obj
 0002:00022e80       ?_Unchecked_begin@?$vector@V?$shared_ptr@VGameObject@@@std@@V?$allocator@V?$shared_ptr@VGameObject@@@std@@@2@@std@@QEAAPEAV?$shared_ptr@VGameObject@@@2@XZ 0000000140064e80 f i Game.obj
 0002:00022ed0       ?_Unchecked_end@?$vector@V?$shared_ptr@VGameObject@@@std@@V?$allocator@V?$shared_ptr@VGameObject@@@std@@@2@@std@@QEAAPEAV?$shared_ptr@VGameObject@@@2@XZ 0000000140064ed0 f i Game.obj
 0002:00022f20       ?_Xlength@?$vector@V?$shared_ptr@VGameObject@@@std@@V?$allocator@V?$shared_ptr@VGameObject@@@std@@@2@@std@@CAXXZ 0000000140064f20 f i Game.obj
 0002:00022f60       ?__autoclassinit2@?$_Uninitialized_backout_al@V?$allocator@V?$shared_ptr@VGameObject@@@std@@@std@@@std@@QEAAX_K@Z 0000000140064f60 f i Game.obj
 0002:00022fa0       ?__autoclassinit2@?$shared_ptr@VChunk@@@std@@QEAAX_K@Z 0000000140064fa0 f i Game.obj
 0002:00022fe0       ?__autoclassinit2@Camera@@QEAAX_K@Z 0000000140064fe0 f i Game.obj
 0002:00023020       ?allocate@?$allocator@V?$shared_ptr@VGameObject@@@std@@@std@@QEAAPEAV?$shared_ptr@VGameObject@@@2@_K@Z 0000000140065020 f i Game.obj
 0002:00023080       ?call@?$compute_abs@M$00@detail@glm@@SAMM@Z 0000000140065080 f i Game.obj
 0002:00023110       ?capacity@?$vector@V?$shared_ptr@VGameObject@@@std@@V?$allocator@V?$shared_ptr@VGameObject@@@std@@@2@@std@@QEBA_KXZ 0000000140065110 f i Game.obj
 0002:00023170       ?clear@?$vector@V?$shared_ptr@VGameObject@@@std@@V?$allocator@V?$shared_ptr@VGameObject@@@std@@@2@@std@@QEAAXXZ 0000000140065170 f i Game.obj
 0002:00023230       ?deallocate@?$allocator@V?$shared_ptr@VGameObject@@@std@@@std@@QEAAXQEAV?$shared_ptr@VGameObject@@@2@_K@Z 0000000140065230 f i Game.obj
 0002:00023340       ?destroy@Game@@QEAAXXZ     0000000140065340 f   Game.obj
 0002:00023440       ?epsilon@?$numeric_limits@M@std@@SAMXZ 0000000140065440 f i Game.obj
 0002:00023480       ?get@?$_Ptr_base@VGameObject@@@std@@IEBAPEAVGameObject@@XZ 0000000140065480 f i Game.obj
 0002:000234d0       ?get@?$_Ptr_base@VShaderProgram@@@std@@IEBAPEAVShaderProgram@@XZ 00000001400654d0 f i Game.obj
 0002:00023520       ?init@Game@@QEAAXXZ        0000000140065520 f   Game.obj
 0002:000238e0       ?max_size@?$_Default_allocator_traits@V?$allocator@V?$shared_ptr@VGameObject@@@std@@@std@@@std@@SA_KAEBV?$allocator@V?$shared_ptr@VGameObject@@@std@@@2@@Z 00000001400658e0 f i Game.obj
 0002:00023930       ?max_size@?$vector@V?$shared_ptr@VGameObject@@@std@@V?$allocator@V?$shared_ptr@VGameObject@@@std@@@2@@std@@QEBA_KXZ 0000000140065930 f i Game.obj
 0002:000239b0       ?processKeyInput@Game@@QEAAXHH@Z 00000001400659b0 f   Game.obj
 0002:00023a40       ?processMouseInput@Game@@QEAAXMM@Z 0000000140065a40 f   Game.obj
 0002:00023ad0       ?push_back@?$vector@V?$shared_ptr@VGameObject@@@std@@V?$allocator@V?$shared_ptr@VGameObject@@@std@@@2@@std@@QEAAX$$QEAV?$shared_ptr@VGameObject@@@2@@Z 0000000140065ad0 f i Game.obj
 0002:00023b30       ?render@Game@@QEAAXM@Z     0000000140065b30 f   Game.obj
 0002:00023e00       ?tan@@YAMM@Z               0000000140065e00 f i Game.obj
 0002:00023e50       ?update@Game@@QEAAXM@Z     0000000140065e50 f   Game.obj
 0002:00023f90       ??0GameObject@@QEAA@XZ     0000000140065f90 f   GameObject.obj
 0002:00024010       ??1GameObject@@UEAA@XZ     0000000140066010 f   GameObject.obj
 0002:00024080       ??_EGameObject@@UEAAPEAXI@Z 0000000140066080 f i GameObject.obj
 0002:00024080       ??_GGameObject@@UEAAPEAXI@Z 0000000140066080 f i GameObject.obj
 0002:000240f0       ?setPosition@GameObject@@UEAAXU?$vec@$02M$0A@@glm@@@Z 00000001400660f0 f   GameObject.obj
 0002:00024150       ??0GameStates@@AEAA@XZ     0000000140066150 f i GameStates.obj
 0002:00024210       ?cleanUp@GameStates@@QEAAXXZ 0000000140066210 f   GameStates.obj
 0002:00024250       ?getCurPosX@GameStates@@QEBAMXZ 0000000140066250 f   GameStates.obj
 0002:000242a0       ?getCurPosY@GameStates@@QEBAMXZ 00000001400662a0 f   GameStates.obj
 0002:000242f0       ?getInstance@GameStates@@SAAEAV1@XZ 00000001400662f0 f   GameStates.obj
 0002:000243a0       ?getKey@GameStates@@QEBA_NH@Z 00000001400663a0 f   GameStates.obj
 0002:000243f0       ?getProjectionMatrix@GameStates@@QEBA?AU?$mat@$03$03M$0A@@glm@@XZ 00000001400663f0 f   GameStates.obj
 0002:00024460       ?getScreenHeight@GameStates@@QEBAHXZ 0000000140066460 f   GameStates.obj
 0002:000244b0       ?getScreenWidth@GameStates@@QEBAHXZ 00000001400664b0 f   GameStates.obj
 0002:00024500       ?getViewMatrix@GameStates@@QEBA?AU?$mat@$03$03M$0A@@glm@@XZ 0000000140066500 f   GameStates.obj
 0002:00024570       ?__autoclassinit2@Game@@QEAAX_K@Z 0000000140066570 f i main.obj
 0002:000245b0       ?framebufferSizeCallback@@YAXPEAUGLFWwindow@@HH@Z 00000001400665b0 f   main.obj
 0002:00024610       ?keyCallback@@YAXPEAUGLFWwindow@@HHHH@Z 0000000140066610 f   main.obj
 0002:000246b0       ?mousePosCallback@@YAXPEAUGLFWwindow@@NN@Z 00000001400666b0 f   main.obj
 0002:00024720       main                       0000000140066720 f   main.obj
 0002:00024a10       ?flattenIndex@MathUtil@@SAHU?$vec@$01M$0A@@glm@@0@Z 0000000140066a10 f   MathUtil.obj
 0002:00024a80       ?flattenIndex@MathUtil@@SAHU?$vec@$02M$0A@@glm@@0@Z 0000000140066a80 f   MathUtil.obj
 0002:00024b30       ??$?0$$V@?$_Compressed_pair@V?$allocator@I@std@@V?$_Vector_val@U?$_Simple_types@I@std@@@2@$00@std@@QEAA@U_Zero_then_variadic_args_t@1@@Z 0000000140066b30 f i MeshBuilder.obj
 0002:00024ba0       ??$?0$$V@?$_Compressed_pair@V?$allocator@M@std@@V?$_Vector_val@U?$_Simple_types@M@std@@@2@$00@std@@QEAA@U_Zero_then_variadic_args_t@1@@Z 0000000140066ba0 f i MeshBuilder.obj
 0002:00024c10       ??$?0HH@?$vec@$01M$0A@@glm@@QEAA@HH@Z 0000000140066c10 f i MeshBuilder.obj
 0002:00024c90       ??$?0HM@?$vec@$01M$0A@@glm@@QEAA@HM@Z 0000000140066c90 f i MeshBuilder.obj
 0002:00024d10       ??$?0MH@?$vec@$01M$0A@@glm@@QEAA@MH@Z 0000000140066d10 f i MeshBuilder.obj
 0002:00024d90       ??$?CVTexture2DArray@@$0A@@?$shared_ptr@VTexture2DArray@@@std@@QEBAPEAVTexture2DArray@@XZ 0000000140066d90 f i MeshBuilder.obj
 0002:00024de0       ??$_Allocate_at_least_helper@V?$allocator@I@std@@@std@@YAPEAIAEAV?$allocator@I@0@AEA_K@Z 0000000140066de0 f i MeshBuilder.obj
 0002:00024e40       ??$_Allocate_at_least_helper@V?$allocator@M@std@@@std@@YAPEAMAEAV?$allocator@M@0@AEA_K@Z 0000000140066e40 f i MeshBuilder.obj
 0002:00024ea0       ??$_Construct_in_place@II@std@@YAXAEAI$$QEAI@Z 0000000140066ea0 f i MeshBuilder.obj
 0002:00024f20       ??$_Construct_in_place@MAEBM@std@@YAXAEAMAEBM@Z 0000000140066f20 f i MeshBuilder.obj
 0002:00024fa0       ??$_Copy_memmove@PEAIPEAI@std@@YAPEAIPEAI00@Z 0000000140066fa0 f i MeshBuilder.obj
 0002:000250a0       ??$_Copy_memmove@PEAMPEAM@std@@YAPEAMPEAM00@Z 00000001400670a0 f i MeshBuilder.obj
 0002:000251a0       ??$_Emplace_back@I@?$_Uninitialized_backout_al@V?$allocator@I@std@@@std@@QEAAX$$QEAI@Z 00000001400671a0 f i MeshBuilder.obj
 0002:00025240       ??$_Emplace_back@M@?$_Uninitialized_backout_al@V?$allocator@M@std@@@std@@QEAAX$$QEAM@Z 0000000140067240 f i MeshBuilder.obj
 0002:000252e0       ??$_Emplace_back_with_unused_capacity@AEBM@?$vector@MV?$allocator@M@std@@@std@@AEAAAEAMAEBM@Z 00000001400672e0 f i MeshBuilder.obj
 0002:000253a0       ??$_Emplace_back_with_unused_capacity@I@?$vector@IV?$allocator@I@std@@@std@@AEAAAEAI$$QEAI@Z 00000001400673a0 f i MeshBuilder.obj
 0002:00025460       ??$_Emplace_one_at_back@AEBM@?$vector@MV?$allocator@M@std@@@std@@AEAAAEAMAEBM@Z 0000000140067460 f i MeshBuilder.obj
 0002:00025510       ??$_Emplace_one_at_back@I@?$vector@IV?$allocator@I@std@@@std@@AEAAAEAI$$QEAI@Z 0000000140067510 f i MeshBuilder.obj
 0002:000255c0       ??$_Emplace_reallocate@AEBM@?$vector@MV?$allocator@M@std@@@std@@AEAAPEAMQEAMAEBM@Z 00000001400675c0 f i MeshBuilder.obj
 0002:000258e0       ??$_Emplace_reallocate@I@?$vector@IV?$allocator@I@std@@@std@@AEAAPEAIQEAI$$QEAI@Z 00000001400678e0 f i MeshBuilder.obj
 0002:00025c00       ??$_Get_size_of_n@$03@std@@YA_K_K@Z 0000000140067c00 f i MeshBuilder.obj
 0002:00025c80       ??$_Get_unwrapped@AEBQEAI@std@@YA?A_TAEBQEAI@Z 0000000140067c80 f i MeshBuilder.obj
 0002:00025cd0       ??$_Get_unwrapped@AEBQEAM@std@@YA?A_TAEBQEAM@Z 0000000140067cd0 f i MeshBuilder.obj
 0002:00025d20       ??$_Move_construct_from@VShaderProgram@@@?$_Ptr_base@VShaderProgram@@@std@@IEAAX$$QEAV01@@Z 0000000140067d20 f i MeshBuilder.obj
 0002:00025dc0       ??$_To_address@PEAI@std@@YA?A_PAEBQEAI@Z 0000000140067dc0 f i MeshBuilder.obj
 0002:00025e10       ??$_To_address@PEAM@std@@YA?A_PAEBQEAM@Z 0000000140067e10 f i MeshBuilder.obj
 0002:00025e60       ??$_Unfancy@I@std@@YAPEAIPEAI@Z 0000000140067e60 f i MeshBuilder.obj
 0002:00025ea0       ??$_Unfancy@M@std@@YAPEAMPEAM@Z 0000000140067ea0 f i MeshBuilder.obj
 0002:00025ee0       ??$_Uninitialized_move@PEAIV?$allocator@I@std@@@std@@YAPEAIQEAI0PEAIAEAV?$allocator@I@0@@Z 0000000140067ee0 f i MeshBuilder.obj
 0002:00026090       ??$_Uninitialized_move@PEAMV?$allocator@M@std@@@std@@YAPEAMQEAM0PEAMAEAV?$allocator@M@0@@Z 0000000140068090 f i MeshBuilder.obj
 0002:00026240       ??$addressof@I@std@@YAPEAIAEAI@Z 0000000140068240 f i MeshBuilder.obj
 0002:00026280       ??$addressof@M@std@@YAPEAMAEAM@Z 0000000140068280 f i MeshBuilder.obj
 0002:000262c0       ??$construct@II@?$_Default_allocator_traits@V?$allocator@I@std@@@std@@SAXAEAV?$allocator@I@1@QEAI$$QEAI@Z 00000001400682c0 f i MeshBuilder.obj
 0002:00026340       ??$construct@MAEBM@?$_Default_allocator_traits@V?$allocator@M@std@@@std@@SAXAEAV?$allocator@M@1@QEAMAEBM@Z 0000000140068340 f i MeshBuilder.obj
 0002:000263c0       ??$construct@MM@?$_Default_allocator_traits@V?$allocator@M@std@@@std@@SAXAEAV?$allocator@M@1@QEAM$$QEAM@Z 00000001400683c0 f i MeshBuilder.obj
 0002:00026440       ??$swap@PEAVShaderProgram@@$0A@@std@@YAXAEAPEAVShaderProgram@@0@Z 0000000140068440 f i MeshBuilder.obj
 0002:000264c0       ??$swap@PEAV_Ref_count_base@std@@$0A@@std@@YAXAEAPEAV_Ref_count_base@0@0@Z 00000001400684c0 f i MeshBuilder.obj
 0002:00026540       ??0?$_Ptr_base@VShaderProgram@@@std@@IEAA@XZ 0000000140068540 f i MeshBuilder.obj
 0002:000265b0       ??0?$_Uninitialized_backout_al@V?$allocator@I@std@@@std@@QEAA@PEAIAEAV?$allocator@I@1@@Z 00000001400685b0 f i MeshBuilder.obj
 0002:00026640       ??0?$_Uninitialized_backout_al@V?$allocator@M@std@@@std@@QEAA@PEAMAEAV?$allocator@M@1@@Z 0000000140068640 f i MeshBuilder.obj
 0002:000266d0       ??0?$_Vector_val@U?$_Simple_types@I@std@@@std@@QEAA@XZ 00000001400686d0 f i MeshBuilder.obj
 0002:00026760       ??0?$_Vector_val@U?$_Simple_types@M@std@@@std@@QEAA@XZ 0000000140068760 f i MeshBuilder.obj
 0002:000267f0       ??0?$allocator@I@std@@QEAA@XZ 00000001400687f0 f i MeshBuilder.obj
 0002:00026830       ??0?$allocator@M@std@@QEAA@XZ 0000000140068830 f i MeshBuilder.obj
 0002:00026870       ??0?$shared_ptr@VShaderProgram@@@std@@QEAA@$$QEAV01@@Z 0000000140068870 f i MeshBuilder.obj
 0002:000268e0       ??0?$shared_ptr@VShaderProgram@@@std@@QEAA@XZ 00000001400688e0 f i MeshBuilder.obj
 0002:00026930       ??0?$vec@$01M$0A@@glm@@QEAA@MM@Z 0000000140068930 f i MeshBuilder.obj
 0002:000269b0       ??0?$vector@IV?$allocator@I@std@@@std@@QEAA@XZ 00000001400689b0 f i MeshBuilder.obj
 0002:00026a40       ??0?$vector@MV?$allocator@M@std@@@std@@QEAA@XZ 0000000140068a40 f i MeshBuilder.obj
 0002:00026ad0       ??0MeshBuilder@@QEAA@XZ    0000000140068ad0 f   MeshBuilder.obj
 0002:00026c30       ??1?$_Uninitialized_backout_al@V?$allocator@I@std@@@std@@QEAA@XZ 0000000140068c30 f i MeshBuilder.obj
 0002:00026ca0       ??1?$_Uninitialized_backout_al@V?$allocator@M@std@@@std@@QEAA@XZ 0000000140068ca0 f i MeshBuilder.obj
 0002:00026d10       ??4?$shared_ptr@VShaderProgram@@@std@@QEAAAEAV01@$$QEAV01@@Z 0000000140068d10 f i MeshBuilder.obj
 0002:00026d90       ??A?$vector@IV?$allocator@I@std@@@std@@QEAAAEAI_K@Z 0000000140068d90 f i MeshBuilder.obj
 0002:00026eb0       ??A?$vector@MV?$allocator@M@std@@@std@@QEAAAEAM_K@Z 0000000140068eb0 f i MeshBuilder.obj
 0002:00026fd0       ?_Calculate_growth@?$vector@IV?$allocator@I@std@@@std@@AEBA_K_K@Z 0000000140068fd0 f i MeshBuilder.obj
 0002:000270b0       ?_Calculate_growth@?$vector@MV?$allocator@M@std@@@std@@AEBA_K_K@Z 00000001400690b0 f i MeshBuilder.obj
 0002:00027190       ?_Change_array@?$vector@IV?$allocator@I@std@@@std@@AEAAXQEAI_K1@Z 0000000140069190 f i MeshBuilder.obj
 0002:000272f0       ?_Change_array@?$vector@MV?$allocator@M@std@@@std@@AEAAXQEAM_K1@Z 00000001400692f0 f i MeshBuilder.obj
 0002:00027450       ?_Get_first@?$_Compressed_pair@V?$allocator@I@std@@V?$_Vector_val@U?$_Simple_types@I@std@@@2@$00@std@@QEBAAEBV?$allocator@I@2@XZ 0000000140069450 f i MeshBuilder.obj
 0002:00027490       ?_Get_first@?$_Compressed_pair@V?$allocator@M@std@@V?$_Vector_val@U?$_Simple_types@M@std@@@2@$00@std@@QEBAAEBV?$allocator@M@2@XZ 0000000140069490 f i MeshBuilder.obj
 0002:000274d0       ?_Getal@?$vector@IV?$allocator@I@std@@@std@@AEBAAEBV?$allocator@I@2@XZ 00000001400694d0 f i MeshBuilder.obj
 0002:00027520       ?_Getal@?$vector@MV?$allocator@M@std@@@std@@AEBAAEBV?$allocator@M@2@XZ 0000000140069520 f i MeshBuilder.obj
 0002:00027570       ?_Orphan_range@?$vector@IV?$allocator@I@std@@@std@@AEBAXPEAI0@Z 0000000140069570 f i MeshBuilder.obj
 0002:000275e0       ?_Orphan_range@?$vector@MV?$allocator@M@std@@@std@@AEBAXPEAM0@Z 00000001400695e0 f i MeshBuilder.obj
 0002:00027650       ?_Orphan_range_locked@?$vector@IV?$allocator@I@std@@@std@@AEBAXPEAI0@Z 0000000140069650 f i MeshBuilder.obj
 0002:00027730       ?_Orphan_range_locked@?$vector@MV?$allocator@M@std@@@std@@AEBAXPEAM0@Z 0000000140069730 f i MeshBuilder.obj
 0002:00027810       ?_Orphan_range_unlocked@?$vector@IV?$allocator@I@std@@@std@@AEBAXPEAI0@Z 0000000140069810 f i MeshBuilder.obj
 0002:000278f0       ?_Orphan_range_unlocked@?$vector@MV?$allocator@M@std@@@std@@AEBAXPEAM0@Z 00000001400698f0 f i MeshBuilder.obj
 0002:000279d0       ?_Release@?$_Uninitialized_backout_al@V?$allocator@I@std@@@std@@QEAAPEAIXZ 00000001400699d0 f i MeshBuilder.obj
 0002:00027a30       ?_Release@?$_Uninitialized_backout_al@V?$allocator@M@std@@@std@@QEAAPEAMXZ 0000000140069a30 f i MeshBuilder.obj
 0002:00027a90       ?_Swap@?$_Ptr_base@VShaderProgram@@@std@@IEAAXAEAV12@@Z 0000000140069a90 f i MeshBuilder.obj
 0002:00027b10       ?_Xlength@?$vector@IV?$allocator@I@std@@@std@@CAXXZ 0000000140069b10 f i MeshBuilder.obj
 0002:00027b50       ?_Xlength@?$vector@MV?$allocator@M@std@@@std@@CAXXZ 0000000140069b50 f i MeshBuilder.obj
 0002:00027b90       ?__autoclassinit2@?$_Uninitialized_backout_al@V?$allocator@I@std@@@std@@QEAAX_K@Z 0000000140069b90 f i MeshBuilder.obj
 0002:00027bd0       ?__autoclassinit2@?$_Uninitialized_backout_al@V?$allocator@M@std@@@std@@QEAAX_K@Z 0000000140069bd0 f i MeshBuilder.obj
 0002:00027c10       ?addPointV1@MeshBuilder@@AEAAXM@Z 0000000140069c10 f   MeshBuilder.obj
 0002:00027c70       ?addPointV2@MeshBuilder@@AEAAXU?$vec@$01M$0A@@glm@@@Z 0000000140069c70 f   MeshBuilder.obj
 0002:00027cf0       ?addPointV3@MeshBuilder@@AEAAXU?$vec@$02M$0A@@glm@@@Z 0000000140069cf0 f   MeshBuilder.obj
 0002:00027da0       ?addQuad@MeshBuilder@@QEAAXVQuad@@HH_N@Z 0000000140069da0 f   MeshBuilder.obj
 0002:00028090       ?addQuadIndices@MeshBuilder@@AEAAX_NH@Z 000000014006a090 f   MeshBuilder.obj
 0002:00028390       ?allocate@?$allocator@I@std@@QEAAPEAI_K@Z 000000014006a390 f i MeshBuilder.obj
 0002:000283f0       ?allocate@?$allocator@M@std@@QEAAPEAM_K@Z 000000014006a3f0 f i MeshBuilder.obj
 0002:00028450       ?capacity@?$vector@IV?$allocator@I@std@@@std@@QEBA_KXZ 000000014006a450 f i MeshBuilder.obj
 0002:000284b0       ?capacity@?$vector@MV?$allocator@M@std@@@std@@QEBA_KXZ 000000014006a4b0 f i MeshBuilder.obj
 0002:00028510       ?cleanUp@MeshBuilder@@QEAAXXZ 000000014006a510 f   MeshBuilder.obj
 0002:00028600       ?clear@?$vector@IV?$allocator@I@std@@@std@@QEAAXXZ 000000014006a600 f i MeshBuilder.obj
 0002:000286c0       ?clear@?$vector@MV?$allocator@M@std@@@std@@QEAAXXZ 000000014006a6c0 f i MeshBuilder.obj
 0002:00028780       ?generateVBO@MeshBuilder@@QEAAXXZ 000000014006a780 f   MeshBuilder.obj
 0002:00028a90       ?get@?$_Ptr_base@VTexture2DArray@@@std@@IEBAPEAVTexture2DArray@@XZ 000000014006aa90 f i MeshBuilder.obj
 0002:00028ae0       ?getTextureIndex@MeshBuilder@@AEAAHHH@Z 000000014006aae0 f   MeshBuilder.obj
 0002:00028b90       ?max_size@?$_Default_allocator_traits@V?$allocator@I@std@@@std@@SA_KAEBV?$allocator@I@2@@Z 000000014006ab90 f i MeshBuilder.obj
 0002:00028be0       ?max_size@?$_Default_allocator_traits@V?$allocator@M@std@@@std@@SA_KAEBV?$allocator@M@2@@Z 000000014006abe0 f i MeshBuilder.obj
 0002:00028c30       ?max_size@?$vector@IV?$allocator@I@std@@@std@@QEBA_KXZ 000000014006ac30 f i MeshBuilder.obj
 0002:00028cb0       ?max_size@?$vector@MV?$allocator@M@std@@@std@@QEBA_KXZ 000000014006acb0 f i MeshBuilder.obj
 0002:00028d30       ?printReports@MeshBuilder@@AEAAXXZ 000000014006ad30 f   MeshBuilder.obj
 0002:00028f90       ?push_back@?$vector@IV?$allocator@I@std@@@std@@QEAAX$$QEAI@Z 000000014006af90 f i MeshBuilder.obj
 0002:00028ff0       ?push_back@?$vector@MV?$allocator@M@std@@@std@@QEAAXAEBM@Z 000000014006aff0 f i MeshBuilder.obj
 0002:00029050       ?render@MeshBuilder@@QEAAXXZ 000000014006b050 f   MeshBuilder.obj
 0002:000292d0       ?size@?$vector@IV?$allocator@I@std@@@std@@QEBA_KXZ 000000014006b2d0 f i MeshBuilder.obj
 0002:00029330       ?size@?$vector@MV?$allocator@M@std@@@std@@QEBA_KXZ 000000014006b330 f i MeshBuilder.obj
 0002:00029390       ?swap@?$shared_ptr@VShaderProgram@@@std@@QEAAXAEAV12@@Z 000000014006b390 f i MeshBuilder.obj
 0002:000293f0       ??$?KM$0A@@glm@@YA?AU?$vec@$02M$0A@@0@AEBU10@0@Z 000000014006b3f0 f i MeshGenerator.obj
 0002:000294c0       ??$?KM$0A@@glm@@YA?AU?$vec@$02M$0A@@0@AEBU10@M@Z 000000014006b4c0 f i MeshGenerator.obj
 0002:00029590       ??$distance@$02M$0A@@glm@@YAMAEBU?$vec@$02M$0A@@0@0@Z 000000014006b590 f i MeshGenerator.obj
 0002:0002a1b0       ??$length@$02M$0A@@glm@@YAMAEBU?$vec@$02M$0A@@0@@Z 000000014006c1b0 f i MeshGenerator.obj
 0002:0002a300       ??0?$vec@$02M$0A@@glm@@QEAA@M@Z 000000014006c300 f i MeshGenerator.obj
 0002:0002a390       ??_H@YAXPEAX_K1P6APEAX0@Z@Z 000000014006c390 f i MeshGenerator.obj
 0002:0002a460       ?GeneratePerlinTerrain@MeshGenerator@@CAPEAVVoxel@@U?$vec@$02M$0A@@glm@@@Z 000000014006c460 f   MeshGenerator.obj
 0002:0002a9a0       ?GenerateShape@MeshGenerator@@SAPEAVVoxel@@U?$vec@$02M$0A@@glm@@W4SHAPE_GENERATION_METHODS@@@Z 000000014006c9a0 f   MeshGenerator.obj
 0002:0002aae0       ?GenerateTerrain@MeshGenerator@@SAPEAVVoxel@@U?$vec@$02M$0A@@glm@@W4TERRAIN_GENERATION_METHODS@@@Z 000000014006cae0 f   MeshGenerator.obj
 0002:0002ab60       ?ShapeGenerator@MeshGenerator@@CAPEAVVoxel@@U?$vec@$02M$0A@@glm@@0P6A_N00@Z@Z 000000014006cb60 f   MeshGenerator.obj
 0002:0002aee0       ?call@?$compute_distance@$02M$0A@$0A@@detail@glm@@SAMAEBU?$vec@$02M$0A@@3@0@Z 000000014006cee0 f i MeshGenerator.obj
 0002:0002af50       ?call@?$compute_length@$02M$0A@$0A@@detail@glm@@SAMAEBU?$vec@$02M$0A@@3@@Z 000000014006cf50 f i MeshGenerator.obj
 0002:0002afb0       ?cubeCheckFunc@MeshGenerator@@CA_NU?$vec@$02M$0A@@glm@@0@Z 000000014006cfb0 f   MeshGenerator.obj
 0002:0002aff0       ?perlinNoise2D@MeshGenerator@@CAMMMMMMMM@Z 000000014006cff0 f   MeshGenerator.obj
 0002:0002b170       ?perlinNoise3DF@MeshGenerator@@CA_NU?$vec@$02M$0A@@glm@@0AEAM@Z 000000014006d170 f   MeshGenerator.obj
 0002:0002b320       ?sphereCheckFunc@MeshGenerator@@CA_NU?$vec@$02M$0A@@glm@@0@Z 000000014006d320 f   MeshGenerator.obj
 0002:0002b440       ??0Quad@@QEAA@U?$vec@$02M$0A@@glm@@000HH_N@Z 000000014006d440 f   Quad.obj
 0002:0002b550       ??0Quad@@QEAA@XZ           000000014006d550 f   Quad.obj
 0002:0002b680       ?equals@Quad@@QEBA_NV1@@Z  000000014006d680 f   Quad.obj
 0002:0002b730       ?getFace@Quad@@QEBAHXZ     000000014006d730 f   Quad.obj
 0002:0002b780       ?getType@Quad@@QEBAHXZ     000000014006d780 f   Quad.obj
 0002:0002b7c0       ?isTransparent@Quad@@QEBA_NXZ 000000014006d7c0 f   Quad.obj
 0002:0002b810       ?rotateQuadOrder90@Quad@@QEAAXXZ 000000014006d810 f   Quad.obj
 0002:0002b950       ?rotateQuadOrder90Counter@Quad@@QEAAXXZ 000000014006d950 f   Quad.obj
 0002:0002ba90       ??0Shader@@QEAA@PEBDI@Z    000000014006da90 f   Shader.obj
 0002:0002bc90       ??0Shader@@QEAA@XZ         000000014006dc90 f   Shader.obj
 0002:0002bce0       ??1Shader@@QEAA@XZ         000000014006dce0 f   Shader.obj
 0002:0002bd30       ?c_str@?$basic_string@DU?$char_traits@D@std@@V?$allocator@D@2@@std@@QEBAPEBDXZ 000000014006dd30 f i Shader.obj
 0002:0002bd80       ??$?0AEAIAEAI@?$_Ref_count_obj2@VShaderProgram@@@std@@QEAA@AEAI0@Z 000000014006dd80 f i ShaderManager.obj
 0002:0002be30       ??$?0AEAPEAU?$_List_node@U?$pair@$$CBV?$basic_string@DU?$char_traits@D@std@@V?$allocator@D@2@@std@@V?$shared_ptr@VShaderProgram@@@2@@std@@PEAX@std@@_N$0A@@?$pair@PEAU?$_List_node@U?$pair@$$CBV?$basic_string@DU?$char_traits@D@std@@V?$allocator@D@2@@std@@V?$shared_ptr@VShaderProgram@@@2@@std@@PEAX@std@@_N@std@@QEAA@AEAPEAU?$_List_node@U?$pair@$$CBV?$basic_string@DU?$char_traits@D@std@@V?$allocator@D@2@@std@@V?$shared_ptr@VShaderProgram@@@2@@std@@PEAX@1@$$QEA_N@Z 000000014006de30 f i ShaderManager.obj
 0002:0002beb0       ??$?0AEAVShader@@AEAV0@@?$_Ref_count_obj2@VShaderProgram@@@std@@QEAA@AEAVShader@@0@Z 000000014006deb0 f i ShaderManager.obj
 0002:0002bf60       ??$?0AEBUpiecewise_construct_t@std@@V?$tuple@AEBV?$basic_string@DU?$char_traits@D@std@@V?$allocator@D@2@@std@@@1@V?$tuple@$$V@1@@?$_List_node_emplace_op2@V?$allocator@U?$_List_node@U?$pair@$$CBV?$basic_string@DU?$char_traits@D@std@@V?$allocator@D@2@@std@@V?$shared_ptr@VShaderProgram@@@2@@std@@PEAX@std@@@std@@@std@@QEAA@AEAV?$allocator@U?$_List_node@U?$pair@$$CBV?$basic_string@DU?$char_traits@D@std@@V?$allocator@D@2@@std@@V?$shared_ptr@VShaderProgram@@@2@@std@@PEAX@std@@@1@AEBUpiecewise_construct_t@1@$$QEAV?$tuple@AEBV?$basic_string@DU?$char_traits@D@std@@V?$allocator@D@2@@std@@@1@$$QEAV?$tuple@$$V@1@@Z 000000014006df60 f i ShaderManager.obj
 0002:0002c030       ??$?0AEBV?$allocator@U?$pair@$$CBV?$basic_string@DU?$char_traits@D@std@@V?$allocator@D@2@@std@@V?$shared_ptr@VShaderProgram@@@2@@std@@@std@@$$V@?$_Compressed_pair@V?$allocator@U?$_List_node@U?$pair@$$CBV?$basic_string@DU?$char_traits@D@std@@V?$allocator@D@2@@std@@V?$shared_ptr@VShaderProgram@@@2@@std@@PEAX@std@@@std@@V?$_List_val@U?$_List_simple_types@U?$pair@$$CBV?$basic_string@DU?$char_traits@D@std@@V?$allocator@D@2@@std@@V?$shared_ptr@VShaderProgram@@@2@@std@@@std@@@2@$00@std@@QEAA@U_One_then_variadic_args_t@1@AEBV?$allocator@U?$pair@$$CBV?$basic_string@DU?$char_traits@D@std@@V?$allocator@D@2@@std@@V?$shared_ptr@VShaderProgram@@@2@@std@@@1@@Z 000000014006e030 f i ShaderManager.obj
 0002:0002c0b0       ??$?0AEBV?$allocator@U?$pair@$$CBV?$basic_string@DU?$char_traits@D@std@@V?$allocator@D@2@@std@@V?$shared_ptr@VShaderProgram@@@2@@std@@@std@@$$V@?$_Compressed_pair@V?$allocator@V?$_List_unchecked_iterator@V?$_List_val@U?$_List_simple_types@U?$pair@$$CBV?$basic_string@DU?$char_traits@D@std@@V?$allocator@D@2@@std@@V?$shared_ptr@VShaderProgram@@@2@@std@@@std@@@std@@@std@@@std@@V?$_Vector_val@U?$_Simple_types@V?$_List_unchecked_iterator@V?$_List_val@U?$_List_simple_types@U?$pair@$$CBV?$basic_string@DU?$char_traits@D@std@@V?$allocator@D@2@@std@@V?$shared_ptr@VShaderProgram@@@2@@std@@@std@@@std@@@std@@@std@@@2@$00@std@@QEAA@U_One_then_variadic_args_t@1@AEBV?$allocator@U?$pair@$$CBV?$basic_string@DU?$char_traits@D@std@@V?$allocator@D@2@@std@@V?$shared_ptr@VShaderProgram@@@2@@std@@@1@@Z 000000014006e0b0 f i ShaderManager.obj
 0002:0002c130       ??$?0AEBV?$allocator@U?$pair@$$CBV?$basic_string@DU?$char_traits@D@std@@V?$allocator@D@2@@std@@V?$shared_ptr@VShaderProgram@@@2@@std@@@std@@$0A@@?$_Hash_vec@V?$allocator@V?$_List_unchecked_iterator@V?$_List_val@U?$_List_simple_types@U?$pair@$$CBV?$basic_string@DU?$char_traits@D@std@@V?$allocator@D@2@@std@@V?$shared_ptr@VShaderProgram@@@2@@std@@@std@@@std@@@std@@@std@@@std@@QEAA@AEBV?$allocator@U?$pair@$$CBV?$basic_string@DU?$char_traits@D@std@@V?$allocator@D@2@@std@@V?$shared_ptr@VShaderProgram@@@2@@std@@@1@@Z 000000014006e130 f i ShaderManager.obj
 0002:0002c1e0       ??$?0AEBV?$basic_string@DU?$char_traits@D@std@@V?$allocator@D@2@@std@@$$Z$$V@?$pair@$$CBV?$basic_string@DU?$char_traits@D@std@@V?$allocator@D@2@@std@@V?$shared_ptr@VShaderProgram@@@2@@std@@QEAA@Upiecewise_construct_t@1@V?$tuple@AEBV?$basic_string@DU?$char_traits@D@std@@V?$allocator@D@2@@std@@@1@V?$tuple@$$V@1@@Z 000000014006e1e0 f i ShaderManager.obj
 0002:0002c2a0       ??$?0AEBV?$basic_string@DU?$char_traits@D@std@@V?$allocator@D@2@@std@@$0A@@?$tuple@AEBV?$basic_string@DU?$char_traits@D@std@@V?$allocator@D@2@@std@@@std@@QEAA@AEBV?$basic_string@DU?$char_traits@D@std@@V?$allocator@D@2@@1@@Z 000000014006e2a0 f i ShaderManager.obj
 0002:0002c310       ??$?0AEBV?$basic_string@DU?$char_traits@D@std@@V?$allocator@D@2@@std@@@?$_Tuple_val@AEBV?$basic_string@DU?$char_traits@D@std@@V?$allocator@D@2@@std@@@std@@QEAA@AEBV?$basic_string@DU?$char_traits@D@std@@V?$allocator@D@2@@1@@Z 000000014006e310 f i ShaderManager.obj
 0002:0002c370       ??$?0M@?$_Compressed_pair@U?$equal_to@V?$basic_string@DU?$char_traits@D@std@@V?$allocator@D@2@@std@@@std@@M$00@std@@QEAA@U_Zero_then_variadic_args_t@1@$$QEAM@Z 000000014006e370 f i ShaderManager.obj
 0002:0002c3e0       ??$?0PEAU?$_List_node@U?$pair@$$CBV?$basic_string@DU?$char_traits@D@std@@V?$allocator@D@2@@std@@V?$shared_ptr@VShaderProgram@@@2@@std@@PEAX@std@@_N$0A@@?$pair@PEAU?$_List_node@U?$pair@$$CBV?$basic_string@DU?$char_traits@D@std@@V?$allocator@D@2@@std@@V?$shared_ptr@VShaderProgram@@@2@@std@@PEAX@std@@_N@std@@QEAA@$$QEAPEAU?$_List_node@U?$pair@$$CBV?$basic_string@DU?$char_traits@D@std@@V?$allocator@D@2@@std@@V?$shared_ptr@VShaderProgram@@@2@@std@@PEAX@1@$$QEA_N@Z 000000014006e3e0 f i ShaderManager.obj
 0002:0002c460       ??$?0U?$_List_node@U?$pair@$$CBV?$basic_string@DU?$char_traits@D@std@@V?$allocator@D@2@@std@@V?$shared_ptr@VShaderProgram@@@2@@std@@PEAX@std@@@?$allocator@U_Container_proxy@std@@@std@@QEAA@AEBV?$allocator@U?$_List_node@U?$pair@$$CBV?$basic_string@DU?$char_traits@D@std@@V?$allocator@D@2@@std@@V?$shared_ptr@VShaderProgram@@@2@@std@@PEAX@std@@@1@@Z 000000014006e460 f i ShaderManager.obj
 0002:0002c4b0       ??$?0U?$pair@$$CBV?$basic_string@DU?$char_traits@D@std@@V?$allocator@D@2@@std@@V?$shared_ptr@VShaderProgram@@@2@@std@@@?$allocator@U?$_List_node@U?$pair@$$CBV?$basic_string@DU?$char_traits@D@std@@V?$allocator@D@2@@std@@V?$shared_ptr@VShaderProgram@@@2@@std@@PEAX@std@@@std@@QEAA@AEBV?$allocator@U?$pair@$$CBV?$basic_string@DU?$char_traits@D@std@@V?$allocator@D@2@@std@@V?$shared_ptr@VShaderProgram@@@2@@std@@@1@@Z 000000014006e4b0 f i ShaderManager.obj
 0002:0002c500       ??$?0U?$pair@$$CBV?$basic_string@DU?$char_traits@D@std@@V?$allocator@D@2@@std@@V?$shared_ptr@VShaderProgram@@@2@@std@@@?$allocator@V?$_List_unchecked_iterator@V?$_List_val@U?$_List_simple_types@U?$pair@$$CBV?$basic_string@DU?$char_traits@D@std@@V?$allocator@D@2@@std@@V?$shared_ptr@VShaderProgram@@@2@@std@@@std@@@std@@@std@@@std@@QEAA@AEBV?$allocator@U?$pair@$$CBV?$basic_string@DU?$char_traits@D@std@@V?$allocator@D@2@@std@@V?$shared_ptr@VShaderProgram@@@2@@std@@@1@@Z 000000014006e500 f i ShaderManager.obj
 0002:0002c550       ??$?0U_Exact_args_t@std@@$0A@@?$tuple@$$V@std@@QEAA@U_Exact_args_t@1@@Z 000000014006e550 f i ShaderManager.obj
 0002:0002c5a0       ??$?0U_Exact_args_t@std@@AEBV?$basic_string@DU?$char_traits@D@std@@V?$allocator@D@2@@1@$$V$0A@@?$tuple@AEBV?$basic_string@DU?$char_traits@D@std@@V?$allocator@D@2@@std@@@std@@QEAA@U_Exact_args_t@1@AEBV?$basic_string@DU?$char_traits@D@std@@V?$allocator@D@2@@1@@Z 000000014006e5a0 f i ShaderManager.obj
 0002:0002c620       ??$?0U_Zero_then_variadic_args_t@std@@M@?$_Compressed_pair@U?$hash@V?$basic_string@DU?$char_traits@D@std@@V?$allocator@D@2@@std@@@std@@V?$_Compressed_pair@U?$equal_to@V?$basic_string@DU?$char_traits@D@std@@V?$allocator@D@2@@std@@@std@@M$00@2@$00@std@@QEAA@U_Zero_then_variadic_args_t@1@$$QEAU21@$$QEAM@Z 000000014006e620 f i ShaderManager.obj
 0002:0002c6a0       ??$?0V?$_List_unchecked_iterator@V?$_List_val@U?$_List_simple_types@U?$pair@$$CBV?$basic_string@DU?$char_traits@D@std@@V?$allocator@D@2@@std@@V?$shared_ptr@VShaderProgram@@@2@@std@@@std@@@std@@@std@@@?$allocator@U_Container_proxy@std@@@std@@QEAA@AEBV?$allocator@V?$_List_unchecked_iterator@V?$_List_val@U?$_List_simple_types@U?$pair@$$CBV?$basic_string@DU?$char_traits@D@std@@V?$allocator@D@2@@std@@V?$shared_ptr@VShaderProgram@@@2@@std@@@std@@@std@@@std@@@1@@Z 000000014006e6a0 f i ShaderManager.obj
 0002:0002c6f0       ??$?0V?$allocator@D@std@@$$V@?$_Compressed_pair@V?$allocator@D@std@@V?$_String_val@U?$_Simple_types@D@std@@@2@$00@std@@QEAA@U_One_then_variadic_args_t@1@$$QEAV?$allocator@D@1@@Z 000000014006e6f0 f i ShaderManager.obj
 0002:0002c750       ??$?0V?$tuple@AEBV?$basic_string@DU?$char_traits@D@std@@V?$allocator@D@2@@std@@@std@@V?$tuple@$$V@1@$0A@$$Z$S@?$pair@$$CBV?$basic_string@DU?$char_traits@D@std@@V?$allocator@D@2@@std@@V?$shared_ptr@VShaderProgram@@@2@@std@@QEAA@AEAV?$tuple@AEBV?$basic_string@DU?$char_traits@D@std@@V?$allocator@D@2@@std@@@1@AEAV?$tuple@$$V@1@U?$integer_sequence@_K$0A@@1@U?$integer_sequence@_K$S@1@@Z 000000014006e750 f i ShaderManager.obj
 0002:0002c800       ??$?8DU?$char_traits@D@std@@V?$allocator@D@1@@std@@YA_NAEBV?$basic_string@DU?$char_traits@D@std@@V?$allocator@D@2@@0@0@Z 000000014006e800 f i ShaderManager.obj
 0002:0002c860       ??$?RV?$basic_string@DU?$char_traits@D@std@@V?$allocator@D@2@@std@@@?$_Uhash_compare@V?$basic_string@DU?$char_traits@D@std@@V?$allocator@D@2@@std@@U?$hash@V?$basic_string@DU?$char_traits@D@std@@V?$allocator@D@2@@std@@@2@U?$equal_to@V?$basic_string@DU?$char_traits@D@std@@V?$allocator@D@2@@std@@@2@@std@@QEBA_KAEBV?$basic_string@DU?$char_traits@D@std@@V?$allocator@D@2@@1@@Z 000000014006e860 f i ShaderManager.obj
 0002:0002c8c0       ??$?RV?$basic_string@DU?$char_traits@D@std@@V?$allocator@D@2@@std@@V01@@?$_Uhash_compare@V?$basic_string@DU?$char_traits@D@std@@V?$allocator@D@2@@std@@U?$hash@V?$basic_string@DU?$char_traits@D@std@@V?$allocator@D@2@@std@@@2@U?$equal_to@V?$basic_string@DU?$char_traits@D@std@@V?$allocator@D@2@@std@@@2@@std@@QEBA_NAEBV?$basic_string@DU?$char_traits@D@std@@V?$allocator@D@2@@1@0@Z 000000014006e8c0 f i ShaderManager.obj
 0002:0002c960       ??$_Adl_verify_range@PEAV?$_List_unchecked_iterator@V?$_List_val@U?$_List_simple_types@U?$pair@$$CBV?$basic_string@DU?$char_traits@D@std@@V?$allocator@D@2@@std@@V?$shared_ptr@VShaderProgram@@@2@@std@@@std@@@std@@@std@@PEAV12@@std@@YAXAEBQEAV?$_List_unchecked_iterator@V?$_List_val@U?$_List_simple_types@U?$pair@$$CBV?$basic_string@DU?$char_traits@D@std@@V?$allocator@D@2@@std@@V?$shared_ptr@VShaderProgram@@@2@@std@@@std@@@std@@@0@0@Z 000000014006e960 f i ShaderManager.obj
 0002:0002ca50       ??$_Construct@$01PEBD@?$basic_string@DU?$char_traits@D@std@@V?$allocator@D@2@@std@@AEAAXQEBD_K@Z 000000014006ea50 f i ShaderManager.obj
 0002:0002cce0       ??$_Construct_in_place@PEAU?$_List_node@U?$pair@$$CBV?$basic_string@DU?$char_traits@D@std@@V?$allocator@D@2@@std@@V?$shared_ptr@VShaderProgram@@@2@@std@@PEAX@std@@AEAPEAU12@@std@@YAXAEAPEAU?$_List_node@U?$pair@$$CBV?$basic_string@DU?$char_traits@D@std@@V?$allocator@D@2@@std@@V?$shared_ptr@VShaderProgram@@@2@@std@@PEAX@0@0@Z 000000014006ece0 f i ShaderManager.obj
 0002:0002cd60       ??$_Construct_in_place@PEAU?$_List_node@U?$pair@$$CBV?$basic_string@DU?$char_traits@D@std@@V?$allocator@D@2@@std@@V?$shared_ptr@VShaderProgram@@@2@@std@@PEAX@std@@AEBQEAU12@@std@@YAXAEAPEAU?$_List_node@U?$pair@$$CBV?$basic_string@DU?$char_traits@D@std@@V?$allocator@D@2@@std@@V?$shared_ptr@VShaderProgram@@@2@@std@@PEAX@0@AEBQEAU10@@Z 000000014006ed60 f i ShaderManager.obj
 0002:0002cde0       ??$_Construct_in_place@V?$_List_unchecked_iterator@V?$_List_val@U?$_List_simple_types@U?$pair@$$CBV?$basic_string@DU?$char_traits@D@std@@V?$allocator@D@2@@std@@V?$shared_ptr@VShaderProgram@@@2@@std@@@std@@@std@@@std@@AEBV12@@std@@YAXAEAV?$_List_unchecked_iterator@V?$_List_val@U?$_List_simple_types@U?$pair@$$CBV?$basic_string@DU?$char_traits@D@std@@V?$allocator@D@2@@std@@V?$shared_ptr@VShaderProgram@@@2@@std@@@std@@@std@@@0@AEBV10@@Z 000000014006ede0 f i ShaderManager.obj
 0002:0002ce60       ??$_Construct_in_place@VShaderProgram@@AEAIAEAI@std@@YAXAEAVShaderProgram@@AEAI1@Z 000000014006ee60 f i ShaderManager.obj
 0002:0002cf00       ??$_Construct_in_place@VShaderProgram@@AEAVShader@@AEAV2@@std@@YAXAEAVShaderProgram@@AEAVShader@@1@Z 000000014006ef00 f i ShaderManager.obj
 0002:0002cfa0       ??$_Copy_construct_from@VShaderProgram@@@?$_Ptr_base@VShaderProgram@@@std@@IEAAXAEBV?$shared_ptr@VShaderProgram@@@1@@Z 000000014006efa0 f i ShaderManager.obj
 0002:0002d020       ??$_Destroy_in_place@PEAU?$_List_node@U?$pair@$$CBV?$basic_string@DU?$char_traits@D@std@@V?$allocator@D@2@@std@@V?$shared_ptr@VShaderProgram@@@2@@std@@PEAX@std@@@std@@YAXAEAPEAU?$_List_node@U?$pair@$$CBV?$basic_string@DU?$char_traits@D@std@@V?$allocator@D@2@@std@@V?$shared_ptr@VShaderProgram@@@2@@std@@PEAX@0@@Z 000000014006f020 f i ShaderManager.obj
 0002:0002d060       ??$_Destroy_in_place@VShaderProgram@@@std@@YAXAEAVShaderProgram@@@Z 000000014006f060 f i ShaderManager.obj
 0002:0002d0b0       ??$_Destroy_range@PEAV?$_List_unchecked_iterator@V?$_List_val@U?$_List_simple_types@U?$pair@$$CBV?$basic_string@DU?$char_traits@D@std@@V?$allocator@D@2@@std@@V?$shared_ptr@VShaderProgram@@@2@@std@@@std@@@std@@@std@@PEAV12@@std@@YAXPEAV?$_List_unchecked_iterator@V?$_List_val@U?$_List_simple_types@U?$pair@$$CBV?$basic_string@DU?$char_traits@D@std@@V?$allocator@D@2@@std@@V?$shared_ptr@VShaderProgram@@@2@@std@@@std@@@std@@@0@QEAV10@@Z 000000014006f0b0 f i ShaderManager.obj
 0002:0002d0f0       ??$_Emplace_back@AEBV?$_List_unchecked_iterator@V?$_List_val@U?$_List_simple_types@U?$pair@$$CBV?$basic_string@DU?$char_traits@D@std@@V?$allocator@D@2@@std@@V?$shared_ptr@VShaderProgram@@@2@@std@@@std@@@std@@@std@@@?$_Uninitialized_backout@PEAV?$_List_unchecked_iterator@V?$_List_val@U?$_List_simple_types@U?$pair@$$CBV?$basic_string@DU?$char_traits@D@std@@V?$allocator@D@2@@std@@V?$shared_ptr@VShaderProgram@@@2@@std@@@std@@@std@@@std@@@std@@QEAAXAEBV?$_List_unchecked_iterator@V?$_List_val@U?$_List_simple_types@U?$pair@$$CBV?$basic_string@DU?$char_traits@D@std@@V?$allocator@D@2@@std@@V?$shared_ptr@VShaderProgram@@@2@@std@@@std@@@std@@@1@@Z 000000014006f0f0 f i ShaderManager.obj
 0002:0002d170       ??$_Find@V?$basic_string@DU?$char_traits@D@std@@V?$allocator@D@2@@std@@@?$_Hash@V?$_Umap_traits@V?$basic_string@DU?$char_traits@D@std@@V?$allocator@D@2@@std@@V?$shared_ptr@VShaderProgram@@@2@V?$_Uhash_compare@V?$basic_string@DU?$char_traits@D@std@@V?$allocator@D@2@@std@@U?$hash@V?$basic_string@DU?$char_traits@D@std@@V?$allocator@D@2@@std@@@2@U?$equal_to@V?$basic_string@DU?$char_traits@D@std@@V?$allocator@D@2@@std@@@2@@2@V?$allocator@U?$pair@$$CBV?$basic_string@DU?$char_traits@D@std@@V?$allocator@D@2@@std@@V?$shared_ptr@VShaderProgram@@@2@@std@@@2@$0A@@std@@@std@@AEBAPEAU?$_List_node@U?$pair@$$CBV?$basic_string@DU?$char_traits@D@std@@V?$allocator@D@2@@std@@V?$shared_ptr@VShaderProgram@@@2@@std@@PEAX@1@AEBV?$basic_string@DU?$char_traits@D@std@@V?$allocator@D@2@@1@_K@Z 000000014006f170 f i ShaderManager.obj
 0002:0002d210       ??$_Find_last@V?$basic_string@DU?$char_traits@D@std@@V?$allocator@D@2@@std@@@?$_Hash@V?$_Umap_traits@V?$basic_string@DU?$char_traits@D@std@@V?$allocator@D@2@@std@@V?$shared_ptr@VShaderProgram@@@2@V?$_Uhash_compare@V?$basic_string@DU?$char_traits@D@std@@V?$allocator@D@2@@std@@U?$hash@V?$basic_string@DU?$char_traits@D@std@@V?$allocator@D@2@@std@@@2@U?$equal_to@V?$basic_string@DU?$char_traits@D@std@@V?$allocator@D@2@@std@@@2@@2@V?$allocator@U?$pair@$$CBV?$basic_string@DU?$char_traits@D@std@@V?$allocator@D@2@@std@@V?$shared_ptr@VShaderProgram@@@2@@std@@@2@$0A@@std@@@std@@IEBA?AU?$_Hash_find_last_result@PEAU?$_List_node@U?$pair@$$CBV?$basic_string@DU?$char_traits@D@std@@V?$allocator@D@2@@std@@V?$shared_ptr@VShaderProgram@@@2@@std@@PEAX@std@@@1@AEBV?$basic_string@DU?$char_traits@D@std@@V?$allocator@D@2@@1@_K@Z 000000014006f210 f i ShaderManager.obj
 0002:0002d3d0       ??$_Free_non_head@V?$allocator@U?$_List_node@U?$pair@$$CBV?$basic_string@DU?$char_traits@D@std@@V?$allocator@D@2@@std@@V?$shared_ptr@VShaderProgram@@@2@@std@@PEAX@std@@@std@@@?$_List_node@U?$pair@$$CBV?$basic_string@DU?$char_traits@D@std@@V?$allocator@D@2@@std@@V?$shared_ptr@VShaderProgram@@@2@@std@@PEAX@std@@SAXAEAV?$allocator@U?$_List_node@U?$pair@$$CBV?$basic_string@DU?$char_traits@D@std@@V?$allocator@D@2@@std@@V?$shared_ptr@VShaderProgram@@@2@@std@@PEAX@std@@@1@PEAU01@@Z 000000014006f3d0 f i ShaderManager.obj
 0002:0002d470       ??$_Freenode0@V?$allocator@U?$_List_node@U?$pair@$$CBV?$basic_string@DU?$char_traits@D@std@@V?$allocator@D@2@@std@@V?$shared_ptr@VShaderProgram@@@2@@std@@PEAX@std@@@std@@@?$_List_node@U?$pair@$$CBV?$basic_string@DU?$char_traits@D@std@@V?$allocator@D@2@@std@@V?$shared_ptr@VShaderProgram@@@2@@std@@PEAX@std@@SAXAEAV?$allocator@U?$_List_node@U?$pair@$$CBV?$basic_string@DU?$char_traits@D@std@@V?$allocator@D@2@@std@@V?$shared_ptr@VShaderProgram@@@2@@std@@PEAX@std@@@1@PEAU01@@Z 000000014006f470 f i ShaderManager.obj
 0002:0002d500       ??$_Freenode@V?$allocator@U?$_List_node@U?$pair@$$CBV?$basic_string@DU?$char_traits@D@std@@V?$allocator@D@2@@std@@V?$shared_ptr@VShaderProgram@@@2@@std@@PEAX@std@@@std@@@?$_List_node@U?$pair@$$CBV?$basic_string@DU?$char_traits@D@std@@V?$allocator@D@2@@std@@V?$shared_ptr@VShaderProgram@@@2@@std@@PEAX@std@@SAXAEAV?$allocator@U?$_List_node@U?$pair@$$CBV?$basic_string@DU?$char_traits@D@std@@V?$allocator@D@2@@std@@V?$shared_ptr@VShaderProgram@@@2@@std@@PEAX@std@@@1@PEAU01@@Z 000000014006f500 f i ShaderManager.obj
 0002:0002d580       ??$_Get_size_of_n@$07@std@@YA_K_K@Z 000000014006f580 f i ShaderManager.obj
 0002:0002d600       ??$_Get_size_of_n@$0EI@@std@@YA_K_K@Z 000000014006f600 f i ShaderManager.obj
 0002:0002d680       ??$_Get_unwrapped@AEBQEAV?$_List_unchecked_iterator@V?$_List_val@U?$_List_simple_types@U?$pair@$$CBV?$basic_string@DU?$char_traits@D@std@@V?$allocator@D@2@@std@@V?$shared_ptr@VShaderProgram@@@2@@std@@@std@@@std@@@std@@@std@@YA?A_TAEBQEAV?$_List_unchecked_iterator@V?$_List_val@U?$_List_simple_types@U?$pair@$$CBV?$basic_string@DU?$char_traits@D@std@@V?$allocator@D@2@@std@@V?$shared_ptr@VShaderProgram@@@2@@std@@@std@@@std@@@0@@Z 000000014006f680 f i ShaderManager.obj
 0002:0002d6d0       ??$_Hash_array_representation@D@std@@YA_KQEBD_K@Z 000000014006f6d0 f i ShaderManager.obj
 0002:0002d730       ??$_Kfn@$$CBV?$basic_string@DU?$char_traits@D@std@@V?$allocator@D@2@@std@@V?$shared_ptr@VShaderProgram@@@2@@?$_Umap_traits@V?$basic_string@DU?$char_traits@D@std@@V?$allocator@D@2@@std@@V?$shared_ptr@VShaderProgram@@@2@V?$_Uhash_compare@V?$basic_string@DU?$char_traits@D@std@@V?$allocator@D@2@@std@@U?$hash@V?$basic_string@DU?$char_traits@D@std@@V?$allocator@D@2@@std@@@2@U?$equal_to@V?$basic_string@DU?$char_traits@D@std@@V?$allocator@D@2@@std@@@2@@2@V?$allocator@U?$pair@$$CBV?$basic_string@DU?$char_traits@D@std@@V?$allocator@D@2@@std@@V?$shared_ptr@VShaderProgram@@@2@@std@@@2@$0A@@std@@SAAEBV?$basic_string@DU?$char_traits@D@std@@V?$allocator@D@2@@1@AEBU?$pair@$$CBV?$basic_string@DU?$char_traits@D@std@@V?$allocator@D@2@@std@@V?$shared_ptr@VShaderProgram@@@2@@1@@Z 000000014006f730 f i ShaderManager.obj
 0002:0002d770       ??$_Set_ptr_rep_and_enable_shared@VShaderProgram@@@?$shared_ptr@VShaderProgram@@@std@@AEAAXQEAVShaderProgram@@QEAV_Ref_count_base@1@@Z 000000014006f770 f i ShaderManager.obj
 0002:0002d7e0       ??$_Traits_equal@U?$char_traits@D@std@@@std@@YA_NQEBD_K01@Z 000000014006f7e0 f i ShaderManager.obj
 0002:0002d890       ??$_Try_emplace@AEBV?$basic_string@DU?$char_traits@D@std@@V?$allocator@D@2@@std@@$$V@?$_Hash@V?$_Umap_traits@V?$basic_string@DU?$char_traits@D@std@@V?$allocator@D@2@@std@@V?$shared_ptr@VShaderProgram@@@2@V?$_Uhash_compare@V?$basic_string@DU?$char_traits@D@std@@V?$allocator@D@2@@std@@U?$hash@V?$basic_string@DU?$char_traits@D@std@@V?$allocator@D@2@@std@@@2@U?$equal_to@V?$basic_string@DU?$char_traits@D@std@@V?$allocator@D@2@@std@@@2@@2@V?$allocator@U?$pair@$$CBV?$basic_string@DU?$char_traits@D@std@@V?$allocator@D@2@@std@@V?$shared_ptr@VShaderProgram@@@2@@std@@@2@$0A@@std@@@std@@IEAA?AU?$pair@PEAU?$_List_node@U?$pair@$$CBV?$basic_string@DU?$char_traits@D@std@@V?$allocator@D@2@@std@@V?$shared_ptr@VShaderProgram@@@2@@std@@PEAX@std@@_N@1@AEBV?$basic_string@DU?$char_traits@D@std@@V?$allocator@D@2@@1@@Z 000000014006f890 f i ShaderManager.obj
 0002:0002db40       ??$_Tuple_get@$0A@AEBV?$basic_string@DU?$char_traits@D@std@@V?$allocator@D@2@@std@@@std@@YA$$QEA_P$$QEAV?$tuple@AEBV?$basic_string@DU?$char_traits@D@std@@V?$allocator@D@2@@std@@@0@@Z 000000014006fb40 f i ShaderManager.obj
 0002:0002db90       ??$addressof@$$CBV?$_List_val@U?$_List_simple_types@U?$pair@$$CBV?$basic_string@DU?$char_traits@D@std@@V?$allocator@D@2@@std@@V?$shared_ptr@VShaderProgram@@@2@@std@@@std@@@std@@@std@@YAPEBV?$_List_val@U?$_List_simple_types@U?$pair@$$CBV?$basic_string@DU?$char_traits@D@std@@V?$allocator@D@2@@std@@V?$shared_ptr@VShaderProgram@@@2@@std@@@std@@@0@AEBV10@@Z 000000014006fb90 f i ShaderManager.obj
 0002:0002dbd0       ??$addressof@PEAU?$_List_node@U?$pair@$$CBV?$basic_string@DU?$char_traits@D@std@@V?$allocator@D@2@@std@@V?$shared_ptr@VShaderProgram@@@2@@std@@PEAX@std@@@std@@YAPEAPEAU?$_List_node@U?$pair@$$CBV?$basic_string@DU?$char_traits@D@std@@V?$allocator@D@2@@std@@V?$shared_ptr@VShaderProgram@@@2@@std@@PEAX@0@AEAPEAU10@@Z 000000014006fbd0 f i ShaderManager.obj
 0002:0002dc10       ??$addressof@U?$pair@$$CBV?$basic_string@DU?$char_traits@D@std@@V?$allocator@D@2@@std@@V?$shared_ptr@VShaderProgram@@@2@@std@@@std@@YAPEAU?$pair@$$CBV?$basic_string@DU?$char_traits@D@std@@V?$allocator@D@2@@std@@V?$shared_ptr@VShaderProgram@@@2@@0@AEAU10@@Z 000000014006fc10 f i ShaderManager.obj
 0002:0002dc50       ??$addressof@V?$_List_unchecked_iterator@V?$_List_val@U?$_List_simple_types@U?$pair@$$CBV?$basic_string@DU?$char_traits@D@std@@V?$allocator@D@2@@std@@V?$shared_ptr@VShaderProgram@@@2@@std@@@std@@@std@@@std@@@std@@YAPEAV?$_List_unchecked_iterator@V?$_List_val@U?$_List_simple_types@U?$pair@$$CBV?$basic_string@DU?$char_traits@D@std@@V?$allocator@D@2@@std@@V?$shared_ptr@VShaderProgram@@@2@@std@@@std@@@std@@@0@AEAV10@@Z 000000014006fc50 f i ShaderManager.obj
 0002:0002dc90       ??$addressof@V?$_List_val@U?$_List_simple_types@U?$pair@$$CBV?$basic_string@DU?$char_traits@D@std@@V?$allocator@D@2@@std@@V?$shared_ptr@VShaderProgram@@@2@@std@@@std@@@std@@@std@@YAPEAV?$_List_val@U?$_List_simple_types@U?$pair@$$CBV?$basic_string@DU?$char_traits@D@std@@V?$allocator@D@2@@std@@V?$shared_ptr@VShaderProgram@@@2@@std@@@std@@@0@AEAV10@@Z 000000014006fc90 f i ShaderManager.obj
 0002:0002dcd0       ??$addressof@VShaderProgram@@@std@@YAPEAVShaderProgram@@AEAV1@@Z 000000014006fcd0 f i ShaderManager.obj
 0002:0002dd10       ??$construct@U?$pair@$$CBV?$basic_string@DU?$char_traits@D@std@@V?$allocator@D@2@@std@@V?$shared_ptr@VShaderProgram@@@2@@std@@AEBUpiecewise_construct_t@2@V?$tuple@AEBV?$basic_string@DU?$char_traits@D@std@@V?$allocator@D@2@@std@@@2@V?$tuple@$$V@2@@?$_Default_allocator_traits@V?$allocator@U?$_List_node@U?$pair@$$CBV?$basic_string@DU?$char_traits@D@std@@V?$allocator@D@2@@std@@V?$shared_ptr@VShaderProgram@@@2@@std@@PEAX@std@@@std@@@std@@SAXAEAV?$allocator@U?$_List_node@U?$pair@$$CBV?$basic_string@DU?$char_traits@D@std@@V?$allocator@D@2@@std@@V?$shared_ptr@VShaderProgram@@@2@@std@@PEAX@std@@@1@QEAU?$pair@$$CBV?$basic_string@DU?$char_traits@D@std@@V?$allocator@D@2@@std@@V?$shared_ptr@VShaderProgram@@@2@@1@AEBUpiecewise_construct_t@1@$$QEAV?$tuple@AEBV?$basic_string@DU?$char_traits@D@std@@V?$allocator@D@2@@std@@@1@$$QEAV?$tuple@$$V@1@@Z 000000014006fd10 f i ShaderManager.obj
 0002:0002de00       ??$destroy@U?$pair@$$CBV?$basic_string@DU?$char_traits@D@std@@V?$allocator@D@2@@std@@V?$shared_ptr@VShaderProgram@@@2@@std@@@?$_Default_allocator_traits@V?$allocator@U?$_List_node@U?$pair@$$CBV?$basic_string@DU?$char_traits@D@std@@V?$allocator@D@2@@std@@V?$shared_ptr@VShaderProgram@@@2@@std@@PEAX@std@@@std@@@std@@SAXAEAV?$allocator@U?$_List_node@U?$pair@$$CBV?$basic_string@DU?$char_traits@D@std@@V?$allocator@D@2@@std@@V?$shared_ptr@VShaderProgram@@@2@@std@@PEAX@std@@@1@QEAU?$pair@$$CBV?$basic_string@DU?$char_traits@D@std@@V?$allocator@D@2@@std@@V?$shared_ptr@VShaderProgram@@@2@@1@@Z 000000014006fe00 f i ShaderManager.obj
 0002:0002de50       ??$exchange@PEAU?$_List_node@U?$pair@$$CBV?$basic_string@DU?$char_traits@D@std@@V?$allocator@D@2@@std@@V?$shared_ptr@VShaderProgram@@@2@@std@@PEAX@std@@$$T@std@@YAPEAU?$_List_node@U?$pair@$$CBV?$basic_string@DU?$char_traits@D@std@@V?$allocator@D@2@@std@@V?$shared_ptr@VShaderProgram@@@2@@std@@PEAX@0@AEAPEAU10@$$QEA$$T@Z 000000014006fe50 f i ShaderManager.obj
 0002:0002dec0       ??$fill@PEAV?$_List_unchecked_iterator@V?$_List_val@U?$_List_simple_types@U?$pair@$$CBV?$basic_string@DU?$char_traits@D@std@@V?$allocator@D@2@@std@@V?$shared_ptr@VShaderProgram@@@2@@std@@@std@@@std@@@std@@V12@@std@@YAXQEAV?$_List_unchecked_iterator@V?$_List_val@U?$_List_simple_types@U?$pair@$$CBV?$basic_string@DU?$char_traits@D@std@@V?$allocator@D@2@@std@@V?$shared_ptr@VShaderProgram@@@2@@std@@@std@@@std@@@0@0AEBV10@@Z 000000014006fec0 f i ShaderManager.obj
 0002:0002df80       ??$find@X@?$_Hash@V?$_Umap_traits@V?$basic_string@DU?$char_traits@D@std@@V?$allocator@D@2@@std@@V?$shared_ptr@VShaderProgram@@@2@V?$_Uhash_compare@V?$basic_string@DU?$char_traits@D@std@@V?$allocator@D@2@@std@@U?$hash@V?$basic_string@DU?$char_traits@D@std@@V?$allocator@D@2@@std@@@2@U?$equal_to@V?$basic_string@DU?$char_traits@D@std@@V?$allocator@D@2@@std@@@2@@2@V?$allocator@U?$pair@$$CBV?$basic_string@DU?$char_traits@D@std@@V?$allocator@D@2@@std@@V?$shared_ptr@VShaderProgram@@@2@@std@@@2@$0A@@std@@@std@@QEAA?AV?$_List_iterator@V?$_List_val@U?$_List_simple_types@U?$pair@$$CBV?$basic_string@DU?$char_traits@D@std@@V?$allocator@D@2@@std@@V?$shared_ptr@VShaderProgram@@@2@@std@@@std@@@std@@@1@AEBV?$basic_string@DU?$char_traits@D@std@@V?$allocator@D@2@@1@@Z 000000014006ff80 f i ShaderManager.obj
 0002:0002e040       ??$forward_as_tuple@$$V@std@@YA?AV?$tuple@$$V@0@XZ 0000000140070040 f i ShaderManager.obj
 0002:0002e080       ??$forward_as_tuple@AEBV?$basic_string@DU?$char_traits@D@std@@V?$allocator@D@2@@std@@@std@@YA?AV?$tuple@AEBV?$basic_string@DU?$char_traits@D@std@@V?$allocator@D@2@@std@@@0@AEBV?$basic_string@DU?$char_traits@D@std@@V?$allocator@D@2@@0@@Z 0000000140070080 f i ShaderManager.obj
 0002:0002e0e0       ??$make_shared@VShaderProgram@@AEAIAEAI@std@@YA?AV?$shared_ptr@VShaderProgram@@@0@AEAI0@Z 00000001400700e0 f i ShaderManager.obj
 0002:0002e260       ??$make_shared@VShaderProgram@@AEAVShader@@AEAV2@@std@@YA?AV?$shared_ptr@VShaderProgram@@@0@AEAVShader@@0@Z 0000000140070260 f i ShaderManager.obj
 0002:0002e3e0       ??$uninitialized_fill@PEAV?$_List_unchecked_iterator@V?$_List_val@U?$_List_simple_types@U?$pair@$$CBV?$basic_string@DU?$char_traits@D@std@@V?$allocator@D@2@@std@@V?$shared_ptr@VShaderProgram@@@2@@std@@@std@@@std@@@std@@V12@@std@@YAXQEAV?$_List_unchecked_iterator@V?$_List_val@U?$_List_simple_types@U?$pair@$$CBV?$basic_string@DU?$char_traits@D@std@@V?$allocator@D@2@@std@@V?$shared_ptr@VShaderProgram@@@2@@std@@@std@@@std@@@0@0AEBV10@@Z 00000001400703e0 f i ShaderManager.obj
 0002:0002e510       ??0?$_Alloc_construct_ptr@V?$allocator@U?$_List_node@U?$pair@$$CBV?$basic_string@DU?$char_traits@D@std@@V?$allocator@D@2@@std@@V?$shared_ptr@VShaderProgram@@@2@@std@@PEAX@std@@@std@@@std@@QEAA@AEAV?$allocator@U?$_List_node@U?$pair@$$CBV?$basic_string@DU?$char_traits@D@std@@V?$allocator@D@2@@std@@V?$shared_ptr@VShaderProgram@@@2@@std@@PEAX@std@@@1@@Z 0000000140070510 f i ShaderManager.obj
 0002:0002e580       ??0?$_Hash@V?$_Umap_traits@V?$basic_string@DU?$char_traits@D@std@@V?$allocator@D@2@@std@@V?$shared_ptr@VShaderProgram@@@2@V?$_Uhash_compare@V?$basic_string@DU?$char_traits@D@std@@V?$allocator@D@2@@std@@U?$hash@V?$basic_string@DU?$char_traits@D@std@@V?$allocator@D@2@@std@@@2@U?$equal_to@V?$basic_string@DU?$char_traits@D@std@@V?$allocator@D@2@@std@@@2@@2@V?$allocator@U?$pair@$$CBV?$basic_string@DU?$char_traits@D@std@@V?$allocator@D@2@@std@@V?$shared_ptr@VShaderProgram@@@2@@std@@@2@$0A@@std@@@std@@IEAA@AEBV?$_Uhash_compare@V?$basic_string@DU?$char_traits@D@std@@V?$allocator@D@2@@std@@U?$hash@V?$basic_string@DU?$char_traits@D@std@@V?$allocator@D@2@@std@@@2@U?$equal_to@V?$basic_string@DU?$char_traits@D@std@@V?$allocator@D@2@@std@@@2@@1@AEBV?$allocator@U?$pair@$$CBV?$basic_string@DU?$char_traits@D@std@@V?$allocator@D@2@@std@@V?$shared_ptr@VShaderProgram@@@2@@std@@@1@@Z 0000000140070580 f i ShaderManager.obj
 0002:0002e6b0       ??0?$_List_const_iterator@V?$_List_val@U?$_List_simple_types@U?$pair@$$CBV?$basic_string@DU?$char_traits@D@std@@V?$allocator@D@2@@std@@V?$shared_ptr@VShaderProgram@@@2@@std@@@std@@@std@@@std@@QEAA@AEBV01@@Z 00000001400706b0 f i ShaderManager.obj
 0002:0002e700       ??0?$_List_const_iterator@V?$_List_val@U?$_List_simple_types@U?$pair@$$CBV?$basic_string@DU?$char_traits@D@std@@V?$allocator@D@2@@std@@V?$shared_ptr@VShaderProgram@@@2@@std@@@std@@@std@@@std@@QEAA@PEAU?$_List_node@U?$pair@$$CBV?$basic_string@DU?$char_traits@D@std@@V?$allocator@D@2@@std@@V?$shared_ptr@VShaderProgram@@@2@@std@@PEAX@1@PEBV?$_List_val@U?$_List_simple_types@U?$pair@$$CBV?$basic_string@DU?$char_traits@D@std@@V?$allocator@D@2@@std@@V?$shared_ptr@VShaderProgram@@@2@@std@@@std@@@1@@Z 0000000140070700 f i ShaderManager.obj
 0002:0002e760       ??0?$_List_iterator@V?$_List_val@U?$_List_simple_types@U?$pair@$$CBV?$basic_string@DU?$char_traits@D@std@@V?$allocator@D@2@@std@@V?$shared_ptr@VShaderProgram@@@2@@std@@@std@@@std@@@std@@QEAA@AEBV01@@Z 0000000140070760 f i ShaderManager.obj
 0002:0002e7b0       ??0?$_List_iterator@V?$_List_val@U?$_List_simple_types@U?$pair@$$CBV?$basic_string@DU?$char_traits@D@std@@V?$allocator@D@2@@std@@V?$shared_ptr@VShaderProgram@@@2@@std@@@std@@@std@@@std@@QEAA@PEAU?$_List_node@U?$pair@$$CBV?$basic_string@DU?$char_traits@D@std@@V?$allocator@D@2@@std@@V?$shared_ptr@VShaderProgram@@@2@@std@@PEAX@1@PEBV?$_List_val@U?$_List_simple_types@U?$pair@$$CBV?$basic_string@DU?$char_traits@D@std@@V?$allocator@D@2@@std@@V?$shared_ptr@VShaderProgram@@@2@@std@@@std@@@1@@Z 00000001400707b0 f i ShaderManager.obj
 0002:0002e810       ??0?$_List_unchecked_const_iterator@V?$_List_val@U?$_List_simple_types@U?$pair@$$CBV?$basic_string@DU?$char_traits@D@std@@V?$allocator@D@2@@std@@V?$shared_ptr@VShaderProgram@@@2@@std@@@std@@@std@@U_Iterator_base0@2@@std@@QEAA@PEAU?$_List_node@U?$pair@$$CBV?$basic_string@DU?$char_traits@D@std@@V?$allocator@D@2@@std@@V?$shared_ptr@VShaderProgram@@@2@@std@@PEAX@1@PEBV?$_List_val@U?$_List_simple_types@U?$pair@$$CBV?$basic_string@DU?$char_traits@D@std@@V?$allocator@D@2@@std@@V?$shared_ptr@VShaderProgram@@@2@@std@@@std@@@1@@Z 0000000140070810 f i ShaderManager.obj
 0002:0002e890       ??0?$_List_unchecked_const_iterator@V?$_List_val@U?$_List_simple_types@U?$pair@$$CBV?$basic_string@DU?$char_traits@D@std@@V?$allocator@D@2@@std@@V?$shared_ptr@VShaderProgram@@@2@@std@@@std@@@std@@U_Iterator_base12@2@@std@@QEAA@AEBV01@@Z 0000000140070890 f i ShaderManager.obj
 0002:0002e900       ??0?$_List_unchecked_const_iterator@V?$_List_val@U?$_List_simple_types@U?$pair@$$CBV?$basic_string@DU?$char_traits@D@std@@V?$allocator@D@2@@std@@V?$shared_ptr@VShaderProgram@@@2@@std@@@std@@@std@@U_Iterator_base12@2@@std@@QEAA@PEAU?$_List_node@U?$pair@$$CBV?$basic_string@DU?$char_traits@D@std@@V?$allocator@D@2@@std@@V?$shared_ptr@VShaderProgram@@@2@@std@@PEAX@1@PEBV?$_List_val@U?$_List_simple_types@U?$pair@$$CBV?$basic_string@DU?$char_traits@D@std@@V?$allocator@D@2@@std@@V?$shared_ptr@VShaderProgram@@@2@@std@@@std@@@1@@Z 0000000140070900 f i ShaderManager.obj
 0002:0002e990       ??0?$_List_unchecked_iterator@V?$_List_val@U?$_List_simple_types@U?$pair@$$CBV?$basic_string@DU?$char_traits@D@std@@V?$allocator@D@2@@std@@V?$shared_ptr@VShaderProgram@@@2@@std@@@std@@@std@@@std@@QEAA@PEAU?$_List_node@U?$pair@$$CBV?$basic_string@DU?$char_traits@D@std@@V?$allocator@D@2@@std@@V?$shared_ptr@VShaderProgram@@@2@@std@@PEAX@1@PEBV?$_List_val@U?$_List_simple_types@U?$pair@$$CBV?$basic_string@DU?$char_traits@D@std@@V?$allocator@D@2@@std@@V?$shared_ptr@VShaderProgram@@@2@@std@@@std@@@1@@Z 0000000140070990 f i ShaderManager.obj
 0002:0002e9f0       ??0?$_List_val@U?$_List_simple_types@U?$pair@$$CBV?$basic_string@DU?$char_traits@D@std@@V?$allocator@D@2@@std@@V?$shared_ptr@VShaderProgram@@@2@@std@@@std@@@std@@QEAA@XZ 00000001400709f0 f i ShaderManager.obj
 0002:0002ea70       ??0?$_Uhash_compare@V?$basic_string@DU?$char_traits@D@std@@V?$allocator@D@2@@std@@U?$hash@V?$basic_string@DU?$char_traits@D@std@@V?$allocator@D@2@@std@@@2@U?$equal_to@V?$basic_string@DU?$char_traits@D@std@@V?$allocator@D@2@@std@@@2@@std@@QEAA@XZ 0000000140070a70 f i ShaderManager.obj
 0002:0002eaf0       ??0?$_Umap_traits@V?$basic_string@DU?$char_traits@D@std@@V?$allocator@D@2@@std@@V?$shared_ptr@VShaderProgram@@@2@V?$_Uhash_compare@V?$basic_string@DU?$char_traits@D@std@@V?$allocator@D@2@@std@@U?$hash@V?$basic_string@DU?$char_traits@D@std@@V?$allocator@D@2@@std@@@2@U?$equal_to@V?$basic_string@DU?$char_traits@D@std@@V?$allocator@D@2@@std@@@2@@2@V?$allocator@U?$pair@$$CBV?$basic_string@DU?$char_traits@D@std@@V?$allocator@D@2@@std@@V?$shared_ptr@VShaderProgram@@@2@@std@@@2@$0A@@std@@QEAA@AEBV?$_Uhash_compare@V?$basic_string@DU?$char_traits@D@std@@V?$allocator@D@2@@std@@U?$hash@V?$basic_string@DU?$char_traits@D@std@@V?$allocator@D@2@@std@@@2@U?$equal_to@V?$basic_string@DU?$char_traits@D@std@@V?$allocator@D@2@@std@@@2@@1@@Z 0000000140070af0 f i ShaderManager.obj
 0002:0002eb50       ??0?$_Uninitialized_backout@PEAV?$_List_unchecked_iterator@V?$_List_val@U?$_List_simple_types@U?$pair@$$CBV?$basic_string@DU?$char_traits@D@std@@V?$allocator@D@2@@std@@V?$shared_ptr@VShaderProgram@@@2@@std@@@std@@@std@@@std@@@std@@QEAA@PEAV?$_List_unchecked_iterator@V?$_List_val@U?$_List_simple_types@U?$pair@$$CBV?$basic_string@DU?$char_traits@D@std@@V?$allocator@D@2@@std@@V?$shared_ptr@VShaderProgram@@@2@@std@@@std@@@std@@@1@@Z 0000000140070b50 f i ShaderManager.obj
 0002:0002ebc0       ??0?$_Vector_val@U?$_Simple_types@V?$_List_unchecked_iterator@V?$_List_val@U?$_List_simple_types@U?$pair@$$CBV?$basic_string@DU?$char_traits@D@std@@V?$allocator@D@2@@std@@V?$shared_ptr@VShaderProgram@@@2@@std@@@std@@@std@@@std@@@std@@@std@@QEAA@XZ 0000000140070bc0 f i ShaderManager.obj
 0002:0002ec50       ??0?$allocator@U?$pair@$$CBV?$basic_string@DU?$char_traits@D@std@@V?$allocator@D@2@@std@@V?$shared_ptr@VShaderProgram@@@2@@std@@@std@@QEAA@XZ 0000000140070c50 f i ShaderManager.obj
 0002:0002ec90       ??0?$basic_string@DU?$char_traits@D@std@@V?$allocator@D@2@@std@@QEAA@AEBV01@@Z 0000000140070c90 f i ShaderManager.obj
 0002:0002ed50       ??0?$list@U?$pair@$$CBV?$basic_string@DU?$char_traits@D@std@@V?$allocator@D@2@@std@@V?$shared_ptr@VShaderProgram@@@2@@std@@V?$allocator@U?$pair@$$CBV?$basic_string@DU?$char_traits@D@std@@V?$allocator@D@2@@std@@V?$shared_ptr@VShaderProgram@@@2@@std@@@2@@std@@QEAA@AEBV?$allocator@U?$pair@$$CBV?$basic_string@DU?$char_traits@D@std@@V?$allocator@D@2@@std@@V?$shared_ptr@VShaderProgram@@@2@@std@@@1@@Z 0000000140070d50 f i ShaderManager.obj
 0002:0002edd0       ??0?$shared_ptr@VShaderProgram@@@std@@QEAA@$$T@Z 0000000140070dd0 f i ShaderManager.obj
 0002:0002ee30       ??0?$shared_ptr@VShaderProgram@@@std@@QEAA@AEBV01@@Z 0000000140070e30 f i ShaderManager.obj
 0002:0002eea0       ??0?$tuple@$$V@std@@QEAA@AEBV01@@Z 0000000140070ea0 f i ShaderManager.obj
 0002:0002eef0       ??0?$tuple@AEBV?$basic_string@DU?$char_traits@D@std@@V?$allocator@D@2@@std@@@std@@QEAA@$$QEAV01@@Z 0000000140070ef0 f i ShaderManager.obj
 0002:0002ef70       ??0?$unordered_map@V?$basic_string@DU?$char_traits@D@std@@V?$allocator@D@2@@std@@V?$shared_ptr@VShaderProgram@@@2@U?$hash@V?$basic_string@DU?$char_traits@D@std@@V?$allocator@D@2@@std@@@2@U?$equal_to@V?$basic_string@DU?$char_traits@D@std@@V?$allocator@D@2@@std@@@2@V?$allocator@U?$pair@$$CBV?$basic_string@DU?$char_traits@D@std@@V?$allocator@D@2@@std@@V?$shared_ptr@VShaderProgram@@@2@@std@@@2@@std@@QEAA@XZ 0000000140070f70 f i ShaderManager.obj
 0002:0002f000       ??0ShaderManager@@AEAA@XZ  0000000140071000 f i ShaderManager.obj
 0002:0002f060       ??0_Clear_guard@?$_Hash@V?$_Umap_traits@V?$basic_string@DU?$char_traits@D@std@@V?$allocator@D@2@@std@@V?$shared_ptr@VShaderProgram@@@2@V?$_Uhash_compare@V?$basic_string@DU?$char_traits@D@std@@V?$allocator@D@2@@std@@U?$hash@V?$basic_string@DU?$char_traits@D@std@@V?$allocator@D@2@@std@@@2@U?$equal_to@V?$basic_string@DU?$char_traits@D@std@@V?$allocator@D@2@@std@@@2@@2@V?$allocator@U?$pair@$$CBV?$basic_string@DU?$char_traits@D@std@@V?$allocator@D@2@@std@@V?$shared_ptr@VShaderProgram@@@2@@std@@@2@$0A@@std@@@std@@QEAA@QEAV12@@Z 0000000140071060 f i ShaderManager.obj
 0002:0002f0c0       ??0_Iterator_base12@std@@QEAA@AEBU01@@Z 00000001400710c0 f i ShaderManager.obj
 0002:0002f140       ??0_Iterator_base12@std@@QEAA@XZ 0000000140071140 f i ShaderManager.obj
 0002:0002f1b0       ??0_Range_eraser@?$_Hash@V?$_Umap_traits@V?$basic_string@DU?$char_traits@D@std@@V?$allocator@D@2@@std@@V?$shared_ptr@VShaderProgram@@@2@V?$_Uhash_compare@V?$basic_string@DU?$char_traits@D@std@@V?$allocator@D@2@@std@@U?$hash@V?$basic_string@DU?$char_traits@D@std@@V?$allocator@D@2@@std@@@2@U?$equal_to@V?$basic_string@DU?$char_traits@D@std@@V?$allocator@D@2@@std@@@2@@2@V?$allocator@U?$pair@$$CBV?$basic_string@DU?$char_traits@D@std@@V?$allocator@D@2@@std@@V?$shared_ptr@VShaderProgram@@@2@@std@@@2@$0A@@std@@@std@@QEAA@AEAV?$list@U?$pair@$$CBV?$basic_string@DU?$char_traits@D@std@@V?$allocator@D@2@@std@@V?$shared_ptr@VShaderProgram@@@2@@std@@V?$allocator@U?$pair@$$CBV?$basic_string@DU?$char_traits@D@std@@V?$allocator@D@2@@std@@V?$shared_ptr@VShaderProgram@@@2@@std@@@2@@2@QEAU?$_List_node@U?$pair@$$CBV?$basic_string@DU?$char_traits@D@std@@V?$allocator@D@2@@std@@V?$shared_ptr@VShaderProgram@@@2@@std@@PEAX@2@@Z 00000001400711b0 f i ShaderManager.obj
 0002:0002f240       ??1?$_Alloc_construct_ptr@V?$allocator@U?$_List_node@U?$pair@$$CBV?$basic_string@DU?$char_traits@D@std@@V?$allocator@D@2@@std@@V?$shared_ptr@VShaderProgram@@@2@@std@@PEAX@std@@@std@@@std@@QEAA@XZ 0000000140071240 f i ShaderManager.obj
 0002:0002f2b0       ??1?$_Hash_vec@V?$allocator@V?$_List_unchecked_iterator@V?$_List_val@U?$_List_simple_types@U?$pair@$$CBV?$basic_string@DU?$char_traits@D@std@@V?$allocator@D@2@@std@@V?$shared_ptr@VShaderProgram@@@2@@std@@@std@@@std@@@std@@@std@@@std@@QEAA@XZ 00000001400712b0 f i ShaderManager.obj
 0002:0002f3c0       ??1?$_List_const_iterator@V?$_List_val@U?$_List_simple_types@U?$pair@$$CBV?$basic_string@DU?$char_traits@D@std@@V?$allocator@D@2@@std@@V?$shared_ptr@VShaderProgram@@@2@@std@@@std@@@std@@@std@@QEAA@XZ 00000001400713c0 f i ShaderManager.obj
 0002:0002f400       ??1?$_List_iterator@V?$_List_val@U?$_List_simple_types@U?$pair@$$CBV?$basic_string@DU?$char_traits@D@std@@V?$allocator@D@2@@std@@V?$shared_ptr@VShaderProgram@@@2@@std@@@std@@@std@@@std@@QEAA@XZ 0000000140071400 f i ShaderManager.obj
 0002:0002f440       ??1?$_List_node_emplace_op2@V?$allocator@U?$_List_node@U?$pair@$$CBV?$basic_string@DU?$char_traits@D@std@@V?$allocator@D@2@@std@@V?$shared_ptr@VShaderProgram@@@2@@std@@PEAX@std@@@std@@@std@@QEAA@XZ 0000000140071440 f i ShaderManager.obj
 0002:0002f4d0       ??1?$_List_unchecked_const_iterator@V?$_List_val@U?$_List_simple_types@U?$pair@$$CBV?$basic_string@DU?$char_traits@D@std@@V?$allocator@D@2@@std@@V?$shared_ptr@VShaderProgram@@@2@@std@@@std@@@std@@U_Iterator_base12@2@@std@@QEAA@XZ 00000001400714d0 f i ShaderManager.obj
 0002:0002f510       ??1?$_Ref_count_obj2@VShaderProgram@@@std@@UEAA@XZ 0000000140071510 f i ShaderManager.obj
 0002:0002f570       ??1?$_Uninitialized_backout@PEAV?$_List_unchecked_iterator@V?$_List_val@U?$_List_simple_types@U?$pair@$$CBV?$basic_string@DU?$char_traits@D@std@@V?$allocator@D@2@@std@@V?$shared_ptr@VShaderProgram@@@2@@std@@@std@@@std@@@std@@@std@@QEAA@XZ 0000000140071570 f i ShaderManager.obj
 0002:0002f5d0       ??1?$list@U?$pair@$$CBV?$basic_string@DU?$char_traits@D@std@@V?$allocator@D@2@@std@@V?$shared_ptr@VShaderProgram@@@2@@std@@V?$allocator@U?$pair@$$CBV?$basic_string@DU?$char_traits@D@std@@V?$allocator@D@2@@std@@V?$shared_ptr@VShaderProgram@@@2@@std@@@2@@std@@QEAA@XZ 00000001400715d0 f i ShaderManager.obj
 0002:0002f6c0       ??1?$pair@$$CBV?$basic_string@DU?$char_traits@D@std@@V?$allocator@D@2@@std@@V?$shared_ptr@VShaderProgram@@@2@@std@@QEAA@XZ 00000001400716c0 f i ShaderManager.obj
 0002:0002f710       ??1_Clear_guard@?$_Hash@V?$_Umap_traits@V?$basic_string@DU?$char_traits@D@std@@V?$allocator@D@2@@std@@V?$shared_ptr@VShaderProgram@@@2@V?$_Uhash_compare@V?$basic_string@DU?$char_traits@D@std@@V?$allocator@D@2@@std@@U?$hash@V?$basic_string@DU?$char_traits@D@std@@V?$allocator@D@2@@std@@@2@U?$equal_to@V?$basic_string@DU?$char_traits@D@std@@V?$allocator@D@2@@std@@@2@@2@V?$allocator@U?$pair@$$CBV?$basic_string@DU?$char_traits@D@std@@V?$allocator@D@2@@std@@V?$shared_ptr@VShaderProgram@@@2@@std@@@2@$0A@@std@@@std@@QEAA@XZ 0000000140071710 f i ShaderManager.obj
 0002:0002f770       ??1_Iterator_base12@std@@QEAA@XZ 0000000140071770 f i ShaderManager.obj
 0002:0002f7c0       ??1_Range_eraser@?$_Hash@V?$_Umap_traits@V?$basic_string@DU?$char_traits@D@std@@V?$allocator@D@2@@std@@V?$shared_ptr@VShaderProgram@@@2@V?$_Uhash_compare@V?$basic_string@DU?$char_traits@D@std@@V?$allocator@D@2@@std@@U?$hash@V?$basic_string@DU?$char_traits@D@std@@V?$allocator@D@2@@std@@@2@U?$equal_to@V?$basic_string@DU?$char_traits@D@std@@V?$allocator@D@2@@std@@@2@@2@V?$allocator@U?$pair@$$CBV?$basic_string@DU?$char_traits@D@std@@V?$allocator@D@2@@std@@V?$shared_ptr@VShaderProgram@@@2@@std@@@2@$0A@@std@@@std@@QEAA@XZ 00000001400717c0 f i ShaderManager.obj
 0002:0002f830       ??4_Iterator_base12@std@@QEAAAEAU01@AEBU01@@Z 0000000140071830 f i ShaderManager.obj
 0002:0002f890       ??8?$_List_const_iterator@V?$_List_val@U?$_List_simple_types@U?$pair@$$CBV?$basic_string@DU?$char_traits@D@std@@V?$allocator@D@2@@std@@V?$shared_ptr@VShaderProgram@@@2@@std@@@std@@@std@@@std@@QEBA_NAEBV01@@Z 0000000140071890 f i ShaderManager.obj
 0002:0002f9e0       ??8?$_List_unchecked_const_iterator@V?$_List_val@U?$_List_simple_types@U?$pair@$$CBV?$basic_string@DU?$char_traits@D@std@@V?$allocator@D@2@@std@@V?$shared_ptr@VShaderProgram@@@2@@std@@@std@@@std@@U_Iterator_base0@2@@std@@QEBA_NAEBV01@@Z 00000001400719e0 f i ShaderManager.obj
 0002:0002fa60       ??9?$_List_const_iterator@V?$_List_val@U?$_List_simple_types@U?$pair@$$CBV?$basic_string@DU?$char_traits@D@std@@V?$allocator@D@2@@std@@V?$shared_ptr@VShaderProgram@@@2@@std@@@std@@@std@@@std@@QEBA_NAEBV01@@Z 0000000140071a60 f i ShaderManager.obj
 0002:0002fae0       ??9?$_List_unchecked_const_iterator@V?$_List_val@U?$_List_simple_types@U?$pair@$$CBV?$basic_string@DU?$char_traits@D@std@@V?$allocator@D@2@@std@@V?$shared_ptr@VShaderProgram@@@2@@std@@@std@@@std@@U_Iterator_base0@2@@std@@QEBA_NAEBV01@@Z 0000000140071ae0 f i ShaderManager.obj
 0002:0002fb60       ??A?$unordered_map@V?$basic_string@DU?$char_traits@D@std@@V?$allocator@D@2@@std@@V?$shared_ptr@VShaderProgram@@@2@U?$hash@V?$basic_string@DU?$char_traits@D@std@@V?$allocator@D@2@@std@@@2@U?$equal_to@V?$basic_string@DU?$char_traits@D@std@@V?$allocator@D@2@@std@@@2@V?$allocator@U?$pair@$$CBV?$basic_string@DU?$char_traits@D@std@@V?$allocator@D@2@@std@@V?$shared_ptr@VShaderProgram@@@2@@std@@@2@@std@@QEAAAEAV?$shared_ptr@VShaderProgram@@@1@AEBV?$basic_string@DU?$char_traits@D@std@@V?$allocator@D@2@@1@@Z 0000000140071b60 f i ShaderManager.obj
 0002:0002fbd0       ??C?$_List_iterator@V?$_List_val@U?$_List_simple_types@U?$pair@$$CBV?$basic_string@DU?$char_traits@D@std@@V?$allocator@D@2@@std@@V?$shared_ptr@VShaderProgram@@@2@@std@@@std@@@std@@@std@@QEBAPEAU?$pair@$$CBV?$basic_string@DU?$char_traits@D@std@@V?$allocator@D@2@@std@@V?$shared_ptr@VShaderProgram@@@2@@1@XZ 0000000140071bd0 f i ShaderManager.obj
 0002:0002fc20       ??D?$_List_const_iterator@V?$_List_val@U?$_List_simple_types@U?$pair@$$CBV?$basic_string@DU?$char_traits@D@std@@V?$allocator@D@2@@std@@V?$shared_ptr@VShaderProgram@@@2@@std@@@std@@@std@@@std@@QEBAAEBU?$pair@$$CBV?$basic_string@DU?$char_traits@D@std@@V?$allocator@D@2@@std@@V?$shared_ptr@VShaderProgram@@@2@@1@XZ 0000000140071c20 f i ShaderManager.obj
 0002:0002fdd0       ??D?$_List_iterator@V?$_List_val@U?$_List_simple_types@U?$pair@$$CBV?$basic_string@DU?$char_traits@D@std@@V?$allocator@D@2@@std@@V?$shared_ptr@VShaderProgram@@@2@@std@@@std@@@std@@@std@@QEBAAEAU?$pair@$$CBV?$basic_string@DU?$char_traits@D@std@@V?$allocator@D@2@@std@@V?$shared_ptr@VShaderProgram@@@2@@1@XZ 0000000140071dd0 f i ShaderManager.obj
 0002:0002fe20       ??D?$_List_unchecked_const_iterator@V?$_List_val@U?$_List_simple_types@U?$pair@$$CBV?$basic_string@DU?$char_traits@D@std@@V?$allocator@D@2@@std@@V?$shared_ptr@VShaderProgram@@@2@@std@@@std@@@std@@U_Iterator_base0@2@@std@@QEBAAEBU?$pair@$$CBV?$basic_string@DU?$char_traits@D@std@@V?$allocator@D@2@@std@@V?$shared_ptr@VShaderProgram@@@2@@1@XZ 0000000140071e20 f i ShaderManager.obj
 0002:0002fe70       ??D?$_List_unchecked_iterator@V?$_List_val@U?$_List_simple_types@U?$pair@$$CBV?$basic_string@DU?$char_traits@D@std@@V?$allocator@D@2@@std@@V?$shared_ptr@VShaderProgram@@@2@@std@@@std@@@std@@@std@@QEBAAEAU?$pair@$$CBV?$basic_string@DU?$char_traits@D@std@@V?$allocator@D@2@@std@@V?$shared_ptr@VShaderProgram@@@2@@1@XZ 0000000140071e70 f i ShaderManager.obj
 0002:0002fec0       ??E?$_List_const_iterator@V?$_List_val@U?$_List_simple_types@U?$pair@$$CBV?$basic_string@DU?$char_traits@D@std@@V?$allocator@D@2@@std@@V?$shared_ptr@VShaderProgram@@@2@@std@@@std@@@std@@@std@@QEAAAEAV01@XZ 0000000140071ec0 f i ShaderManager.obj
 0002:00030080       ??E?$_List_iterator@V?$_List_val@U?$_List_simple_types@U?$pair@$$CBV?$basic_string@DU?$char_traits@D@std@@V?$allocator@D@2@@std@@V?$shared_ptr@VShaderProgram@@@2@@std@@@std@@@std@@@std@@QEAA?AV01@H@Z 0000000140072080 f i ShaderManager.obj
 0002:00030150       ??E?$_List_unchecked_const_iterator@V?$_List_val@U?$_List_simple_types@U?$pair@$$CBV?$basic_string@DU?$char_traits@D@std@@V?$allocator@D@2@@std@@V?$shared_ptr@VShaderProgram@@@2@@std@@@std@@@std@@U_Iterator_base0@2@@std@@QEAAAEAV01@XZ 0000000140072150 f i ShaderManager.obj
 0002:000301b0       ??E?$_List_unchecked_iterator@V?$_List_val@U?$_List_simple_types@U?$pair@$$CBV?$basic_string@DU?$char_traits@D@std@@V?$allocator@D@2@@std@@V?$shared_ptr@VShaderProgram@@@2@@std@@@std@@@std@@@std@@QEAAAEAV01@XZ 00000001400721b0 f i ShaderManager.obj
 0002:00030200       ??F?$_List_unchecked_const_iterator@V?$_List_val@U?$_List_simple_types@U?$pair@$$CBV?$basic_string@DU?$char_traits@D@std@@V?$allocator@D@2@@std@@V?$shared_ptr@VShaderProgram@@@2@@std@@@std@@@std@@U_Iterator_base0@2@@std@@QEAAAEAV01@XZ 0000000140072200 f i ShaderManager.obj
 0002:00030260       ??R?$_Conditionally_enabled_hash@V?$basic_string@DU?$char_traits@D@std@@V?$allocator@D@2@@std@@$00@std@@QEBA_KAEBV?$basic_string@DU?$char_traits@D@std@@V?$allocator@D@2@@1@@Z 0000000140072260 f i ShaderManager.obj
 0002:000302b0       ??R?$equal_to@V?$basic_string@DU?$char_traits@D@std@@V?$allocator@D@2@@std@@@std@@QEBA_NAEBV?$basic_string@DU?$char_traits@D@std@@V?$allocator@D@2@@1@0@Z 00000001400722b0 f i ShaderManager.obj
 0002:00030310       ??_E?$_Ref_count_obj2@VShaderProgram@@@std@@UEAAPEAXI@Z 0000000140072310 f i ShaderManager.obj
 0002:00030310       ??_G?$_Ref_count_obj2@VShaderProgram@@@std@@UEAAPEAXI@Z 0000000140072310 f i ShaderManager.obj
 0002:00030380       ??_G?$pair@$$CBV?$basic_string@DU?$char_traits@D@std@@V?$allocator@D@2@@std@@V?$shared_ptr@VShaderProgram@@@2@@std@@QEAAPEAXI@Z 0000000140072380 f i ShaderManager.obj
 0002:000303f0       ??_GShaderProgram@@QEAAPEAXI@Z 00000001400723f0 f i ShaderManager.obj
 0002:00030460       ?_Adopt@_Iterator_base0@std@@QEAAXPEBX@Z 0000000140072460 f i ShaderManager.obj
 0002:000304a0       ?_Adopt@_Iterator_base12@std@@QEAAXPEBU_Container_base12@2@@Z 00000001400724a0 f i ShaderManager.obj
 0002:00030500       ?_Adopt_locked@_Iterator_base12@std@@AEAAXPEBU_Container_base12@2@@Z 0000000140072500 f i ShaderManager.obj
 0002:000305d0       ?_Adopt_unlocked@_Iterator_base12@std@@AEAAXPEBU_Container_base12@2@@Z 00000001400725d0 f i ShaderManager.obj
 0002:000306b0       ?_Alloc_sentinel_and_proxy@?$list@U?$pair@$$CBV?$basic_string@DU?$char_traits@D@std@@V?$allocator@D@2@@std@@V?$shared_ptr@VShaderProgram@@@2@@std@@V?$allocator@U?$pair@$$CBV?$basic_string@DU?$char_traits@D@std@@V?$allocator@D@2@@std@@V?$shared_ptr@VShaderProgram@@@2@@std@@@2@@std@@AEAAXXZ 00000001400726b0 f i ShaderManager.obj
 0002:00030830       ?_Allocate@?$_Alloc_construct_ptr@V?$allocator@U?$_List_node@U?$pair@$$CBV?$basic_string@DU?$char_traits@D@std@@V?$allocator@D@2@@std@@V?$shared_ptr@VShaderProgram@@@2@@std@@PEAX@std@@@std@@@std@@QEAAXXZ 0000000140072830 f i ShaderManager.obj
 0002:000308a0       ?_Assign_grow@?$_Hash_vec@V?$allocator@V?$_List_unchecked_iterator@V?$_List_val@U?$_List_simple_types@U?$pair@$$CBV?$basic_string@DU?$char_traits@D@std@@V?$allocator@D@2@@std@@V?$shared_ptr@VShaderProgram@@@2@@std@@@std@@@std@@@std@@@std@@@std@@QEAAX_KV?$_List_unchecked_iterator@V?$_List_val@U?$_List_simple_types@U?$pair@$$CBV?$basic_string@DU?$char_traits@D@std@@V?$allocator@D@2@@std@@V?$shared_ptr@VShaderProgram@@@2@@std@@@std@@@std@@@2@@Z 00000001400728a0 f i ShaderManager.obj
 0002:00030a50       ?_Assign_locked@_Iterator_base12@std@@AEAAXAEBU12@@Z 0000000140072a50 f i ShaderManager.obj
 0002:00030b20       ?_Assign_unlocked@_Iterator_base12@std@@AEAAXAEBU12@@Z 0000000140072b20 f i ShaderManager.obj
 0002:00030bc0       ?_Bump_erased@_Range_eraser@?$_Hash@V?$_Umap_traits@V?$basic_string@DU?$char_traits@D@std@@V?$allocator@D@2@@std@@V?$shared_ptr@VShaderProgram@@@2@V?$_Uhash_compare@V?$basic_string@DU?$char_traits@D@std@@V?$allocator@D@2@@std@@U?$hash@V?$basic_string@DU?$char_traits@D@std@@V?$allocator@D@2@@std@@@2@U?$equal_to@V?$basic_string@DU?$char_traits@D@std@@V?$allocator@D@2@@std@@@2@@2@V?$allocator@U?$pair@$$CBV?$basic_string@DU?$char_traits@D@std@@V?$allocator@D@2@@std@@V?$shared_ptr@VShaderProgram@@@2@@std@@@2@$0A@@std@@@std@@QEAAXXZ 0000000140072bc0 f i ShaderManager.obj
 0002:00030c20       ?_Ceiling_of_log_2@std@@YAK_K@Z 0000000140072c20 f i ShaderManager.obj
 0002:00030c70       ?_Check_max_size@?$_Hash@V?$_Umap_traits@V?$basic_string@DU?$char_traits@D@std@@V?$allocator@D@2@@std@@V?$shared_ptr@VShaderProgram@@@2@V?$_Uhash_compare@V?$basic_string@DU?$char_traits@D@std@@V?$allocator@D@2@@std@@U?$hash@V?$basic_string@DU?$char_traits@D@std@@V?$allocator@D@2@@std@@@2@U?$equal_to@V?$basic_string@DU?$char_traits@D@std@@V?$allocator@D@2@@std@@@2@@2@V?$allocator@U?$pair@$$CBV?$basic_string@DU?$char_traits@D@std@@V?$allocator@D@2@@std@@V?$shared_ptr@VShaderProgram@@@2@@std@@@2@$0A@@std@@@std@@IEBAXXZ 0000000140072c70 f i ShaderManager.obj
 0002:00030cf0       ?_Check_rehash_required_1@?$_Hash@V?$_Umap_traits@V?$basic_string@DU?$char_traits@D@std@@V?$allocator@D@2@@std@@V?$shared_ptr@VShaderProgram@@@2@V?$_Uhash_compare@V?$basic_string@DU?$char_traits@D@std@@V?$allocator@D@2@@std@@U?$hash@V?$basic_string@DU?$char_traits@D@std@@V?$allocator@D@2@@std@@@2@U?$equal_to@V?$basic_string@DU?$char_traits@D@std@@V?$allocator@D@2@@std@@@2@@2@V?$allocator@U?$pair@$$CBV?$basic_string@DU?$char_traits@D@std@@V?$allocator@D@2@@std@@V?$shared_ptr@VShaderProgram@@@2@@std@@@2@$0A@@std@@@std@@IEBA_NXZ 0000000140072cf0 f i ShaderManager.obj
 0002:00030e30       ?_Delete_this@?$_Ref_count_obj2@VShaderProgram@@@std@@EEAAXXZ 0000000140072e30 f i ShaderManager.obj
 0002:00030ec0       ?_Desired_grow_bucket_count@?$_Hash@V?$_Umap_traits@V?$basic_string@DU?$char_traits@D@std@@V?$allocator@D@2@@std@@V?$shared_ptr@VShaderProgram@@@2@V?$_Uhash_compare@V?$basic_string@DU?$char_traits@D@std@@V?$allocator@D@2@@std@@U?$hash@V?$basic_string@DU?$char_traits@D@std@@V?$allocator@D@2@@std@@@2@U?$equal_to@V?$basic_string@DU?$char_traits@D@std@@V?$allocator@D@2@@std@@@2@@2@V?$allocator@U?$pair@$$CBV?$basic_string@DU?$char_traits@D@std@@V?$allocator@D@2@@std@@V?$shared_ptr@VShaderProgram@@@2@@std@@@2@$0A@@std@@@std@@IEBA_K_K@Z 0000000140072ec0 f i ShaderManager.obj
 0002:00030fa0       ?_Destroy@?$_Ref_count_obj2@VShaderProgram@@@std@@EEAAXXZ 0000000140072fa0 f i ShaderManager.obj
 0002:00030ff0       ?_Do_hash@?$hash@V?$basic_string@DU?$char_traits@D@std@@V?$allocator@D@2@@std@@@std@@SA_KAEBV?$basic_string@DU?$char_traits@D@std@@V?$allocator@D@2@@2@@Z 0000000140072ff0 f i ShaderManager.obj
 0002:00031070       ?_Equal@?$basic_string@DU?$char_traits@D@std@@V?$allocator@D@2@@std@@QEBA_NAEBV12@@Z 0000000140073070 f i ShaderManager.obj
 0002:00031110       ?_Floor_of_log_2@std@@YAK_K@Z 0000000140073110 f i ShaderManager.obj
 0002:000311d0       ?_Fnv1a_append_bytes@std@@YA_K_KQEBE_K@Z 00000001400731d0 f i ShaderManager.obj
 0002:000312a0       ?_Forced_rehash@?$_Hash@V?$_Umap_traits@V?$basic_string@DU?$char_traits@D@std@@V?$allocator@D@2@@std@@V?$shared_ptr@VShaderProgram@@@2@V?$_Uhash_compare@V?$basic_string@DU?$char_traits@D@std@@V?$allocator@D@2@@std@@U?$hash@V?$basic_string@DU?$char_traits@D@std@@V?$allocator@D@2@@std@@@2@U?$equal_to@V?$basic_string@DU?$char_traits@D@std@@V?$allocator@D@2@@std@@@2@@2@V?$allocator@U?$pair@$$CBV?$basic_string@DU?$char_traits@D@std@@V?$allocator@D@2@@std@@V?$shared_ptr@VShaderProgram@@@2@@std@@@2@$0A@@std@@@std@@IEAAX_K@Z 00000001400732a0 f i ShaderManager.obj
 0002:000317c0       ?_Get_first@?$_Compressed_pair@U?$equal_to@V?$basic_string@DU?$char_traits@D@std@@V?$allocator@D@2@@std@@@std@@M$00@std@@QEBAAEBU?$equal_to@V?$basic_string@DU?$char_traits@D@std@@V?$allocator@D@2@@std@@@2@XZ 00000001400737c0 f i ShaderManager.obj
 0002:00031800       ?_Get_first@?$_Compressed_pair@U?$hash@V?$basic_string@DU?$char_traits@D@std@@V?$allocator@D@2@@std@@@std@@V?$_Compressed_pair@U?$equal_to@V?$basic_string@DU?$char_traits@D@std@@V?$allocator@D@2@@std@@@std@@M$00@2@$00@std@@QEBAAEBU?$hash@V?$basic_string@DU?$char_traits@D@std@@V?$allocator@D@2@@std@@@2@XZ 0000000140073800 f i ShaderManager.obj
 0002:00031840       ?_Get_first@?$_Compressed_pair@V?$allocator@U?$_List_node@U?$pair@$$CBV?$basic_string@DU?$char_traits@D@std@@V?$allocator@D@2@@std@@V?$shared_ptr@VShaderProgram@@@2@@std@@PEAX@std@@@std@@V?$_List_val@U?$_List_simple_types@U?$pair@$$CBV?$basic_string@DU?$char_traits@D@std@@V?$allocator@D@2@@std@@V?$shared_ptr@VShaderProgram@@@2@@std@@@std@@@2@$00@std@@QEAAAEAV?$allocator@U?$_List_node@U?$pair@$$CBV?$basic_string@DU?$char_traits@D@std@@V?$allocator@D@2@@std@@V?$shared_ptr@VShaderProgram@@@2@@std@@PEAX@std@@@2@XZ 0000000140073840 f i ShaderManager.obj
 0002:00031880       ?_Get_first@?$_Compressed_pair@V?$allocator@U?$_List_node@U?$pair@$$CBV?$basic_string@DU?$char_traits@D@std@@V?$allocator@D@2@@std@@V?$shared_ptr@VShaderProgram@@@2@@std@@PEAX@std@@@std@@V?$_List_val@U?$_List_simple_types@U?$pair@$$CBV?$basic_string@DU?$char_traits@D@std@@V?$allocator@D@2@@std@@V?$shared_ptr@VShaderProgram@@@2@@std@@@std@@@2@$00@std@@QEBAAEBV?$allocator@U?$_List_node@U?$pair@$$CBV?$basic_string@DU?$char_traits@D@std@@V?$allocator@D@2@@std@@V?$shared_ptr@VShaderProgram@@@2@@std@@PEAX@std@@@2@XZ 0000000140073880 f i ShaderManager.obj
 0002:000318c0       ?_Get_first@?$_Compressed_pair@V?$allocator@V?$_List_unchecked_iterator@V?$_List_val@U?$_List_simple_types@U?$pair@$$CBV?$basic_string@DU?$char_traits@D@std@@V?$allocator@D@2@@std@@V?$shared_ptr@VShaderProgram@@@2@@std@@@std@@@std@@@std@@@std@@V?$_Vector_val@U?$_Simple_types@V?$_List_unchecked_iterator@V?$_List_val@U?$_List_simple_types@U?$pair@$$CBV?$basic_string@DU?$char_traits@D@std@@V?$allocator@D@2@@std@@V?$shared_ptr@VShaderProgram@@@2@@std@@@std@@@std@@@std@@@std@@@2@$00@std@@QEAAAEAV?$allocator@V?$_List_unchecked_iterator@V?$_List_val@U?$_List_simple_types@U?$pair@$$CBV?$basic_string@DU?$char_traits@D@std@@V?$allocator@D@2@@std@@V?$shared_ptr@VShaderProgram@@@2@@std@@@std@@@std@@@std@@@2@XZ 00000001400738c0 f i ShaderManager.obj
 0002:00031900       ?_Get_first@?$_Compressed_pair@V?$allocator@V?$_List_unchecked_iterator@V?$_List_val@U?$_List_simple_types@U?$pair@$$CBV?$basic_string@DU?$char_traits@D@std@@V?$allocator@D@2@@std@@V?$shared_ptr@VShaderProgram@@@2@@std@@@std@@@std@@@std@@@std@@V?$_Vector_val@U?$_Simple_types@V?$_List_unchecked_iterator@V?$_List_val@U?$_List_simple_types@U?$pair@$$CBV?$basic_string@DU?$char_traits@D@std@@V?$allocator@D@2@@std@@V?$shared_ptr@VShaderProgram@@@2@@std@@@std@@@std@@@std@@@std@@@2@$00@std@@QEBAAEBV?$allocator@V?$_List_unchecked_iterator@V?$_List_val@U?$_List_simple_types@U?$pair@$$CBV?$basic_string@DU?$char_traits@D@std@@V?$allocator@D@2@@std@@V?$shared_ptr@VShaderProgram@@@2@@std@@@std@@@std@@@std@@@2@XZ 0000000140073900 f i ShaderManager.obj
 0002:00031940       ?_Get_max_bucket_size@?$_Uhash_compare@V?$basic_string@DU?$char_traits@D@std@@V?$allocator@D@2@@std@@U?$hash@V?$basic_string@DU?$char_traits@D@std@@V?$allocator@D@2@@std@@@2@U?$equal_to@V?$basic_string@DU?$char_traits@D@std@@V?$allocator@D@2@@std@@@2@@std@@QEAAAEAMXZ 0000000140073940 f i ShaderManager.obj
 0002:00031980       ?_Get_max_bucket_size@?$_Uhash_compare@V?$basic_string@DU?$char_traits@D@std@@V?$allocator@D@2@@std@@U?$hash@V?$basic_string@DU?$char_traits@D@std@@V?$allocator@D@2@@std@@@2@U?$equal_to@V?$basic_string@DU?$char_traits@D@std@@V?$allocator@D@2@@std@@@2@@std@@QEBAAEBMXZ 0000000140073980 f i ShaderManager.obj
 0002:000319c0       ?_Getal@?$list@U?$pair@$$CBV?$basic_string@DU?$char_traits@D@std@@V?$allocator@D@2@@std@@V?$shared_ptr@VShaderProgram@@@2@@std@@V?$allocator@U?$pair@$$CBV?$basic_string@DU?$char_traits@D@std@@V?$allocator@D@2@@std@@V?$shared_ptr@VShaderProgram@@@2@@std@@@2@@std@@AEAAAEAV?$allocator@U?$_List_node@U?$pair@$$CBV?$basic_string@DU?$char_traits@D@std@@V?$allocator@D@2@@std@@V?$shared_ptr@VShaderProgram@@@2@@std@@PEAX@std@@@2@XZ 00000001400739c0 f i ShaderManager.obj
 0002:00031a10       ?_Getal@?$list@U?$pair@$$CBV?$basic_string@DU?$char_traits@D@std@@V?$allocator@D@2@@std@@V?$shared_ptr@VShaderProgram@@@2@@std@@V?$allocator@U?$pair@$$CBV?$basic_string@DU?$char_traits@D@std@@V?$allocator@D@2@@std@@V?$shared_ptr@VShaderProgram@@@2@@std@@@2@@std@@AEBAAEBV?$allocator@U?$_List_node@U?$pair@$$CBV?$basic_string@DU?$char_traits@D@std@@V?$allocator@D@2@@std@@V?$shared_ptr@VShaderProgram@@@2@@std@@PEAX@std@@@2@XZ 0000000140073a10 f i ShaderManager.obj
 0002:00031a60       ?_Getcont@_Iterator_base12@std@@QEBAPEBU_Container_base12@2@XZ 0000000140073a60 f i ShaderManager.obj
 0002:00031ae0       ?_Incref@?$_Ptr_base@VShaderProgram@@@std@@IEBAXXZ 0000000140073ae0 f i ShaderManager.obj
 0002:00031b40       ?_Incref@_Ref_count_base@std@@QEAAXXZ 0000000140073b40 f i ShaderManager.obj
 0002:00031b90       ?_Insert_new_node_before@?$_Hash@V?$_Umap_traits@V?$basic_string@DU?$char_traits@D@std@@V?$allocator@D@2@@std@@V?$shared_ptr@VShaderProgram@@@2@V?$_Uhash_compare@V?$basic_string@DU?$char_traits@D@std@@V?$allocator@D@2@@std@@U?$hash@V?$basic_string@DU?$char_traits@D@std@@V?$allocator@D@2@@std@@@2@U?$equal_to@V?$basic_string@DU?$char_traits@D@std@@V?$allocator@D@2@@std@@@2@@2@V?$allocator@U?$pair@$$CBV?$basic_string@DU?$char_traits@D@std@@V?$allocator@D@2@@std@@V?$shared_ptr@VShaderProgram@@@2@@std@@@2@$0A@@std@@@std@@IEAAPEAU?$_List_node@U?$pair@$$CBV?$basic_string@DU?$char_traits@D@std@@V?$allocator@D@2@@std@@V?$shared_ptr@VShaderProgram@@@2@@std@@PEAX@2@_KQEAU32@1@Z 0000000140073b90 f i ShaderManager.obj
 0002:00031e00       ?_Make_iter@?$list@U?$pair@$$CBV?$basic_string@DU?$char_traits@D@std@@V?$allocator@D@2@@std@@V?$shared_ptr@VShaderProgram@@@2@@std@@V?$allocator@U?$pair@$$CBV?$basic_string@DU?$char_traits@D@std@@V?$allocator@D@2@@std@@V?$shared_ptr@VShaderProgram@@@2@@std@@@2@@std@@QEBA?AV?$_List_iterator@V?$_List_val@U?$_List_simple_types@U?$pair@$$CBV?$basic_string@DU?$char_traits@D@std@@V?$allocator@D@2@@std@@V?$shared_ptr@VShaderProgram@@@2@@std@@@std@@@std@@@2@PEAU?$_List_node@U?$pair@$$CBV?$basic_string@DU?$char_traits@D@std@@V?$allocator@D@2@@std@@V?$shared_ptr@VShaderProgram@@@2@@std@@PEAX@2@@Z 0000000140073e00 f i ShaderManager.obj
 0002:00031e80       ?_Max_bucket_size@?$_Hash@V?$_Umap_traits@V?$basic_string@DU?$char_traits@D@std@@V?$allocator@D@2@@std@@V?$shared_ptr@VShaderProgram@@@2@V?$_Uhash_compare@V?$basic_string@DU?$char_traits@D@std@@V?$allocator@D@2@@std@@U?$hash@V?$basic_string@DU?$char_traits@D@std@@V?$allocator@D@2@@std@@@2@U?$equal_to@V?$basic_string@DU?$char_traits@D@std@@V?$allocator@D@2@@std@@@2@@2@V?$allocator@U?$pair@$$CBV?$basic_string@DU?$char_traits@D@std@@V?$allocator@D@2@@std@@V?$shared_ptr@VShaderProgram@@@2@@std@@@2@$0A@@std@@@std@@IEAAAEAMXZ 0000000140073e80 f i ShaderManager.obj
 0002:00031ed0       ?_Max_bucket_size@?$_Hash@V?$_Umap_traits@V?$basic_string@DU?$char_traits@D@std@@V?$allocator@D@2@@std@@V?$shared_ptr@VShaderProgram@@@2@V?$_Uhash_compare@V?$basic_string@DU?$char_traits@D@std@@V?$allocator@D@2@@std@@U?$hash@V?$basic_string@DU?$char_traits@D@std@@V?$allocator@D@2@@std@@@2@U?$equal_to@V?$basic_string@DU?$char_traits@D@std@@V?$allocator@D@2@@std@@@2@@2@V?$allocator@U?$pair@$$CBV?$basic_string@DU?$char_traits@D@std@@V?$allocator@D@2@@std@@V?$shared_ptr@VShaderProgram@@@2@@std@@@2@$0A@@std@@@std@@IEBAAEBMXZ 0000000140073ed0 f i ShaderManager.obj
 0002:00031f20       ?_Min_load_factor_buckets@?$_Hash@V?$_Umap_traits@V?$basic_string@DU?$char_traits@D@std@@V?$allocator@D@2@@std@@V?$shared_ptr@VShaderProgram@@@2@V?$_Uhash_compare@V?$basic_string@DU?$char_traits@D@std@@V?$allocator@D@2@@std@@U?$hash@V?$basic_string@DU?$char_traits@D@std@@V?$allocator@D@2@@std@@@2@U?$equal_to@V?$basic_string@DU?$char_traits@D@std@@V?$allocator@D@2@@std@@@2@@2@V?$allocator@U?$pair@$$CBV?$basic_string@DU?$char_traits@D@std@@V?$allocator@D@2@@std@@V?$shared_ptr@VShaderProgram@@@2@@std@@@2@$0A@@std@@@std@@IEBA_K_K@Z 0000000140073f20 f i ShaderManager.obj
 0002:00032010       ?_Orphan_me_locked_v3@_Iterator_base12@std@@AEAAXXZ 0000000140074010 f i ShaderManager.obj
 0002:000320e0       ?_Orphan_me_unlocked_v3@_Iterator_base12@std@@AEAAXXZ 00000001400740e0 f i ShaderManager.obj
 0002:00032240       ?_Orphan_non_end@?$_List_val@U?$_List_simple_types@U?$pair@$$CBV?$basic_string@DU?$char_traits@D@std@@V?$allocator@D@2@@std@@V?$shared_ptr@VShaderProgram@@@2@@std@@@std@@@std@@QEAAXXZ 0000000140074240 f i ShaderManager.obj
 0002:00032390       ?_Rehash_for_1@?$_Hash@V?$_Umap_traits@V?$basic_string@DU?$char_traits@D@std@@V?$allocator@D@2@@std@@V?$shared_ptr@VShaderProgram@@@2@V?$_Uhash_compare@V?$basic_string@DU?$char_traits@D@std@@V?$allocator@D@2@@std@@U?$hash@V?$basic_string@DU?$char_traits@D@std@@V?$allocator@D@2@@std@@@2@U?$equal_to@V?$basic_string@DU?$char_traits@D@std@@V?$allocator@D@2@@std@@@2@@2@V?$allocator@U?$pair@$$CBV?$basic_string@DU?$char_traits@D@std@@V?$allocator@D@2@@std@@V?$shared_ptr@VShaderProgram@@@2@@std@@@2@$0A@@std@@@std@@IEAAXXZ 0000000140074390 f i ShaderManager.obj
 0002:00032410       ?_Release@?$_Alloc_construct_ptr@V?$allocator@U?$_List_node@U?$pair@$$CBV?$basic_string@DU?$char_traits@D@std@@V?$allocator@D@2@@std@@V?$shared_ptr@VShaderProgram@@@2@@std@@PEAX@std@@@std@@@std@@QEAAPEAU?$_List_node@U?$pair@$$CBV?$basic_string@DU?$char_traits@D@std@@V?$allocator@D@2@@std@@V?$shared_ptr@VShaderProgram@@@2@@std@@PEAX@2@XZ 0000000140074410 f i ShaderManager.obj
 0002:00032480       ?_Release@?$_Uninitialized_backout@PEAV?$_List_unchecked_iterator@V?$_List_val@U?$_List_simple_types@U?$pair@$$CBV?$basic_string@DU?$char_traits@D@std@@V?$allocator@D@2@@std@@V?$shared_ptr@VShaderProgram@@@2@@std@@@std@@@std@@@std@@@std@@QEAAPEAV?$_List_unchecked_iterator@V?$_List_val@U?$_List_simple_types@U?$pair@$$CBV?$basic_string@DU?$char_traits@D@std@@V?$allocator@D@2@@std@@V?$shared_ptr@VShaderProgram@@@2@@std@@@std@@@std@@@2@XZ 0000000140074480 f i ShaderManager.obj
 0002:000324e0       ?_Tidy@?$_Hash_vec@V?$allocator@V?$_List_unchecked_iterator@V?$_List_val@U?$_List_simple_types@U?$pair@$$CBV?$basic_string@DU?$char_traits@D@std@@V?$allocator@D@2@@std@@V?$shared_ptr@VShaderProgram@@@2@@std@@@std@@@std@@@std@@@std@@@std@@QEAAXXZ 00000001400744e0 f i ShaderManager.obj
 0002:000325e0       ?_Tidy@?$list@U?$pair@$$CBV?$basic_string@DU?$char_traits@D@std@@V?$allocator@D@2@@std@@V?$shared_ptr@VShaderProgram@@@2@@std@@V?$allocator@U?$pair@$$CBV?$basic_string@DU?$char_traits@D@std@@V?$allocator@D@2@@std@@V?$shared_ptr@VShaderProgram@@@2@@std@@@2@@std@@AEAAXXZ 00000001400745e0 f i ShaderManager.obj
 0002:00032670       ?_Unchecked_begin@?$_Hash@V?$_Umap_traits@V?$basic_string@DU?$char_traits@D@std@@V?$allocator@D@2@@std@@V?$shared_ptr@VShaderProgram@@@2@V?$_Uhash_compare@V?$basic_string@DU?$char_traits@D@std@@V?$allocator@D@2@@std@@U?$hash@V?$basic_string@DU?$char_traits@D@std@@V?$allocator@D@2@@std@@@2@U?$equal_to@V?$basic_string@DU?$char_traits@D@std@@V?$allocator@D@2@@std@@@2@@2@V?$allocator@U?$pair@$$CBV?$basic_string@DU?$char_traits@D@std@@V?$allocator@D@2@@std@@V?$shared_ptr@VShaderProgram@@@2@@std@@@2@$0A@@std@@@std@@QEAA?AV?$_List_unchecked_iterator@V?$_List_val@U?$_List_simple_types@U?$pair@$$CBV?$basic_string@DU?$char_traits@D@std@@V?$allocator@D@2@@std@@V?$shared_ptr@VShaderProgram@@@2@@std@@@std@@@std@@@2@XZ 0000000140074670 f i ShaderManager.obj
 0002:000326e0       ?_Unchecked_begin@?$list@U?$pair@$$CBV?$basic_string@DU?$char_traits@D@std@@V?$allocator@D@2@@std@@V?$shared_ptr@VShaderProgram@@@2@@std@@V?$allocator@U?$pair@$$CBV?$basic_string@DU?$char_traits@D@std@@V?$allocator@D@2@@std@@V?$shared_ptr@VShaderProgram@@@2@@std@@@2@@std@@QEAA?AV?$_List_unchecked_iterator@V?$_List_val@U?$_List_simple_types@U?$pair@$$CBV?$basic_string@DU?$char_traits@D@std@@V?$allocator@D@2@@std@@V?$shared_ptr@VShaderProgram@@@2@@std@@@std@@@std@@@2@XZ 00000001400746e0 f i ShaderManager.obj
 0002:00032750       ?_Unchecked_end@?$_Hash@V?$_Umap_traits@V?$basic_string@DU?$char_traits@D@std@@V?$allocator@D@2@@std@@V?$shared_ptr@VShaderProgram@@@2@V?$_Uhash_compare@V?$basic_string@DU?$char_traits@D@std@@V?$allocator@D@2@@std@@U?$hash@V?$basic_string@DU?$char_traits@D@std@@V?$allocator@D@2@@std@@@2@U?$equal_to@V?$basic_string@DU?$char_traits@D@std@@V?$allocator@D@2@@std@@@2@@2@V?$allocator@U?$pair@$$CBV?$basic_string@DU?$char_traits@D@std@@V?$allocator@D@2@@std@@V?$shared_ptr@VShaderProgram@@@2@@std@@@2@$0A@@std@@@std@@QEAA?AV?$_List_unchecked_iterator@V?$_List_val@U?$_List_simple_types@U?$pair@$$CBV?$basic_string@DU?$char_traits@D@std@@V?$allocator@D@2@@std@@V?$shared_ptr@VShaderProgram@@@2@@std@@@std@@@std@@@2@XZ 0000000140074750 f i ShaderManager.obj
 0002:000327c0       ?_Unchecked_end@?$list@U?$pair@$$CBV?$basic_string@DU?$char_traits@D@std@@V?$allocator@D@2@@std@@V?$shared_ptr@VShaderProgram@@@2@@std@@V?$allocator@U?$pair@$$CBV?$basic_string@DU?$char_traits@D@std@@V?$allocator@D@2@@std@@V?$shared_ptr@VShaderProgram@@@2@@std@@@2@@std@@QEAA?AV?$_List_unchecked_iterator@V?$_List_val@U?$_List_simple_types@U?$pair@$$CBV?$basic_string@DU?$char_traits@D@std@@V?$allocator@D@2@@std@@V?$shared_ptr@VShaderProgram@@@2@@std@@@std@@@std@@@2@XZ 00000001400747c0 f i ShaderManager.obj
 0002:00032830       ?_Unchecked_erase@?$_Hash@V?$_Umap_traits@V?$basic_string@DU?$char_traits@D@std@@V?$allocator@D@2@@std@@V?$shared_ptr@VShaderProgram@@@2@V?$_Uhash_compare@V?$basic_string@DU?$char_traits@D@std@@V?$allocator@D@2@@std@@U?$hash@V?$basic_string@DU?$char_traits@D@std@@V?$allocator@D@2@@std@@@2@U?$equal_to@V?$basic_string@DU?$char_traits@D@std@@V?$allocator@D@2@@std@@@2@@2@V?$allocator@U?$pair@$$CBV?$basic_string@DU?$char_traits@D@std@@V?$allocator@D@2@@std@@V?$shared_ptr@VShaderProgram@@@2@@std@@@2@$0A@@std@@@std@@AEAAPEAU?$_List_node@U?$pair@$$CBV?$basic_string@DU?$char_traits@D@std@@V?$allocator@D@2@@std@@V?$shared_ptr@VShaderProgram@@@2@@std@@PEAX@2@PEAU32@QEAU32@@Z 0000000140074830 f i ShaderManager.obj
 0002:00032c90       ?_Unchecked_erase@?$list@U?$pair@$$CBV?$basic_string@DU?$char_traits@D@std@@V?$allocator@D@2@@std@@V?$shared_ptr@VShaderProgram@@@2@@std@@V?$allocator@U?$pair@$$CBV?$basic_string@DU?$char_traits@D@std@@V?$allocator@D@2@@std@@V?$shared_ptr@VShaderProgram@@@2@@std@@@2@@std@@AEAAPEAU?$_List_node@U?$pair@$$CBV?$basic_string@DU?$char_traits@D@std@@V?$allocator@D@2@@std@@V?$shared_ptr@VShaderProgram@@@2@@std@@PEAX@2@PEAU32@QEAU32@@Z 0000000140074c90 f i ShaderManager.obj
 0002:00032fb0       ?_Unchecked_splice@?$_List_val@U?$_List_simple_types@U?$pair@$$CBV?$basic_string@DU?$char_traits@D@std@@V?$allocator@D@2@@std@@V?$shared_ptr@VShaderProgram@@@2@@std@@@std@@@std@@SAPEAU?$_List_node@U?$pair@$$CBV?$basic_string@DU?$char_traits@D@std@@V?$allocator@D@2@@std@@V?$shared_ptr@VShaderProgram@@@2@@std@@PEAX@2@QEAU32@00@Z 0000000140074fb0 f i ShaderManager.obj
 0002:000330a0       ?__autoclassinit2@?$_List_iterator@V?$_List_val@U?$_List_simple_types@U?$pair@$$CBV?$basic_string@DU?$char_traits@D@std@@V?$allocator@D@2@@std@@V?$shared_ptr@VShaderProgram@@@2@@std@@@std@@@std@@@std@@QEAAX_K@Z 00000001400750a0 f i ShaderManager.obj
 0002:000330e0       ?__autoclassinit2@?$_List_unchecked_const_iterator@V?$_List_val@U?$_List_simple_types@U?$pair@$$CBV?$basic_string@DU?$char_traits@D@std@@V?$allocator@D@2@@std@@V?$shared_ptr@VShaderProgram@@@2@@std@@@std@@@std@@U_Iterator_base0@2@@std@@QEAAX_K@Z 00000001400750e0 f i ShaderManager.obj
 0002:00033120       ?__autoclassinit2@?$_List_unchecked_iterator@V?$_List_val@U?$_List_simple_types@U?$pair@$$CBV?$basic_string@DU?$char_traits@D@std@@V?$allocator@D@2@@std@@V?$shared_ptr@VShaderProgram@@@2@@std@@@std@@@std@@@std@@QEAAX_K@Z 0000000140075120 f i ShaderManager.obj
 0002:00033160       ?__autoclassinit2@?$shared_ptr@VShaderProgram@@@std@@QEAAX_K@Z 0000000140075160 f i ShaderManager.obj
 0002:000331a0       ?__autoclassinit2@ShaderManager@@QEAAX_K@Z 00000001400751a0 f i ShaderManager.obj
 0002:000331e0       ?allocate@?$allocator@U?$_List_node@U?$pair@$$CBV?$basic_string@DU?$char_traits@D@std@@V?$allocator@D@2@@std@@V?$shared_ptr@VShaderProgram@@@2@@std@@PEAX@std@@@std@@QEAAPEAU?$_List_node@U?$pair@$$CBV?$basic_string@DU?$char_traits@D@std@@V?$allocator@D@2@@std@@V?$shared_ptr@VShaderProgram@@@2@@std@@PEAX@2@_K@Z 00000001400751e0 f i ShaderManager.obj
 0002:00033240       ?allocate@?$allocator@V?$_List_unchecked_iterator@V?$_List_val@U?$_List_simple_types@U?$pair@$$CBV?$basic_string@DU?$char_traits@D@std@@V?$allocator@D@2@@std@@V?$shared_ptr@VShaderProgram@@@2@@std@@@std@@@std@@@std@@@std@@QEAAPEAV?$_List_unchecked_iterator@V?$_List_val@U?$_List_simple_types@U?$pair@$$CBV?$basic_string@DU?$char_traits@D@std@@V?$allocator@D@2@@std@@V?$shared_ptr@VShaderProgram@@@2@@std@@@std@@@std@@@2@_K@Z 0000000140075240 f i ShaderManager.obj
 0002:000332a0       ?begin@?$_Hash@V?$_Umap_traits@V?$basic_string@DU?$char_traits@D@std@@V?$allocator@D@2@@std@@V?$shared_ptr@VShaderProgram@@@2@V?$_Uhash_compare@V?$basic_string@DU?$char_traits@D@std@@V?$allocator@D@2@@std@@U?$hash@V?$basic_string@DU?$char_traits@D@std@@V?$allocator@D@2@@std@@@2@U?$equal_to@V?$basic_string@DU?$char_traits@D@std@@V?$allocator@D@2@@std@@@2@@2@V?$allocator@U?$pair@$$CBV?$basic_string@DU?$char_traits@D@std@@V?$allocator@D@2@@std@@V?$shared_ptr@VShaderProgram@@@2@@std@@@2@$0A@@std@@@std@@QEAA?AV?$_List_iterator@V?$_List_val@U?$_List_simple_types@U?$pair@$$CBV?$basic_string@DU?$char_traits@D@std@@V?$allocator@D@2@@std@@V?$shared_ptr@VShaderProgram@@@2@@std@@@std@@@std@@@2@XZ 00000001400752a0 f i ShaderManager.obj
 0002:00033310       ?begin@?$list@U?$pair@$$CBV?$basic_string@DU?$char_traits@D@std@@V?$allocator@D@2@@std@@V?$shared_ptr@VShaderProgram@@@2@@std@@V?$allocator@U?$pair@$$CBV?$basic_string@DU?$char_traits@D@std@@V?$allocator@D@2@@std@@V?$shared_ptr@VShaderProgram@@@2@@std@@@2@@std@@QEAA?AV?$_List_iterator@V?$_List_val@U?$_List_simple_types@U?$pair@$$CBV?$basic_string@DU?$char_traits@D@std@@V?$allocator@D@2@@std@@V?$shared_ptr@VShaderProgram@@@2@@std@@@std@@@std@@@2@XZ 0000000140075310 f i ShaderManager.obj
 0002:00033390       ?bucket@?$_Hash@V?$_Umap_traits@V?$basic_string@DU?$char_traits@D@std@@V?$allocator@D@2@@std@@V?$shared_ptr@VShaderProgram@@@2@V?$_Uhash_compare@V?$basic_string@DU?$char_traits@D@std@@V?$allocator@D@2@@std@@U?$hash@V?$basic_string@DU?$char_traits@D@std@@V?$allocator@D@2@@std@@@2@U?$equal_to@V?$basic_string@DU?$char_traits@D@std@@V?$allocator@D@2@@std@@@2@@2@V?$allocator@U?$pair@$$CBV?$basic_string@DU?$char_traits@D@std@@V?$allocator@D@2@@std@@V?$shared_ptr@VShaderProgram@@@2@@std@@@2@$0A@@std@@@std@@QEBA_KAEBV?$basic_string@DU?$char_traits@D@std@@V?$allocator@D@2@@2@@Z 0000000140075390 f i ShaderManager.obj
 0002:00033400       ?bucket_count@?$_Hash@V?$_Umap_traits@V?$basic_string@DU?$char_traits@D@std@@V?$allocator@D@2@@std@@V?$shared_ptr@VShaderProgram@@@2@V?$_Uhash_compare@V?$basic_string@DU?$char_traits@D@std@@V?$allocator@D@2@@std@@U?$hash@V?$basic_string@DU?$char_traits@D@std@@V?$allocator@D@2@@std@@@2@U?$equal_to@V?$basic_string@DU?$char_traits@D@std@@V?$allocator@D@2@@std@@@2@@2@V?$allocator@U?$pair@$$CBV?$basic_string@DU?$char_traits@D@std@@V?$allocator@D@2@@std@@V?$shared_ptr@VShaderProgram@@@2@@std@@@2@$0A@@std@@@std@@QEBA_KXZ 0000000140075400 f i ShaderManager.obj
 0002:00033450       ?capacity@?$_Hash_vec@V?$allocator@V?$_List_unchecked_iterator@V?$_List_val@U?$_List_simple_types@U?$pair@$$CBV?$basic_string@DU?$char_traits@D@std@@V?$allocator@D@2@@std@@V?$shared_ptr@VShaderProgram@@@2@@std@@@std@@@std@@@std@@@std@@@std@@QEBA_KXZ 0000000140075450 f i ShaderManager.obj
 0002:000334b0       ?cleanUp@ShaderManager@@QEAAXXZ 00000001400754b0 f   ShaderManager.obj
 0002:00033640       ?clear@?$_Hash@V?$_Umap_traits@V?$basic_string@DU?$char_traits@D@std@@V?$allocator@D@2@@std@@V?$shared_ptr@VShaderProgram@@@2@V?$_Uhash_compare@V?$basic_string@DU?$char_traits@D@std@@V?$allocator@D@2@@std@@U?$hash@V?$basic_string@DU?$char_traits@D@std@@V?$allocator@D@2@@std@@@2@U?$equal_to@V?$basic_string@DU?$char_traits@D@std@@V?$allocator@D@2@@std@@@2@@2@V?$allocator@U?$pair@$$CBV?$basic_string@DU?$char_traits@D@std@@V?$allocator@D@2@@std@@V?$shared_ptr@VShaderProgram@@@2@@std@@@2@$0A@@std@@@std@@QEAAXXZ 0000000140075640 f i ShaderManager.obj
 0002:00033750       ?clear@?$list@U?$pair@$$CBV?$basic_string@DU?$char_traits@D@std@@V?$allocator@D@2@@std@@V?$shared_ptr@VShaderProgram@@@2@@std@@V?$allocator@U?$pair@$$CBV?$basic_string@DU?$char_traits@D@std@@V?$allocator@D@2@@std@@V?$shared_ptr@VShaderProgram@@@2@@std@@@2@@std@@QEAAXXZ 0000000140075750 f i ShaderManager.obj
 0002:00033810       ?compare@?$_Narrow_char_traits@DH@std@@SAHQEBD0_K@Z 0000000140075810 f i ShaderManager.obj
 0002:00033880       ?deallocate@?$_Default_allocator_traits@V?$allocator@U?$_List_node@U?$pair@$$CBV?$basic_string@DU?$char_traits@D@std@@V?$allocator@D@2@@std@@V?$shared_ptr@VShaderProgram@@@2@@std@@PEAX@std@@@std@@@std@@SAXAEAV?$allocator@U?$_List_node@U?$pair@$$CBV?$basic_string@DU?$char_traits@D@std@@V?$allocator@D@2@@std@@V?$shared_ptr@VShaderProgram@@@2@@std@@PEAX@std@@@2@QEAU?$_List_node@U?$pair@$$CBV?$basic_string@DU?$char_traits@D@std@@V?$allocator@D@2@@std@@V?$shared_ptr@VShaderProgram@@@2@@std@@PEAX@2@_K@Z 0000000140075880 f i ShaderManager.obj
 0002:000338e0       ?deallocate@?$allocator@U?$_List_node@U?$pair@$$CBV?$basic_string@DU?$char_traits@D@std@@V?$allocator@D@2@@std@@V?$shared_ptr@VShaderProgram@@@2@@std@@PEAX@std@@@std@@QEAAXQEAU?$_List_node@U?$pair@$$CBV?$basic_string@DU?$char_traits@D@std@@V?$allocator@D@2@@std@@V?$shared_ptr@VShaderProgram@@@2@@std@@PEAX@2@_K@Z 00000001400758e0 f i ShaderManager.obj
 0002:000339f0       ?deallocate@?$allocator@V?$_List_unchecked_iterator@V?$_List_val@U?$_List_simple_types@U?$pair@$$CBV?$basic_string@DU?$char_traits@D@std@@V?$allocator@D@2@@std@@V?$shared_ptr@VShaderProgram@@@2@@std@@@std@@@std@@@std@@@std@@QEAAXQEAV?$_List_unchecked_iterator@V?$_List_val@U?$_List_simple_types@U?$pair@$$CBV?$basic_string@DU?$char_traits@D@std@@V?$allocator@D@2@@std@@V?$shared_ptr@VShaderProgram@@@2@@std@@@std@@@std@@@2@_K@Z 00000001400759f0 f i ShaderManager.obj
 0002:00033b10       ?end@?$_Hash@V?$_Umap_traits@V?$basic_string@DU?$char_traits@D@std@@V?$allocator@D@2@@std@@V?$shared_ptr@VShaderProgram@@@2@V?$_Uhash_compare@V?$basic_string@DU?$char_traits@D@std@@V?$allocator@D@2@@std@@U?$hash@V?$basic_string@DU?$char_traits@D@std@@V?$allocator@D@2@@std@@@2@U?$equal_to@V?$basic_string@DU?$char_traits@D@std@@V?$allocator@D@2@@std@@@2@@2@V?$allocator@U?$pair@$$CBV?$basic_string@DU?$char_traits@D@std@@V?$allocator@D@2@@std@@V?$shared_ptr@VShaderProgram@@@2@@std@@@2@$0A@@std@@@std@@QEAA?AV?$_List_iterator@V?$_List_val@U?$_List_simple_types@U?$pair@$$CBV?$basic_string@DU?$char_traits@D@std@@V?$allocator@D@2@@std@@V?$shared_ptr@VShaderProgram@@@2@@std@@@std@@@std@@@2@XZ 0000000140075b10 f i ShaderManager.obj
 0002:00033b80       ?end@?$list@U?$pair@$$CBV?$basic_string@DU?$char_traits@D@std@@V?$allocator@D@2@@std@@V?$shared_ptr@VShaderProgram@@@2@@std@@V?$allocator@U?$pair@$$CBV?$basic_string@DU?$char_traits@D@std@@V?$allocator@D@2@@std@@V?$shared_ptr@VShaderProgram@@@2@@std@@@2@@std@@QEAA?AV?$_List_iterator@V?$_List_val@U?$_List_simple_types@U?$pair@$$CBV?$basic_string@DU?$char_traits@D@std@@V?$allocator@D@2@@std@@V?$shared_ptr@VShaderProgram@@@2@@std@@@std@@@std@@@2@XZ 0000000140075b80 f i ShaderManager.obj
 0002:00033c00       ?getInstance@ShaderManager@@SAAEAV1@XZ 0000000140075c00 f   ShaderManager.obj
 0002:00033cd0       ?getShaderProgram@ShaderManager@@QEAA?AV?$shared_ptr@VShaderProgram@@@std@@V?$basic_string@DU?$char_traits@D@std@@V?$allocator@D@2@@3@@Z 0000000140075cd0 f   ShaderManager.obj
 0002:00033e70       ?loadShaderProgram@ShaderManager@@AEAA?AV?$shared_ptr@VShaderProgram@@@std@@V?$basic_string@DU?$char_traits@D@std@@V?$allocator@D@2@@3@II@Z 0000000140075e70 f   ShaderManager.obj
 0002:00033fa0       ?loadShaderProgram@ShaderManager@@AEAA?AV?$shared_ptr@VShaderProgram@@@std@@V?$basic_string@DU?$char_traits@D@std@@V?$allocator@D@2@@3@PEBD1@Z 0000000140075fa0 f   ShaderManager.obj
 0002:00034140       ?loadShaderProgram@ShaderManager@@AEAA?AV?$shared_ptr@VShaderProgram@@@std@@V?$basic_string@DU?$char_traits@D@std@@V?$allocator@D@2@@3@VShader@@1@Z 0000000140076140 f   ShaderManager.obj
 0002:00034290       ?max_load_factor@?$_Hash@V?$_Umap_traits@V?$basic_string@DU?$char_traits@D@std@@V?$allocator@D@2@@std@@V?$shared_ptr@VShaderProgram@@@2@V?$_Uhash_compare@V?$basic_string@DU?$char_traits@D@std@@V?$allocator@D@2@@std@@U?$hash@V?$basic_string@DU?$char_traits@D@std@@V?$allocator@D@2@@std@@@2@U?$equal_to@V?$basic_string@DU?$char_traits@D@std@@V?$allocator@D@2@@std@@@2@@2@V?$allocator@U?$pair@$$CBV?$basic_string@DU?$char_traits@D@std@@V?$allocator@D@2@@std@@V?$shared_ptr@VShaderProgram@@@2@@std@@@2@$0A@@std@@@std@@QEBAMXZ 0000000140076290 f i ShaderManager.obj
 0002:000342e0       ?max_size@?$_Default_allocator_traits@V?$allocator@U?$_List_node@U?$pair@$$CBV?$basic_string@DU?$char_traits@D@std@@V?$allocator@D@2@@std@@V?$shared_ptr@VShaderProgram@@@2@@std@@PEAX@std@@@std@@@std@@SA_KAEBV?$allocator@U?$_List_node@U?$pair@$$CBV?$basic_string@DU?$char_traits@D@std@@V?$allocator@D@2@@std@@V?$shared_ptr@VShaderProgram@@@2@@std@@PEAX@std@@@2@@Z 00000001400762e0 f i ShaderManager.obj
 0002:00034330       ?max_size@?$_Default_allocator_traits@V?$allocator@V?$_List_unchecked_iterator@V?$_List_val@U?$_List_simple_types@U?$pair@$$CBV?$basic_string@DU?$char_traits@D@std@@V?$allocator@D@2@@std@@V?$shared_ptr@VShaderProgram@@@2@@std@@@std@@@std@@@std@@@std@@@std@@SA_KAEBV?$allocator@V?$_List_unchecked_iterator@V?$_List_val@U?$_List_simple_types@U?$pair@$$CBV?$basic_string@DU?$char_traits@D@std@@V?$allocator@D@2@@std@@V?$shared_ptr@VShaderProgram@@@2@@std@@@std@@@std@@@std@@@2@@Z 0000000140076330 f i ShaderManager.obj
 0002:00034380       ?max_size@?$_Hash_vec@V?$allocator@V?$_List_unchecked_iterator@V?$_List_val@U?$_List_simple_types@U?$pair@$$CBV?$basic_string@DU?$char_traits@D@std@@V?$allocator@D@2@@std@@V?$shared_ptr@VShaderProgram@@@2@@std@@@std@@@std@@@std@@@std@@@std@@QEBA_KXZ 0000000140076380 f i ShaderManager.obj
 0002:00034410       ?max_size@?$list@U?$pair@$$CBV?$basic_string@DU?$char_traits@D@std@@V?$allocator@D@2@@std@@V?$shared_ptr@VShaderProgram@@@2@@std@@V?$allocator@U?$pair@$$CBV?$basic_string@DU?$char_traits@D@std@@V?$allocator@D@2@@std@@V?$shared_ptr@VShaderProgram@@@2@@std@@@2@@std@@QEBA_KXZ 0000000140076410 f i ShaderManager.obj
 0002:00034490       ?pointer_to@?$pointer_traits@PEAU?$pair@$$CBV?$basic_string@DU?$char_traits@D@std@@V?$allocator@D@2@@std@@V?$shared_ptr@VShaderProgram@@@2@@std@@@std@@SAPEAU?$pair@$$CBV?$basic_string@DU?$char_traits@D@std@@V?$allocator@D@2@@std@@V?$shared_ptr@VShaderProgram@@@2@@2@AEAU32@@Z 0000000140076490 f i ShaderManager.obj
 0002:000344e0       ?select_on_container_copy_construction@?$_Default_allocator_traits@V?$allocator@D@std@@@std@@SA?AV?$allocator@D@2@AEBV32@@Z 00000001400764e0 f i ShaderManager.obj
 0002:00034530       ?size@?$_Hash_vec@V?$allocator@V?$_List_unchecked_iterator@V?$_List_val@U?$_List_simple_types@U?$pair@$$CBV?$basic_string@DU?$char_traits@D@std@@V?$allocator@D@2@@std@@V?$shared_ptr@VShaderProgram@@@2@@std@@@std@@@std@@@std@@@std@@@std@@QEBA_KXZ 0000000140076530 f i ShaderManager.obj
 0002:00034590       ??$value_ptr@M$0A@@glm@@YAPEBMAEBU?$mat@$03$03M$0A@@0@@Z 0000000140076590 f i ShaderProgram.obj
 0002:000345e0       ??0ShaderProgram@@QEAA@I@Z 00000001400765e0 f   ShaderProgram.obj
 0002:00034640       ??0ShaderProgram@@QEAA@II@Z 0000000140076640 f   ShaderProgram.obj
 0002:00034710       ??0ShaderProgram@@QEAA@PEBD0@Z 0000000140076710 f   ShaderProgram.obj
 0002:00034880       ??0ShaderProgram@@QEAA@VShader@@0@Z 0000000140076880 f   ShaderProgram.obj
 0002:00034970       ??0ShaderProgram@@QEAA@XZ  0000000140076970 f   ShaderProgram.obj
 0002:000349c0       ??1ShaderProgram@@QEAA@XZ  00000001400769c0 f   ShaderProgram.obj
 0002:00034a10       ?Destroy@ShaderProgram@@QEAAXXZ 0000000140076a10 f   ShaderProgram.obj
 0002:00034a60       ?SetFloat@ShaderProgram@@QEAAXPEBDM@Z 0000000140076a60 f   ShaderProgram.obj
 0002:00034ae0       ?SetMatrix4@ShaderProgram@@QEAAXPEBDU?$mat@$03$03M$0A@@glm@@_N@Z 0000000140076ae0 f   ShaderProgram.obj
 0002:00034b80       ?SetVector2@ShaderProgram@@QEAAXPEBDU?$vec@$01M$0A@@glm@@@Z 0000000140076b80 f   ShaderProgram.obj
 0002:00034c00       ?SetVector3@ShaderProgram@@QEAAXPEBDU?$vec@$02M$0A@@glm@@@Z 0000000140076c00 f   ShaderProgram.obj
 0002:00034ca0       ?Use@ShaderProgram@@QEAAXXZ 0000000140076ca0 f   ShaderProgram.obj
 0002:00034cf0       ?checkProgramLinkSuccess@ShaderProgram@@AEAAXII@Z 0000000140076cf0 f   ShaderProgram.obj
 0002:00034e80       ??$?0AEBV?$allocator@E@std@@$$V@?$_Compressed_pair@V?$allocator@E@std@@V?$_Vector_val@U?$_Simple_types@E@std@@@2@$00@std@@QEAA@U_One_then_variadic_args_t@1@AEBV?$allocator@E@1@@Z 0000000140076e80 f i Texture2DArray.obj
 0002:00034ee0       ??$?0E@?$allocator@U_Container_proxy@std@@@std@@QEAA@AEBV?$allocator@E@1@@Z 0000000140076ee0 f i Texture2DArray.obj
 0002:00034f30       ??$_Adl_verify_range@PEAEPEAE@std@@YAXAEBQEAE0@Z 0000000140076f30 f i Texture2DArray.obj
 0002:00035020       ??$_Allocate_at_least_helper@V?$allocator@E@std@@@std@@YAPEAEAEAV?$allocator@E@0@AEA_K@Z 0000000140077020 f i Texture2DArray.obj
 0002:00035080       ??$_Construct_n@$$V@?$vector@EV?$allocator@E@std@@@std@@AEAAX_K@Z 0000000140077080 f i Texture2DArray.obj
 0002:00035210       ??$_Copy_memmove@PEAEPEAE@std@@YAPEAEPEAE00@Z 0000000140077210 f i Texture2DArray.obj
 0002:00035310       ??$_Copy_unchecked@PEAEPEAEPEAE@std@@YAPEAEPEAE00@Z 0000000140077310 f i Texture2DArray.obj
 0002:000353e0       ??$_Destroy_range@V?$allocator@E@std@@@std@@YAXPEAEQEAEAEAV?$allocator@E@0@@Z 00000001400773e0 f i Texture2DArray.obj
 0002:00035430       ??$_Emplace_back@$$V@?$_Uninitialized_backout_al@V?$allocator@E@std@@@std@@QEAAXXZ 0000000140077430 f i Texture2DArray.obj
 0002:000354b0       ??$_Get_unwrapped@AEAPEAE@std@@YA?A_TAEAPEAE@Z 00000001400774b0 f i Texture2DArray.obj
 0002:00035500       ??$_Get_unwrapped_n@AEAV?$_Vector_iterator@V?$_Vector_val@U?$_Simple_types@E@std@@@std@@@std@@_J@std@@YA?A_TAEAV?$_Vector_iterator@V?$_Vector_val@U?$_Simple_types@E@std@@@std@@@0@_J@Z 0000000140077500 f i Texture2DArray.obj
 0002:00035640       ??$_Idl_distance@PEAEPEAE@std@@YA?A_PAEBQEAE0@Z 0000000140077640 f i Texture2DArray.obj
 0002:000356a0       ??$_Refancy_maybe_null@PEAE$0A@@std@@YAPEAEPEAE@Z 00000001400776a0 f i Texture2DArray.obj
 0002:000356e0       ??$_Seek_wrapped@V?$_Vector_iterator@V?$_Vector_val@U?$_Simple_types@E@std@@@std@@@std@@PEAE@std@@YAXAEAV?$_Vector_iterator@V?$_Vector_val@U?$_Simple_types@E@std@@@std@@@0@$$QEAPEAE@Z 00000001400776e0 f i Texture2DArray.obj
 0002:00035740       ??$_To_address@PEAE@std@@YA?A_PAEBQEAE@Z 0000000140077740 f i Texture2DArray.obj
 0002:00035790       ??$_Unfancy@E@std@@YAPEAEPEAE@Z 0000000140077790 f i Texture2DArray.obj
 0002:000357d0       ??$_Unfancy_maybe_null@E@std@@YAPEAEPEAE@Z 00000001400777d0 f i Texture2DArray.obj
 0002:00035810       ??$_Uninitialized_value_construct_n@V?$allocator@E@std@@@std@@YAPEAEPEAE_KAEAV?$allocator@E@0@@Z 0000000140077810 f i Texture2DArray.obj
 0002:000359a0       ??$_Zero_range@PEAE@std@@YAPEAEQEAE0@Z 00000001400779a0 f i Texture2DArray.obj
 0002:00035a30       ??$addressof@V?$_Vector_val@U?$_Simple_types@E@std@@@std@@@std@@YAPEAV?$_Vector_val@U?$_Simple_types@E@std@@@0@AEAV10@@Z 0000000140077a30 f i Texture2DArray.obj
 0002:00035a70       ??$construct@E$$V@?$_Default_allocator_traits@V?$allocator@E@std@@@std@@SAXAEAV?$allocator@E@1@QEAE@Z 0000000140077a70 f i Texture2DArray.obj
 0002:00035af0       ??$copy@PEAEV?$_Vector_iterator@V?$_Vector_val@U?$_Simple_types@E@std@@@std@@@std@@@std@@YA?AV?$_Vector_iterator@V?$_Vector_val@U?$_Simple_types@E@std@@@std@@@0@PEAE0V10@@Z 0000000140077af0 f i Texture2DArray.obj
 0002:00035c90       ??0?$_Uninitialized_backout_al@V?$allocator@E@std@@@std@@QEAA@PEAEAEAV?$allocator@E@1@@Z 0000000140077c90 f i Texture2DArray.obj
 0002:00035d20       ??0?$_Vector_const_iterator@V?$_Vector_val@U?$_Simple_types@E@std@@@std@@@std@@QEAA@$$QEAV01@@Z 0000000140077d20 f i Texture2DArray.obj
 0002:00035d90       ??0?$_Vector_const_iterator@V?$_Vector_val@U?$_Simple_types@E@std@@@std@@@std@@QEAA@AEBV01@@Z 0000000140077d90 f i Texture2DArray.obj
 0002:00035e00       ??0?$_Vector_const_iterator@V?$_Vector_val@U?$_Simple_types@E@std@@@std@@@std@@QEAA@PEAEPEBU_Container_base12@1@@Z 0000000140077e00 f i Texture2DArray.obj
 0002:00035e90       ??0?$_Vector_iterator@V?$_Vector_val@U?$_Simple_types@E@std@@@std@@@std@@QEAA@$$QEAV01@@Z 0000000140077e90 f i Texture2DArray.obj
 0002:00035ee0       ??0?$_Vector_iterator@V?$_Vector_val@U?$_Simple_types@E@std@@@std@@@std@@QEAA@AEBV01@@Z 0000000140077ee0 f i Texture2DArray.obj
 0002:00035f30       ??0?$_Vector_iterator@V?$_Vector_val@U?$_Simple_types@E@std@@@std@@@std@@QEAA@PEAEPEBU_Container_base12@1@@Z 0000000140077f30 f i Texture2DArray.obj
 0002:00035f90       ??0?$_Vector_val@U?$_Simple_types@E@std@@@std@@QEAA@XZ 0000000140077f90 f i Texture2DArray.obj
 0002:00036020       ??0?$allocator@E@std@@QEAA@XZ 0000000140078020 f i Texture2DArray.obj
 0002:00036060       ??0?$vector@EV?$allocator@E@std@@@std@@QEAA@_KAEBV?$allocator@E@1@@Z 0000000140078060 f i Texture2DArray.obj
 0002:000360f0       ??0Texture2DArray@@QEAA@XZ 00000001400780f0 f   Texture2DArray.obj
 0002:000361f0       ??1?$_Tidy_guard@V?$vector@EV?$allocator@E@std@@@std@@@std@@QEAA@XZ 00000001400781f0 f i Texture2DArray.obj
 0002:00036250       ??1?$_Uninitialized_backout_al@V?$allocator@E@std@@@std@@QEAA@XZ 0000000140078250 f i Texture2DArray.obj
 0002:000362c0       ??1?$_Vector_const_iterator@V?$_Vector_val@U?$_Simple_types@E@std@@@std@@@std@@QEAA@XZ 00000001400782c0 f i Texture2DArray.obj
 0002:00036300       ??1?$_Vector_iterator@V?$_Vector_val@U?$_Simple_types@E@std@@@std@@@std@@QEAA@XZ 0000000140078300 f i Texture2DArray.obj
 0002:00036340       ??1?$vector@EV?$allocator@E@std@@@std@@QEAA@XZ 0000000140078340 f i Texture2DArray.obj
 0002:00036450       ??H?$_Vector_iterator@V?$_Vector_val@U?$_Simple_types@E@std@@@std@@@std@@QEBA?AV01@_J@Z 0000000140078450 f i Texture2DArray.obj
 0002:00036530       ??Y?$_Vector_const_iterator@V?$_Vector_val@U?$_Simple_types@E@std@@@std@@@std@@QEAAAEAV01@_J@Z 0000000140078530 f i Texture2DArray.obj
 0002:000365b0       ??Y?$_Vector_iterator@V?$_Vector_val@U?$_Simple_types@E@std@@@std@@@std@@QEAAAEAV01@_J@Z 00000001400785b0 f i Texture2DArray.obj
 0002:00036610       ?Generate@Texture2DArray@@QEAAXIIHHHPEAE@Z 0000000140078610 f   Texture2DArray.obj
 0002:00036c10       ?Use@Texture2DArray@@QEBAXXZ 0000000140078c10 f   Texture2DArray.obj
 0002:00036c60       ?_Buy_nonzero@?$vector@EV?$allocator@E@std@@@std@@AEAAX_K@Z 0000000140078c60 f i Texture2DArray.obj
 0002:00036ce0       ?_Buy_raw@?$vector@EV?$allocator@E@std@@@std@@AEAAX_K@Z 0000000140078ce0 f i Texture2DArray.obj
 0002:00036dd0       ?_Get_first@?$_Compressed_pair@V?$allocator@E@std@@V?$_Vector_val@U?$_Simple_types@E@std@@@2@$00@std@@QEAAAEAV?$allocator@E@2@XZ 0000000140078dd0 f i Texture2DArray.obj
 0002:00036e10       ?_Get_first@?$_Compressed_pair@V?$allocator@E@std@@V?$_Vector_val@U?$_Simple_types@E@std@@@2@$00@std@@QEBAAEBV?$allocator@E@2@XZ 0000000140078e10 f i Texture2DArray.obj
 0002:00036e50       ?_Getal@?$vector@EV?$allocator@E@std@@@std@@AEAAAEAV?$allocator@E@2@XZ 0000000140078e50 f i Texture2DArray.obj
 0002:00036ea0       ?_Getal@?$vector@EV?$allocator@E@std@@@std@@AEBAAEBV?$allocator@E@2@XZ 0000000140078ea0 f i Texture2DArray.obj
 0002:00036ef0       ?_Release@?$_Uninitialized_backout_al@V?$allocator@E@std@@@std@@QEAAPEAEXZ 0000000140078ef0 f i Texture2DArray.obj
 0002:00036f50       ?_Seek_to@?$_Vector_const_iterator@V?$_Vector_val@U?$_Simple_types@E@std@@@std@@@std@@QEAAXPEBE@Z 0000000140078f50 f i Texture2DArray.obj
 0002:00036fb0       ?_Tidy@?$vector@EV?$allocator@E@std@@@std@@AEAAXXZ 0000000140078fb0 f i Texture2DArray.obj
 0002:000370d0       ?_Unwrapped@?$_Vector_iterator@V?$_Vector_val@U?$_Simple_types@E@std@@@std@@@std@@QEBAPEAEXZ 00000001400790d0 f i Texture2DArray.obj
 0002:00037120       ?_Verify_offset@?$_Vector_const_iterator@V?$_Vector_val@U?$_Simple_types@E@std@@@std@@@std@@QEBAX_J@Z 0000000140079120 f i Texture2DArray.obj
 0002:00037470       ?_Xlength@?$vector@EV?$allocator@E@std@@@std@@CAXXZ 0000000140079470 f i Texture2DArray.obj
 0002:000374b0       ?__autoclassinit2@?$_Uninitialized_backout_al@V?$allocator@E@std@@@std@@QEAAX_K@Z 00000001400794b0 f i Texture2DArray.obj
 0002:000374f0       ?__autoclassinit2@?$_Vector_iterator@V?$_Vector_val@U?$_Simple_types@E@std@@@std@@@std@@QEAAX_K@Z 00000001400794f0 f i Texture2DArray.obj
 0002:00037530       ?__autoclassinit2@?$vector@EV?$allocator@E@std@@@std@@QEAAX_K@Z 0000000140079530 f i Texture2DArray.obj
 0002:00037570       ?allocate@?$allocator@E@std@@QEAAPEAE_K@Z 0000000140079570 f i Texture2DArray.obj
 0002:000375d0       ?begin@?$vector@EV?$allocator@E@std@@@std@@QEAA?AV?$_Vector_iterator@V?$_Vector_val@U?$_Simple_types@E@std@@@std@@@2@XZ 00000001400795d0 f i Texture2DArray.obj
 0002:00037650       ?clear@?$vector@EV?$allocator@E@std@@@std@@QEAAXXZ 0000000140079650 f i Texture2DArray.obj
 0002:00037710       ?data@?$vector@EV?$allocator@E@std@@@std@@QEAAPEAEXZ 0000000140079710 f i Texture2DArray.obj
 0002:00037760       ?deallocate@?$allocator@E@std@@QEAAXQEAE_K@Z 0000000140079760 f i Texture2DArray.obj
 0002:00037870       ?max_size@?$_Default_allocator_traits@V?$allocator@E@std@@@std@@SA_KAEBV?$allocator@E@2@@Z 0000000140079870 f i Texture2DArray.obj
 0002:000378b0       ?max_size@?$vector@EV?$allocator@E@std@@@std@@QEBA_KXZ 00000001400798b0 f i Texture2DArray.obj
 0002:00037ac0       ??$?0$$V@?$_Compressed_pair@V?$allocator@U?$_Tree_node@U?$pair@$$CBV?$basic_string@DU?$char_traits@D@std@@V?$allocator@D@2@@std@@V?$shared_ptr@VTexture2DArray@@@2@@std@@PEAX@std@@@std@@V?$_Tree_val@U?$_Tree_simple_types@U?$pair@$$CBV?$basic_string@DU?$char_traits@D@std@@V?$allocator@D@2@@std@@V?$shared_ptr@VTexture2DArray@@@2@@std@@@std@@@2@$00@std@@QEAA@U_Zero_then_variadic_args_t@1@@Z 0000000140079ac0 f i TextureManager.obj
 0002:00037b30       ??$?0$$V@?$_Ref_count_obj2@VTexture2DArray@@@std@@QEAA@XZ 0000000140079b30 f i TextureManager.obj
 0002:00037bc0       ??$?0AEBQEAU?$_Tree_node@U?$pair@$$CBV?$basic_string@DU?$char_traits@D@std@@V?$allocator@D@2@@std@@V?$shared_ptr@VTexture2DArray@@@2@@std@@PEAX@std@@_N$0A@@?$pair@PEAU?$_Tree_node@U?$pair@$$CBV?$basic_string@DU?$char_traits@D@std@@V?$allocator@D@2@@std@@V?$shared_ptr@VTexture2DArray@@@2@@std@@PEAX@std@@_N@std@@QEAA@AEBQEAU?$_Tree_node@U?$pair@$$CBV?$basic_string@DU?$char_traits@D@std@@V?$allocator@D@2@@std@@V?$shared_ptr@VTexture2DArray@@@2@@std@@PEAX@1@$$QEA_N@Z 0000000140079bc0 f i TextureManager.obj
 0002:00037c40       ??$?0AEBU?$less@V?$basic_string@DU?$char_traits@D@std@@V?$allocator@D@2@@std@@@std@@U_Zero_then_variadic_args_t@1@@?$_Compressed_pair@U?$less@V?$basic_string@DU?$char_traits@D@std@@V?$allocator@D@2@@std@@@std@@V?$_Compressed_pair@V?$allocator@U?$_Tree_node@U?$pair@$$CBV?$basic_string@DU?$char_traits@D@std@@V?$allocator@D@2@@std@@V?$shared_ptr@VTexture2DArray@@@2@@std@@PEAX@std@@@std@@V?$_Tree_val@U?$_Tree_simple_types@U?$pair@$$CBV?$basic_string@DU?$char_traits@D@std@@V?$allocator@D@2@@std@@V?$shared_ptr@VTexture2DArray@@@2@@std@@@std@@@2@$00@2@$00@std@@QEAA@U_One_then_variadic_args_t@1@AEBU?$less@V?$basic_string@DU?$char_traits@D@std@@V?$allocator@D@2@@std@@@1@$$QEAU_Zero_then_variadic_args_t@1@@Z 0000000140079c40 f i TextureManager.obj
 0002:00037cb0       ??$?0AEBUpiecewise_construct_t@std@@V?$tuple@AEBV?$basic_string@DU?$char_traits@D@std@@V?$allocator@D@2@@std@@@1@V?$tuple@$$V@1@@?$_Tree_temp_node@V?$allocator@U?$_Tree_node@U?$pair@$$CBV?$basic_string@DU?$char_traits@D@std@@V?$allocator@D@2@@std@@V?$shared_ptr@VTexture2DArray@@@2@@std@@PEAX@std@@@std@@@std@@QEAA@AEAV?$allocator@U?$_Tree_node@U?$pair@$$CBV?$basic_string@DU?$char_traits@D@std@@V?$allocator@D@2@@std@@V?$shared_ptr@VTexture2DArray@@@2@@std@@PEAX@std@@@1@PEAU?$_Tree_node@U?$pair@$$CBV?$basic_string@DU?$char_traits@D@std@@V?$allocator@D@2@@std@@V?$shared_ptr@VTexture2DArray@@@2@@std@@PEAX@1@AEBUpiecewise_construct_t@1@$$QEAV?$tuple@AEBV?$basic_string@DU?$char_traits@D@std@@V?$allocator@D@2@@std@@@1@$$QEAV?$tuple@$$V@1@@Z 0000000140079cb0 f i TextureManager.obj
 0002:00037e10       ??$?0AEBV?$basic_string@DU?$char_traits@D@std@@V?$allocator@D@2@@std@@$$Z$$V@?$pair@$$CBV?$basic_string@DU?$char_traits@D@std@@V?$allocator@D@2@@std@@V?$shared_ptr@VTexture2DArray@@@2@@std@@QEAA@Upiecewise_construct_t@1@V?$tuple@AEBV?$basic_string@DU?$char_traits@D@std@@V?$allocator@D@2@@std@@@1@V?$tuple@$$V@1@@Z 0000000140079e10 f i TextureManager.obj
 0002:00037ed0       ??$?0PEAU?$_Tree_node@U?$pair@$$CBV?$basic_string@DU?$char_traits@D@std@@V?$allocator@D@2@@std@@V?$shared_ptr@VTexture2DArray@@@2@@std@@PEAX@std@@_N$0A@@?$pair@PEAU?$_Tree_node@U?$pair@$$CBV?$basic_string@DU?$char_traits@D@std@@V?$allocator@D@2@@std@@V?$shared_ptr@VTexture2DArray@@@2@@std@@PEAX@std@@_N@std@@QEAA@$$QEAPEAU?$_Tree_node@U?$pair@$$CBV?$basic_string@DU?$char_traits@D@std@@V?$allocator@D@2@@std@@V?$shared_ptr@VTexture2DArray@@@2@@std@@PEAX@1@$$QEA_N@Z 0000000140079ed0 f i TextureManager.obj
 0002:00037f50       ??$?0U?$_Tree_node@U?$pair@$$CBV?$basic_string@DU?$char_traits@D@std@@V?$allocator@D@2@@std@@V?$shared_ptr@VTexture2DArray@@@2@@std@@PEAX@std@@@?$allocator@U_Container_proxy@std@@@std@@QEAA@AEBV?$allocator@U?$_Tree_node@U?$pair@$$CBV?$basic_string@DU?$char_traits@D@std@@V?$allocator@D@2@@std@@V?$shared_ptr@VTexture2DArray@@@2@@std@@PEAX@std@@@1@@Z 0000000140079f50 f i TextureManager.obj
 0002:00037fa0       ??$?0V?$tuple@AEBV?$basic_string@DU?$char_traits@D@std@@V?$allocator@D@2@@std@@@std@@V?$tuple@$$V@1@$0A@$$Z$S@?$pair@$$CBV?$basic_string@DU?$char_traits@D@std@@V?$allocator@D@2@@std@@V?$shared_ptr@VTexture2DArray@@@2@@std@@QEAA@AEAV?$tuple@AEBV?$basic_string@DU?$char_traits@D@std@@V?$allocator@D@2@@std@@@1@AEAV?$tuple@$$V@1@U?$integer_sequence@_K$0A@@1@U?$integer_sequence@_K$S@1@@Z 0000000140079fa0 f i TextureManager.obj
 0002:00038050       ??$?6DU?$char_traits@D@std@@V?$allocator@D@1@@std@@YAAEAV?$basic_ostream@DU?$char_traits@D@std@@@0@AEAV10@AEBV?$basic_string@DU?$char_traits@D@std@@V?$allocator@D@2@@0@@Z 000000014007a050 f i TextureManager.obj
 0002:000380d0       ??$?MDU?$char_traits@D@std@@V?$allocator@D@1@@std@@YA_NAEBV?$basic_string@DU?$char_traits@D@std@@V?$allocator@D@2@@0@0@Z 000000014007a0d0 f i TextureManager.obj
 0002:00038150       ??$_Buyheadnode@V?$allocator@U?$_Tree_node@U?$pair@$$CBV?$basic_string@DU?$char_traits@D@std@@V?$allocator@D@2@@std@@V?$shared_ptr@VTexture2DArray@@@2@@std@@PEAX@std@@@std@@@?$_Tree_node@U?$pair@$$CBV?$basic_string@DU?$char_traits@D@std@@V?$allocator@D@2@@std@@V?$shared_ptr@VTexture2DArray@@@2@@std@@PEAX@std@@SAPEAU01@AEAV?$allocator@U?$_Tree_node@U?$pair@$$CBV?$basic_string@DU?$char_traits@D@std@@V?$allocator@D@2@@std@@V?$shared_ptr@VTexture2DArray@@@2@@std@@PEAX@std@@@1@@Z 000000014007a150 f i TextureManager.obj
 0002:00038270       ??$_Construct_in_place@PEAU?$_Tree_node@U?$pair@$$CBV?$basic_string@DU?$char_traits@D@std@@V?$allocator@D@2@@std@@V?$shared_ptr@VTexture2DArray@@@2@@std@@PEAX@std@@AEAPEAU12@@std@@YAXAEAPEAU?$_Tree_node@U?$pair@$$CBV?$basic_string@DU?$char_traits@D@std@@V?$allocator@D@2@@std@@V?$shared_ptr@VTexture2DArray@@@2@@std@@PEAX@0@0@Z 000000014007a270 f i TextureManager.obj
 0002:000382f0       ??$_Construct_in_place@PEAU?$_Tree_node@U?$pair@$$CBV?$basic_string@DU?$char_traits@D@std@@V?$allocator@D@2@@std@@V?$shared_ptr@VTexture2DArray@@@2@@std@@PEAX@std@@AEBQEAU12@@std@@YAXAEAPEAU?$_Tree_node@U?$pair@$$CBV?$basic_string@DU?$char_traits@D@std@@V?$allocator@D@2@@std@@V?$shared_ptr@VTexture2DArray@@@2@@std@@PEAX@0@AEBQEAU10@@Z 000000014007a2f0 f i TextureManager.obj
 0002:00038370       ??$_Construct_in_place@VTexture2DArray@@$$V@std@@YAXAEAVTexture2DArray@@@Z 000000014007a370 f i TextureManager.obj
 0002:000383e0       ??$_Copy_construct_from@VTexture2DArray@@@?$_Ptr_base@VTexture2DArray@@@std@@IEAAXAEBV?$shared_ptr@VTexture2DArray@@@1@@Z 000000014007a3e0 f i TextureManager.obj
 0002:00038460       ??$_Debug_lt_pred@AEBU?$less@V?$basic_string@DU?$char_traits@D@std@@V?$allocator@D@2@@std@@@std@@AEBV?$basic_string@DU?$char_traits@D@std@@V?$allocator@D@2@@2@AEBV32@@std@@YA_NAEBU?$less@V?$basic_string@DU?$char_traits@D@std@@V?$allocator@D@2@@std@@@0@AEBV?$basic_string@DU?$char_traits@D@std@@V?$allocator@D@2@@0@1@Z 000000014007a460 f i TextureManager.obj
 0002:000385a0       ??$_Destroy_in_place@PEAU?$_Tree_node@U?$pair@$$CBV?$basic_string@DU?$char_traits@D@std@@V?$allocator@D@2@@std@@V?$shared_ptr@VTexture2DArray@@@2@@std@@PEAX@std@@@std@@YAXAEAPEAU?$_Tree_node@U?$pair@$$CBV?$basic_string@DU?$char_traits@D@std@@V?$allocator@D@2@@std@@V?$shared_ptr@VTexture2DArray@@@2@@std@@PEAX@0@@Z 000000014007a5a0 f i TextureManager.obj
 0002:000385e0       ??$_Destroy_in_place@VTexture2DArray@@@std@@YAXAEAVTexture2DArray@@@Z 000000014007a5e0 f i TextureManager.obj
 0002:00038620       ??$_Erase_tree@V?$allocator@U?$_Tree_node@U?$pair@$$CBV?$basic_string@DU?$char_traits@D@std@@V?$allocator@D@2@@std@@V?$shared_ptr@VTexture2DArray@@@2@@std@@PEAX@std@@@std@@@?$_Tree_val@U?$_Tree_simple_types@U?$pair@$$CBV?$basic_string@DU?$char_traits@D@std@@V?$allocator@D@2@@std@@V?$shared_ptr@VTexture2DArray@@@2@@std@@@std@@@std@@QEAAXAEAV?$allocator@U?$_Tree_node@U?$pair@$$CBV?$basic_string@DU?$char_traits@D@std@@V?$allocator@D@2@@std@@V?$shared_ptr@VTexture2DArray@@@2@@std@@PEAX@std@@@1@PEAU?$_Tree_node@U?$pair@$$CBV?$basic_string@DU?$char_traits@D@std@@V?$allocator@D@2@@std@@V?$shared_ptr@VTexture2DArray@@@2@@std@@PEAX@1@@Z 000000014007a620 f i TextureManager.obj
 0002:000386d0       ??$_Find@V?$basic_string@DU?$char_traits@D@std@@V?$allocator@D@2@@std@@@?$_Tree@V?$_Tmap_traits@V?$basic_string@DU?$char_traits@D@std@@V?$allocator@D@2@@std@@V?$shared_ptr@VTexture2DArray@@@2@U?$less@V?$basic_string@DU?$char_traits@D@std@@V?$allocator@D@2@@std@@@2@V?$allocator@U?$pair@$$CBV?$basic_string@DU?$char_traits@D@std@@V?$allocator@D@2@@std@@V?$shared_ptr@VTexture2DArray@@@2@@std@@@2@$0A@@std@@@std@@AEBAPEAU?$_Tree_node@U?$pair@$$CBV?$basic_string@DU?$char_traits@D@std@@V?$allocator@D@2@@std@@V?$shared_ptr@VTexture2DArray@@@2@@std@@PEAX@1@AEBV?$basic_string@DU?$char_traits@D@std@@V?$allocator@D@2@@1@@Z 000000014007a6d0 f i TextureManager.obj
 0002:000387d0       ??$_Find_lower_bound@V?$basic_string@DU?$char_traits@D@std@@V?$allocator@D@2@@std@@@?$_Tree@V?$_Tmap_traits@V?$basic_string@DU?$char_traits@D@std@@V?$allocator@D@2@@std@@V?$shared_ptr@VTexture2DArray@@@2@U?$less@V?$basic_string@DU?$char_traits@D@std@@V?$allocator@D@2@@std@@@2@V?$allocator@U?$pair@$$CBV?$basic_string@DU?$char_traits@D@std@@V?$allocator@D@2@@std@@V?$shared_ptr@VTexture2DArray@@@2@@std@@@2@$0A@@std@@@std@@IEBA?AU?$_Tree_find_result@PEAU?$_Tree_node@U?$pair@$$CBV?$basic_string@DU?$char_traits@D@std@@V?$allocator@D@2@@std@@V?$shared_ptr@VTexture2DArray@@@2@@std@@PEAX@std@@@1@AEBV?$basic_string@DU?$char_traits@D@std@@V?$allocator@D@2@@1@@Z 000000014007a7d0 f i TextureManager.obj
 0002:000389a0       ??$_Freenode0@V?$allocator@U?$_Tree_node@U?$pair@$$CBV?$basic_string@DU?$char_traits@D@std@@V?$allocator@D@2@@std@@V?$shared_ptr@VTexture2DArray@@@2@@std@@PEAX@std@@@std@@@?$_Tree_node@U?$pair@$$CBV?$basic_string@DU?$char_traits@D@std@@V?$allocator@D@2@@std@@V?$shared_ptr@VTexture2DArray@@@2@@std@@PEAX@std@@SAXAEAV?$allocator@U?$_Tree_node@U?$pair@$$CBV?$basic_string@DU?$char_traits@D@std@@V?$allocator@D@2@@std@@V?$shared_ptr@VTexture2DArray@@@2@@std@@PEAX@std@@@1@PEAU01@@Z 000000014007a9a0 f i TextureManager.obj
 0002:00038a50       ??$_Freenode@V?$allocator@U?$_Tree_node@U?$pair@$$CBV?$basic_string@DU?$char_traits@D@std@@V?$allocator@D@2@@std@@V?$shared_ptr@VTexture2DArray@@@2@@std@@PEAX@std@@@std@@@?$_Tree_node@U?$pair@$$CBV?$basic_string@DU?$char_traits@D@std@@V?$allocator@D@2@@std@@V?$shared_ptr@VTexture2DArray@@@2@@std@@PEAX@std@@SAXAEAV?$allocator@U?$_Tree_node@U?$pair@$$CBV?$basic_string@DU?$char_traits@D@std@@V?$allocator@D@2@@std@@V?$shared_ptr@VTexture2DArray@@@2@@std@@PEAX@std@@@1@PEAU01@@Z 000000014007aa50 f i TextureManager.obj
 0002:00038ad0       ??$_Get_size_of_n@$0FI@@std@@YA_K_K@Z 000000014007aad0 f i TextureManager.obj
 0002:00038b50       ??$_Insert_string@DU?$char_traits@D@std@@_K@std@@YAAEAV?$basic_ostream@DU?$char_traits@D@std@@@0@AEAV10@QEBD_K@Z 000000014007ab50 f i TextureManager.obj
 0002:00038fe0       ??$_Kfn@$$CBV?$basic_string@DU?$char_traits@D@std@@V?$allocator@D@2@@std@@V?$shared_ptr@VTexture2DArray@@@2@@?$_Tmap_traits@V?$basic_string@DU?$char_traits@D@std@@V?$allocator@D@2@@std@@V?$shared_ptr@VTexture2DArray@@@2@U?$less@V?$basic_string@DU?$char_traits@D@std@@V?$allocator@D@2@@std@@@2@V?$allocator@U?$pair@$$CBV?$basic_string@DU?$char_traits@D@std@@V?$allocator@D@2@@std@@V?$shared_ptr@VTexture2DArray@@@2@@std@@@2@$0A@@std@@SAAEBV?$basic_string@DU?$char_traits@D@std@@V?$allocator@D@2@@1@AEBU?$pair@$$CBV?$basic_string@DU?$char_traits@D@std@@V?$allocator@D@2@@std@@V?$shared_ptr@VTexture2DArray@@@2@@1@@Z 000000014007afe0 f i TextureManager.obj
 0002:00039020       ??$_Lower_bound_duplicate@V?$basic_string@DU?$char_traits@D@std@@V?$allocator@D@2@@std@@@?$_Tree@V?$_Tmap_traits@V?$basic_string@DU?$char_traits@D@std@@V?$allocator@D@2@@std@@V?$shared_ptr@VTexture2DArray@@@2@U?$less@V?$basic_string@DU?$char_traits@D@std@@V?$allocator@D@2@@std@@@2@V?$allocator@U?$pair@$$CBV?$basic_string@DU?$char_traits@D@std@@V?$allocator@D@2@@std@@V?$shared_ptr@VTexture2DArray@@@2@@std@@@2@$0A@@std@@@std@@IEBA_NQEAU?$_Tree_node@U?$pair@$$CBV?$basic_string@DU?$char_traits@D@std@@V?$allocator@D@2@@std@@V?$shared_ptr@VTexture2DArray@@@2@@std@@PEAX@1@AEBV?$basic_string@DU?$char_traits@D@std@@V?$allocator@D@2@@1@@Z 000000014007b020 f i TextureManager.obj
 0002:000390f0       ??$_Move_construct_from@VTexture2DArray@@@?$_Ptr_base@VTexture2DArray@@@std@@IEAAX$$QEAV01@@Z 000000014007b0f0 f i TextureManager.obj
 0002:00039190       ??$_Set_ptr_rep_and_enable_shared@VTexture2DArray@@@?$shared_ptr@VTexture2DArray@@@std@@AEAAXQEAVTexture2DArray@@QEAV_Ref_count_base@1@@Z 000000014007b190 f i TextureManager.obj
 0002:00039200       ??$_Traits_compare@U?$char_traits@D@std@@@std@@YAHQEBD_K01@Z 000000014007b200 f i TextureManager.obj
 0002:000392d0       ??$_Try_emplace@AEBV?$basic_string@DU?$char_traits@D@std@@V?$allocator@D@2@@std@@$$V@?$map@V?$basic_string@DU?$char_traits@D@std@@V?$allocator@D@2@@std@@V?$shared_ptr@VTexture2DArray@@@2@U?$less@V?$basic_string@DU?$char_traits@D@std@@V?$allocator@D@2@@std@@@2@V?$allocator@U?$pair@$$CBV?$basic_string@DU?$char_traits@D@std@@V?$allocator@D@2@@std@@V?$shared_ptr@VTexture2DArray@@@2@@std@@@2@@std@@AEAA?AU?$pair@PEAU?$_Tree_node@U?$pair@$$CBV?$basic_string@DU?$char_traits@D@std@@V?$allocator@D@2@@std@@V?$shared_ptr@VTexture2DArray@@@2@@std@@PEAX@std@@_N@1@AEBV?$basic_string@DU?$char_traits@D@std@@V?$allocator@D@2@@1@@Z 000000014007b2d0 f i TextureManager.obj
 0002:00039540       ??$addressof@$$CBV?$_Tree_val@U?$_Tree_simple_types@U?$pair@$$CBV?$basic_string@DU?$char_traits@D@std@@V?$allocator@D@2@@std@@V?$shared_ptr@VTexture2DArray@@@2@@std@@@std@@@std@@@std@@YAPEBV?$_Tree_val@U?$_Tree_simple_types@U?$pair@$$CBV?$basic_string@DU?$char_traits@D@std@@V?$allocator@D@2@@std@@V?$shared_ptr@VTexture2DArray@@@2@@std@@@std@@@0@AEBV10@@Z 000000014007b540 f i TextureManager.obj
 0002:00039580       ??$addressof@PEAU?$_Tree_node@U?$pair@$$CBV?$basic_string@DU?$char_traits@D@std@@V?$allocator@D@2@@std@@V?$shared_ptr@VTexture2DArray@@@2@@std@@PEAX@std@@@std@@YAPEAPEAU?$_Tree_node@U?$pair@$$CBV?$basic_string@DU?$char_traits@D@std@@V?$allocator@D@2@@std@@V?$shared_ptr@VTexture2DArray@@@2@@std@@PEAX@0@AEAPEAU10@@Z 000000014007b580 f i TextureManager.obj
 0002:000395c0       ??$addressof@U?$pair@$$CBV?$basic_string@DU?$char_traits@D@std@@V?$allocator@D@2@@std@@V?$shared_ptr@VTexture2DArray@@@2@@std@@@std@@YAPEAU?$pair@$$CBV?$basic_string@DU?$char_traits@D@std@@V?$allocator@D@2@@std@@V?$shared_ptr@VTexture2DArray@@@2@@0@AEAU10@@Z 000000014007b5c0 f i TextureManager.obj
 0002:00039600       ??$addressof@V?$_Tree_val@U?$_Tree_simple_types@U?$pair@$$CBV?$basic_string@DU?$char_traits@D@std@@V?$allocator@D@2@@std@@V?$shared_ptr@VTexture2DArray@@@2@@std@@@std@@@std@@@std@@YAPEAV?$_Tree_val@U?$_Tree_simple_types@U?$pair@$$CBV?$basic_string@DU?$char_traits@D@std@@V?$allocator@D@2@@std@@V?$shared_ptr@VTexture2DArray@@@2@@std@@@std@@@0@AEAV10@@Z 000000014007b600 f i TextureManager.obj
 0002:00039640       ??$addressof@VTexture2DArray@@@std@@YAPEAVTexture2DArray@@AEAV1@@Z 000000014007b640 f i TextureManager.obj
 0002:00039680       ??$construct@U?$pair@$$CBV?$basic_string@DU?$char_traits@D@std@@V?$allocator@D@2@@std@@V?$shared_ptr@VTexture2DArray@@@2@@std@@AEBUpiecewise_construct_t@2@V?$tuple@AEBV?$basic_string@DU?$char_traits@D@std@@V?$allocator@D@2@@std@@@2@V?$tuple@$$V@2@@?$_Default_allocator_traits@V?$allocator@U?$_Tree_node@U?$pair@$$CBV?$basic_string@DU?$char_traits@D@std@@V?$allocator@D@2@@std@@V?$shared_ptr@VTexture2DArray@@@2@@std@@PEAX@std@@@std@@@std@@SAXAEAV?$allocator@U?$_Tree_node@U?$pair@$$CBV?$basic_string@DU?$char_traits@D@std@@V?$allocator@D@2@@std@@V?$shared_ptr@VTexture2DArray@@@2@@std@@PEAX@std@@@1@QEAU?$pair@$$CBV?$basic_string@DU?$char_traits@D@std@@V?$allocator@D@2@@std@@V?$shared_ptr@VTexture2DArray@@@2@@1@AEBUpiecewise_construct_t@1@$$QEAV?$tuple@AEBV?$basic_string@DU?$char_traits@D@std@@V?$allocator@D@2@@std@@@1@$$QEAV?$tuple@$$V@1@@Z 000000014007b680 f i TextureManager.obj
 0002:00039770       ??$destroy@U?$pair@$$CBV?$basic_string@DU?$char_traits@D@std@@V?$allocator@D@2@@std@@V?$shared_ptr@VTexture2DArray@@@2@@std@@@?$_Default_allocator_traits@V?$allocator@U?$_Tree_node@U?$pair@$$CBV?$basic_string@DU?$char_traits@D@std@@V?$allocator@D@2@@std@@V?$shared_ptr@VTexture2DArray@@@2@@std@@PEAX@std@@@std@@@std@@SAXAEAV?$allocator@U?$_Tree_node@U?$pair@$$CBV?$basic_string@DU?$char_traits@D@std@@V?$allocator@D@2@@std@@V?$shared_ptr@VTexture2DArray@@@2@@std@@PEAX@std@@@1@QEAU?$pair@$$CBV?$basic_string@DU?$char_traits@D@std@@V?$allocator@D@2@@std@@V?$shared_ptr@VTexture2DArray@@@2@@1@@Z 000000014007b770 f i TextureManager.obj
 0002:000397c0       ??$exchange@PEAU?$_Tree_node@U?$pair@$$CBV?$basic_string@DU?$char_traits@D@std@@V?$allocator@D@2@@std@@V?$shared_ptr@VTexture2DArray@@@2@@std@@PEAX@std@@$$T@std@@YAPEAU?$_Tree_node@U?$pair@$$CBV?$basic_string@DU?$char_traits@D@std@@V?$allocator@D@2@@std@@V?$shared_ptr@VTexture2DArray@@@2@@std@@PEAX@0@AEAPEAU10@$$QEA$$T@Z 000000014007b7c0 f i TextureManager.obj
 0002:00039830       ??$exchange@PEAU?$_Tree_node@U?$pair@$$CBV?$basic_string@DU?$char_traits@D@std@@V?$allocator@D@2@@std@@V?$shared_ptr@VTexture2DArray@@@2@@std@@PEAX@std@@AEAPEAU12@@std@@YAPEAU?$_Tree_node@U?$pair@$$CBV?$basic_string@DU?$char_traits@D@std@@V?$allocator@D@2@@std@@V?$shared_ptr@VTexture2DArray@@@2@@std@@PEAX@0@AEAPEAU10@0@Z 000000014007b830 f i TextureManager.obj
 0002:000398a0       ??$make_shared@VTexture2DArray@@$$V@std@@YA?AV?$shared_ptr@VTexture2DArray@@@0@XZ 000000014007b8a0 f i TextureManager.obj
 0002:00039a00       ??$swap@PEAVTexture2DArray@@$0A@@std@@YAXAEAPEAVTexture2DArray@@0@Z 000000014007ba00 f i TextureManager.obj
 0002:00039a80       ??0?$_Alloc_construct_ptr@V?$allocator@U?$_Tree_node@U?$pair@$$CBV?$basic_string@DU?$char_traits@D@std@@V?$allocator@D@2@@std@@V?$shared_ptr@VTexture2DArray@@@2@@std@@PEAX@std@@@std@@@std@@QEAA@AEAV?$allocator@U?$_Tree_node@U?$pair@$$CBV?$basic_string@DU?$char_traits@D@std@@V?$allocator@D@2@@std@@V?$shared_ptr@VTexture2DArray@@@2@@std@@PEAX@std@@@1@@Z 000000014007ba80 f i TextureManager.obj
 0002:00039af0       ??0?$_Ptr_base@VTexture2DArray@@@std@@IEAA@XZ 000000014007baf0 f i TextureManager.obj
 0002:00039b60       ??0?$_Tree@V?$_Tmap_traits@V?$basic_string@DU?$char_traits@D@std@@V?$allocator@D@2@@std@@V?$shared_ptr@VTexture2DArray@@@2@U?$less@V?$basic_string@DU?$char_traits@D@std@@V?$allocator@D@2@@std@@@2@V?$allocator@U?$pair@$$CBV?$basic_string@DU?$char_traits@D@std@@V?$allocator@D@2@@std@@V?$shared_ptr@VTexture2DArray@@@2@@std@@@2@$0A@@std@@@std@@QEAA@AEBU?$less@V?$basic_string@DU?$char_traits@D@std@@V?$allocator@D@2@@std@@@1@@Z 000000014007bb60 f i TextureManager.obj
 0002:00039bf0       ??0?$_Tree_const_iterator@V?$_Tree_val@U?$_Tree_simple_types@U?$pair@$$CBV?$basic_string@DU?$char_traits@D@std@@V?$allocator@D@2@@std@@V?$shared_ptr@VTexture2DArray@@@2@@std@@@std@@@std@@@std@@QEAA@PEAU?$_Tree_node@U?$pair@$$CBV?$basic_string@DU?$char_traits@D@std@@V?$allocator@D@2@@std@@V?$shared_ptr@VTexture2DArray@@@2@@std@@PEAX@1@PEBV?$_Tree_val@U?$_Tree_simple_types@U?$pair@$$CBV?$basic_string@DU?$char_traits@D@std@@V?$allocator@D@2@@std@@V?$shared_ptr@VTexture2DArray@@@2@@std@@@std@@@1@@Z 000000014007bbf0 f i TextureManager.obj
 0002:00039c50       ??0?$_Tree_iterator@V?$_Tree_val@U?$_Tree_simple_types@U?$pair@$$CBV?$basic_string@DU?$char_traits@D@std@@V?$allocator@D@2@@std@@V?$shared_ptr@VTexture2DArray@@@2@@std@@@std@@@std@@@std@@QEAA@PEAU?$_Tree_node@U?$pair@$$CBV?$basic_string@DU?$char_traits@D@std@@V?$allocator@D@2@@std@@V?$shared_ptr@VTexture2DArray@@@2@@std@@PEAX@1@PEBV?$_Tree_val@U?$_Tree_simple_types@U?$pair@$$CBV?$basic_string@DU?$char_traits@D@std@@V?$allocator@D@2@@std@@V?$shared_ptr@VTexture2DArray@@@2@@std@@@std@@@1@@Z 000000014007bc50 f i TextureManager.obj
 0002:00039cb0       ??0?$_Tree_temp_node_alloc@V?$allocator@U?$_Tree_node@U?$pair@$$CBV?$basic_string@DU?$char_traits@D@std@@V?$allocator@D@2@@std@@V?$shared_ptr@VTexture2DArray@@@2@@std@@PEAX@std@@@std@@@std@@QEAA@AEAV?$allocator@U?$_Tree_node@U?$pair@$$CBV?$basic_string@DU?$char_traits@D@std@@V?$allocator@D@2@@std@@V?$shared_ptr@VTexture2DArray@@@2@@std@@PEAX@std@@@1@@Z 000000014007bcb0 f i TextureManager.obj
 0002:00039d20       ??0?$_Tree_unchecked_const_iterator@V?$_Tree_val@U?$_Tree_simple_types@U?$pair@$$CBV?$basic_string@DU?$char_traits@D@std@@V?$allocator@D@2@@std@@V?$shared_ptr@VTexture2DArray@@@2@@std@@@std@@@std@@U_Iterator_base0@2@@std@@QEAA@PEAU?$_Tree_node@U?$pair@$$CBV?$basic_string@DU?$char_traits@D@std@@V?$allocator@D@2@@std@@V?$shared_ptr@VTexture2DArray@@@2@@std@@PEAX@1@PEBV?$_Tree_val@U?$_Tree_simple_types@U?$pair@$$CBV?$basic_string@DU?$char_traits@D@std@@V?$allocator@D@2@@std@@V?$shared_ptr@VTexture2DArray@@@2@@std@@@std@@@1@@Z 000000014007bd20 f i TextureManager.obj
 0002:00039da0       ??0?$_Tree_unchecked_const_iterator@V?$_Tree_val@U?$_Tree_simple_types@U?$pair@$$CBV?$basic_string@DU?$char_traits@D@std@@V?$allocator@D@2@@std@@V?$shared_ptr@VTexture2DArray@@@2@@std@@@std@@@std@@U_Iterator_base12@2@@std@@QEAA@PEAU?$_Tree_node@U?$pair@$$CBV?$basic_string@DU?$char_traits@D@std@@V?$allocator@D@2@@std@@V?$shared_ptr@VTexture2DArray@@@2@@std@@PEAX@1@PEBV?$_Tree_val@U?$_Tree_simple_types@U?$pair@$$CBV?$basic_string@DU?$char_traits@D@std@@V?$allocator@D@2@@std@@V?$shared_ptr@VTexture2DArray@@@2@@std@@@std@@@1@@Z 000000014007bda0 f i TextureManager.obj
 0002:00039e30       ??0?$_Tree_unchecked_iterator@V?$_Tree_val@U?$_Tree_simple_types@U?$pair@$$CBV?$basic_string@DU?$char_traits@D@std@@V?$allocator@D@2@@std@@V?$shared_ptr@VTexture2DArray@@@2@@std@@@std@@@std@@@std@@QEAA@PEAU?$_Tree_node@U?$pair@$$CBV?$basic_string@DU?$char_traits@D@std@@V?$allocator@D@2@@std@@V?$shared_ptr@VTexture2DArray@@@2@@std@@PEAX@1@PEBV?$_Tree_val@U?$_Tree_simple_types@U?$pair@$$CBV?$basic_string@DU?$char_traits@D@std@@V?$allocator@D@2@@std@@V?$shared_ptr@VTexture2DArray@@@2@@std@@@std@@@1@@Z 000000014007be30 f i TextureManager.obj
 0002:00039e90       ??0?$_Tree_val@U?$_Tree_simple_types@U?$pair@$$CBV?$basic_string@DU?$char_traits@D@std@@V?$allocator@D@2@@std@@V?$shared_ptr@VTexture2DArray@@@2@@std@@@std@@@std@@QEAA@XZ 000000014007be90 f i TextureManager.obj
 0002:00039f10       ??0?$allocator@U?$_Tree_node@U?$pair@$$CBV?$basic_string@DU?$char_traits@D@std@@V?$allocator@D@2@@std@@V?$shared_ptr@VTexture2DArray@@@2@@std@@PEAX@std@@@std@@QEAA@XZ 000000014007bf10 f i TextureManager.obj
 0002:00039f50       ??0?$map@V?$basic_string@DU?$char_traits@D@std@@V?$allocator@D@2@@std@@V?$shared_ptr@VTexture2DArray@@@2@U?$less@V?$basic_string@DU?$char_traits@D@std@@V?$allocator@D@2@@std@@@2@V?$allocator@U?$pair@$$CBV?$basic_string@DU?$char_traits@D@std@@V?$allocator@D@2@@std@@V?$shared_ptr@VTexture2DArray@@@2@@std@@@2@@std@@QEAA@XZ 000000014007bf50 f i TextureManager.obj
 0002:00039fb0       ??0?$shared_ptr@VTexture2DArray@@@std@@QEAA@$$QEAV01@@Z 000000014007bfb0 f i TextureManager.obj
 0002:0003a020       ??0?$shared_ptr@VTexture2DArray@@@std@@QEAA@$$T@Z 000000014007c020 f i TextureManager.obj
 0002:0003a080       ??0?$shared_ptr@VTexture2DArray@@@std@@QEAA@AEBV01@@Z 000000014007c080 f i TextureManager.obj
 0002:0003a0f0       ??0?$shared_ptr@VTexture2DArray@@@std@@QEAA@XZ 000000014007c0f0 f i TextureManager.obj
 0002:0003a140       ??0TextureManager@@AEAA@XZ 000000014007c140 f i TextureManager.obj
 0002:0003a1a0       ??1?$_Alloc_construct_ptr@V?$allocator@U?$_Tree_node@U?$pair@$$CBV?$basic_string@DU?$char_traits@D@std@@V?$allocator@D@2@@std@@V?$shared_ptr@VTexture2DArray@@@2@@std@@PEAX@std@@@std@@@std@@QEAA@XZ 000000014007c1a0 f i TextureManager.obj
 0002:0003a210       ??1?$_Ref_count_obj2@VTexture2DArray@@@std@@UEAA@XZ 000000014007c210 f i TextureManager.obj
 0002:0003a270       ??1?$_Tree_const_iterator@V?$_Tree_val@U?$_Tree_simple_types@U?$pair@$$CBV?$basic_string@DU?$char_traits@D@std@@V?$allocator@D@2@@std@@V?$shared_ptr@VTexture2DArray@@@2@@std@@@std@@@std@@@std@@QEAA@XZ 000000014007c270 f i TextureManager.obj
 0002:0003a2b0       ??1?$_Tree_iterator@V?$_Tree_val@U?$_Tree_simple_types@U?$pair@$$CBV?$basic_string@DU?$char_traits@D@std@@V?$allocator@D@2@@std@@V?$shared_ptr@VTexture2DArray@@@2@@std@@@std@@@std@@@std@@QEAA@XZ 000000014007c2b0 f i TextureManager.obj
 0002:0003a2f0       ??1?$_Tree_temp_node@V?$allocator@U?$_Tree_node@U?$pair@$$CBV?$basic_string@DU?$char_traits@D@std@@V?$allocator@D@2@@std@@V?$shared_ptr@VTexture2DArray@@@2@@std@@PEAX@std@@@std@@@std@@QEAA@XZ 000000014007c2f0 f i TextureManager.obj
 0002:0003a3d0       ??1?$_Tree_temp_node_alloc@V?$allocator@U?$_Tree_node@U?$pair@$$CBV?$basic_string@DU?$char_traits@D@std@@V?$allocator@D@2@@std@@V?$shared_ptr@VTexture2DArray@@@2@@std@@PEAX@std@@@std@@@std@@QEAA@XZ 000000014007c3d0 f i TextureManager.obj
 0002:0003a410       ??1?$_Tree_unchecked_const_iterator@V?$_Tree_val@U?$_Tree_simple_types@U?$pair@$$CBV?$basic_string@DU?$char_traits@D@std@@V?$allocator@D@2@@std@@V?$shared_ptr@VTexture2DArray@@@2@@std@@@std@@@std@@U_Iterator_base12@2@@std@@QEAA@XZ 000000014007c410 f i TextureManager.obj
 0002:0003a450       ??1?$pair@$$CBV?$basic_string@DU?$char_traits@D@std@@V?$allocator@D@2@@std@@V?$shared_ptr@VTexture2DArray@@@2@@std@@QEAA@XZ 000000014007c450 f i TextureManager.obj
 0002:0003a4a0       ??4?$shared_ptr@VTexture2DArray@@@std@@QEAAAEAV01@AEBV01@@Z 000000014007c4a0 f i TextureManager.obj
 0002:0003a520       ??8?$_Tree_const_iterator@V?$_Tree_val@U?$_Tree_simple_types@U?$pair@$$CBV?$basic_string@DU?$char_traits@D@std@@V?$allocator@D@2@@std@@V?$shared_ptr@VTexture2DArray@@@2@@std@@@std@@@std@@@std@@QEBA_NAEBV01@@Z 000000014007c520 f i TextureManager.obj
 0002:0003a670       ??9?$_Tree_const_iterator@V?$_Tree_val@U?$_Tree_simple_types@U?$pair@$$CBV?$basic_string@DU?$char_traits@D@std@@V?$allocator@D@2@@std@@V?$shared_ptr@VTexture2DArray@@@2@@std@@@std@@@std@@@std@@QEBA_NAEBV01@@Z 000000014007c670 f i TextureManager.obj
 0002:0003a6f0       ??9?$_Tree_unchecked_const_iterator@V?$_Tree_val@U?$_Tree_simple_types@U?$pair@$$CBV?$basic_string@DU?$char_traits@D@std@@V?$allocator@D@2@@std@@V?$shared_ptr@VTexture2DArray@@@2@@std@@@std@@@std@@U_Iterator_base0@2@@std@@QEBA_NU_Default_sentinel@1@@Z 000000014007c6f0 f i TextureManager.obj
 0002:0003a770       ??A?$map@V?$basic_string@DU?$char_traits@D@std@@V?$allocator@D@2@@std@@V?$shared_ptr@VTexture2DArray@@@2@U?$less@V?$basic_string@DU?$char_traits@D@std@@V?$allocator@D@2@@std@@@2@V?$allocator@U?$pair@$$CBV?$basic_string@DU?$char_traits@D@std@@V?$allocator@D@2@@std@@V?$shared_ptr@VTexture2DArray@@@2@@std@@@2@@std@@QEAAAEAV?$shared_ptr@VTexture2DArray@@@1@AEBV?$basic_string@DU?$char_traits@D@std@@V?$allocator@D@2@@1@@Z 000000014007c770 f i TextureManager.obj
 0002:0003a7e0       ??D?$_Tree_unchecked_const_iterator@V?$_Tree_val@U?$_Tree_simple_types@U?$pair@$$CBV?$basic_string@DU?$char_traits@D@std@@V?$allocator@D@2@@std@@V?$shared_ptr@VTexture2DArray@@@2@@std@@@std@@@std@@U_Iterator_base0@2@@std@@QEBAAEBU?$pair@$$CBV?$basic_string@DU?$char_traits@D@std@@V?$allocator@D@2@@std@@V?$shared_ptr@VTexture2DArray@@@2@@1@XZ 000000014007c7e0 f i TextureManager.obj
 0002:0003a830       ??D?$_Tree_unchecked_iterator@V?$_Tree_val@U?$_Tree_simple_types@U?$pair@$$CBV?$basic_string@DU?$char_traits@D@std@@V?$allocator@D@2@@std@@V?$shared_ptr@VTexture2DArray@@@2@@std@@@std@@@std@@@std@@QEBAAEAU?$pair@$$CBV?$basic_string@DU?$char_traits@D@std@@V?$allocator@D@2@@std@@V?$shared_ptr@VTexture2DArray@@@2@@1@XZ 000000014007c830 f i TextureManager.obj
 0002:0003a880       ??E?$_Tree_unchecked_const_iterator@V?$_Tree_val@U?$_Tree_simple_types@U?$pair@$$CBV?$basic_string@DU?$char_traits@D@std@@V?$allocator@D@2@@std@@V?$shared_ptr@VTexture2DArray@@@2@@std@@@std@@@std@@U_Iterator_base0@2@@std@@QEAAAEAV01@XZ 000000014007c880 f i TextureManager.obj
 0002:0003a970       ??E?$_Tree_unchecked_iterator@V?$_Tree_val@U?$_Tree_simple_types@U?$pair@$$CBV?$basic_string@DU?$char_traits@D@std@@V?$allocator@D@2@@std@@V?$shared_ptr@VTexture2DArray@@@2@@std@@@std@@@std@@@std@@QEAAAEAV01@XZ 000000014007c970 f i TextureManager.obj
 0002:0003a9c0       ??R?$less@V?$basic_string@DU?$char_traits@D@std@@V?$allocator@D@2@@std@@@std@@QEBA_NAEBV?$basic_string@DU?$char_traits@D@std@@V?$allocator@D@2@@1@0@Z 000000014007c9c0 f i TextureManager.obj
 0002:0003aa20       ??_E?$_Ref_count_obj2@VTexture2DArray@@@std@@UEAAPEAXI@Z 000000014007ca20 f i TextureManager.obj
 0002:0003aa20       ??_G?$_Ref_count_obj2@VTexture2DArray@@@std@@UEAAPEAXI@Z 000000014007ca20 f i TextureManager.obj
 0002:0003aa90       ??_G?$pair@$$CBV?$basic_string@DU?$char_traits@D@std@@V?$allocator@D@2@@std@@V?$shared_ptr@VTexture2DArray@@@2@@std@@QEAAPEAXI@Z 000000014007ca90 f i TextureManager.obj
 0002:0003ab00       ?_Alloc_sentinel_and_proxy@?$_Tree@V?$_Tmap_traits@V?$basic_string@DU?$char_traits@D@std@@V?$allocator@D@2@@std@@V?$shared_ptr@VTexture2DArray@@@2@U?$less@V?$basic_string@DU?$char_traits@D@std@@V?$allocator@D@2@@std@@@2@V?$allocator@U?$pair@$$CBV?$basic_string@DU?$char_traits@D@std@@V?$allocator@D@2@@std@@V?$shared_ptr@VTexture2DArray@@@2@@std@@@2@$0A@@std@@@std@@IEAAXXZ 000000014007cb00 f i TextureManager.obj
 0002:0003ac20       ?_Allocate@?$_Alloc_construct_ptr@V?$allocator@U?$_Tree_node@U?$pair@$$CBV?$basic_string@DU?$char_traits@D@std@@V?$allocator@D@2@@std@@V?$shared_ptr@VTexture2DArray@@@2@@std@@PEAX@std@@@std@@@std@@QEAAXXZ 000000014007cc20 f i TextureManager.obj
 0002:0003ac90       ?_Check_grow_by_1@?$_Tree@V?$_Tmap_traits@V?$basic_string@DU?$char_traits@D@std@@V?$allocator@D@2@@std@@V?$shared_ptr@VTexture2DArray@@@2@U?$less@V?$basic_string@DU?$char_traits@D@std@@V?$allocator@D@2@@std@@@2@V?$allocator@U?$pair@$$CBV?$basic_string@DU?$char_traits@D@std@@V?$allocator@D@2@@std@@V?$shared_ptr@VTexture2DArray@@@2@@std@@@2@$0A@@std@@@std@@IEAAXXZ 000000014007cc90 f i TextureManager.obj
 0002:0003ad10       ?_Delete_this@?$_Ref_count_obj2@VTexture2DArray@@@std@@EEAAXXZ 000000014007cd10 f i TextureManager.obj
 0002:0003ada0       ?_Destroy@?$_Ref_count_obj2@VTexture2DArray@@@std@@EEAAXXZ 000000014007cda0 f i TextureManager.obj
 0002:0003adf0       ?_Get_first@?$_Compressed_pair@U?$less@V?$basic_string@DU?$char_traits@D@std@@V?$allocator@D@2@@std@@@std@@V?$_Compressed_pair@V?$allocator@U?$_Tree_node@U?$pair@$$CBV?$basic_string@DU?$char_traits@D@std@@V?$allocator@D@2@@std@@V?$shared_ptr@VTexture2DArray@@@2@@std@@PEAX@std@@@std@@V?$_Tree_val@U?$_Tree_simple_types@U?$pair@$$CBV?$basic_string@DU?$char_traits@D@std@@V?$allocator@D@2@@std@@V?$shared_ptr@VTexture2DArray@@@2@@std@@@std@@@2@$00@2@$00@std@@QEBAAEBU?$less@V?$basic_string@DU?$char_traits@D@std@@V?$allocator@D@2@@std@@@2@XZ 000000014007cdf0 f i TextureManager.obj
 0002:0003ae30       ?_Get_first@?$_Compressed_pair@V?$allocator@U?$_Tree_node@U?$pair@$$CBV?$basic_string@DU?$char_traits@D@std@@V?$allocator@D@2@@std@@V?$shared_ptr@VTexture2DArray@@@2@@std@@PEAX@std@@@std@@V?$_Tree_val@U?$_Tree_simple_types@U?$pair@$$CBV?$basic_string@DU?$char_traits@D@std@@V?$allocator@D@2@@std@@V?$shared_ptr@VTexture2DArray@@@2@@std@@@std@@@2@$00@std@@QEAAAEAV?$allocator@U?$_Tree_node@U?$pair@$$CBV?$basic_string@DU?$char_traits@D@std@@V?$allocator@D@2@@std@@V?$shared_ptr@VTexture2DArray@@@2@@std@@PEAX@std@@@2@XZ 000000014007ce30 f i TextureManager.obj
 0002:0003ae70       ?_Get_first@?$_Compressed_pair@V?$allocator@U?$_Tree_node@U?$pair@$$CBV?$basic_string@DU?$char_traits@D@std@@V?$allocator@D@2@@std@@V?$shared_ptr@VTexture2DArray@@@2@@std@@PEAX@std@@@std@@V?$_Tree_val@U?$_Tree_simple_types@U?$pair@$$CBV?$basic_string@DU?$char_traits@D@std@@V?$allocator@D@2@@std@@V?$shared_ptr@VTexture2DArray@@@2@@std@@@std@@@2@$00@std@@QEBAAEBV?$allocator@U?$_Tree_node@U?$pair@$$CBV?$basic_string@DU?$char_traits@D@std@@V?$allocator@D@2@@std@@V?$shared_ptr@VTexture2DArray@@@2@@std@@PEAX@std@@@2@XZ 000000014007ce70 f i TextureManager.obj
 0002:0003aeb0       ?_Get_scary@?$_Tree@V?$_Tmap_traits@V?$basic_string@DU?$char_traits@D@std@@V?$allocator@D@2@@std@@V?$shared_ptr@VTexture2DArray@@@2@U?$less@V?$basic_string@DU?$char_traits@D@std@@V?$allocator@D@2@@std@@@2@V?$allocator@U?$pair@$$CBV?$basic_string@DU?$char_traits@D@std@@V?$allocator@D@2@@std@@V?$shared_ptr@VTexture2DArray@@@2@@std@@@2@$0A@@std@@@std@@IEAAPEAV?$_Tree_val@U?$_Tree_simple_types@U?$pair@$$CBV?$basic_string@DU?$char_traits@D@std@@V?$allocator@D@2@@std@@V?$shared_ptr@VTexture2DArray@@@2@@std@@@std@@@2@XZ 000000014007ceb0 f i TextureManager.obj
 0002:0003af00       ?_Get_scary@?$_Tree@V?$_Tmap_traits@V?$basic_string@DU?$char_traits@D@std@@V?$allocator@D@2@@std@@V?$shared_ptr@VTexture2DArray@@@2@U?$less@V?$basic_string@DU?$char_traits@D@std@@V?$allocator@D@2@@std@@@2@V?$allocator@U?$pair@$$CBV?$basic_string@DU?$char_traits@D@std@@V?$allocator@D@2@@std@@V?$shared_ptr@VTexture2DArray@@@2@@std@@@2@$0A@@std@@@std@@IEBAPEBV?$_Tree_val@U?$_Tree_simple_types@U?$pair@$$CBV?$basic_string@DU?$char_traits@D@std@@V?$allocator@D@2@@std@@V?$shared_ptr@VTexture2DArray@@@2@@std@@@std@@@2@XZ 000000014007cf00 f i TextureManager.obj
 0002:0003af50       ?_Getal@?$_Tree@V?$_Tmap_traits@V?$basic_string@DU?$char_traits@D@std@@V?$allocator@D@2@@std@@V?$shared_ptr@VTexture2DArray@@@2@U?$less@V?$basic_string@DU?$char_traits@D@std@@V?$allocator@D@2@@std@@@2@V?$allocator@U?$pair@$$CBV?$basic_string@DU?$char_traits@D@std@@V?$allocator@D@2@@std@@V?$shared_ptr@VTexture2DArray@@@2@@std@@@2@$0A@@std@@@std@@IEAAAEAV?$allocator@U?$_Tree_node@U?$pair@$$CBV?$basic_string@DU?$char_traits@D@std@@V?$allocator@D@2@@std@@V?$shared_ptr@VTexture2DArray@@@2@@std@@PEAX@std@@@2@XZ 000000014007cf50 f i TextureManager.obj
 0002:0003afa0       ?_Getal@?$_Tree@V?$_Tmap_traits@V?$basic_string@DU?$char_traits@D@std@@V?$allocator@D@2@@std@@V?$shared_ptr@VTexture2DArray@@@2@U?$less@V?$basic_string@DU?$char_traits@D@std@@V?$allocator@D@2@@std@@@2@V?$allocator@U?$pair@$$CBV?$basic_string@DU?$char_traits@D@std@@V?$allocator@D@2@@std@@V?$shared_ptr@VTexture2DArray@@@2@@std@@@2@$0A@@std@@@std@@IEBAAEBV?$allocator@U?$_Tree_node@U?$pair@$$CBV?$basic_string@DU?$char_traits@D@std@@V?$allocator@D@2@@std@@V?$shared_ptr@VTexture2DArray@@@2@@std@@PEAX@std@@@2@XZ 000000014007cfa0 f i TextureManager.obj
 0002:0003aff0       ?_Getcomp@?$_Tree@V?$_Tmap_traits@V?$basic_string@DU?$char_traits@D@std@@V?$allocator@D@2@@std@@V?$shared_ptr@VTexture2DArray@@@2@U?$less@V?$basic_string@DU?$char_traits@D@std@@V?$allocator@D@2@@std@@@2@V?$allocator@U?$pair@$$CBV?$basic_string@DU?$char_traits@D@std@@V?$allocator@D@2@@std@@V?$shared_ptr@VTexture2DArray@@@2@@std@@@2@$0A@@std@@@std@@IEBAAEBU?$less@V?$basic_string@DU?$char_traits@D@std@@V?$allocator@D@2@@std@@@2@XZ 000000014007cff0 f i TextureManager.obj
 0002:0003b040       ?_Incref@?$_Ptr_base@VTexture2DArray@@@std@@IEBAXXZ 000000014007d040 f i TextureManager.obj
 0002:0003b0a0       ?_Insert_node@?$_Tree_val@U?$_Tree_simple_types@U?$pair@$$CBV?$basic_string@DU?$char_traits@D@std@@V?$allocator@D@2@@std@@V?$shared_ptr@VTexture2DArray@@@2@@std@@@std@@@std@@QEAAPEAU?$_Tree_node@U?$pair@$$CBV?$basic_string@DU?$char_traits@D@std@@V?$allocator@D@2@@std@@V?$shared_ptr@VTexture2DArray@@@2@@std@@PEAX@2@U?$_Tree_id@PEAU?$_Tree_node@U?$pair@$$CBV?$basic_string@DU?$char_traits@D@std@@V?$allocator@D@2@@std@@V?$shared_ptr@VTexture2DArray@@@2@@std@@PEAX@std@@@2@QEAU32@@Z 000000014007d0a0 f i TextureManager.obj
 0002:0003b470       ?_Lrotate@?$_Tree_val@U?$_Tree_simple_types@U?$pair@$$CBV?$basic_string@DU?$char_traits@D@std@@V?$allocator@D@2@@std@@V?$shared_ptr@VTexture2DArray@@@2@@std@@@std@@@std@@QEAAXPEAU?$_Tree_node@U?$pair@$$CBV?$basic_string@DU?$char_traits@D@std@@V?$allocator@D@2@@std@@V?$shared_ptr@VTexture2DArray@@@2@@std@@PEAX@2@@Z 000000014007d470 f i TextureManager.obj
 0002:0003b5c0       ?_Min@?$_Tree_val@U?$_Tree_simple_types@U?$pair@$$CBV?$basic_string@DU?$char_traits@D@std@@V?$allocator@D@2@@std@@V?$shared_ptr@VTexture2DArray@@@2@@std@@@std@@@std@@SAPEAU?$_Tree_node@U?$pair@$$CBV?$basic_string@DU?$char_traits@D@std@@V?$allocator@D@2@@std@@V?$shared_ptr@VTexture2DArray@@@2@@std@@PEAX@2@PEAU32@@Z 000000014007d5c0 f i TextureManager.obj
 0002:0003b630       ?_Orphan_ptr@?$_Tree_val@U?$_Tree_simple_types@U?$pair@$$CBV?$basic_string@DU?$char_traits@D@std@@V?$allocator@D@2@@std@@V?$shared_ptr@VTexture2DArray@@@2@@std@@@std@@@std@@QEAAXQEAU?$_Tree_node@U?$pair@$$CBV?$basic_string@DU?$char_traits@D@std@@V?$allocator@D@2@@std@@V?$shared_ptr@VTexture2DArray@@@2@@std@@PEAX@2@@Z 000000014007d630 f i TextureManager.obj
 0002:0003b790       ?_Release@?$_Alloc_construct_ptr@V?$allocator@U?$_Tree_node@U?$pair@$$CBV?$basic_string@DU?$char_traits@D@std@@V?$allocator@D@2@@std@@V?$shared_ptr@VTexture2DArray@@@2@@std@@PEAX@std@@@std@@@std@@QEAAPEAU?$_Tree_node@U?$pair@$$CBV?$basic_string@DU?$char_traits@D@std@@V?$allocator@D@2@@std@@V?$shared_ptr@VTexture2DArray@@@2@@std@@PEAX@2@XZ 000000014007d790 f i TextureManager.obj
 0002:0003b800       ?_Rrotate@?$_Tree_val@U?$_Tree_simple_types@U?$pair@$$CBV?$basic_string@DU?$char_traits@D@std@@V?$allocator@D@2@@std@@V?$shared_ptr@VTexture2DArray@@@2@@std@@@std@@@std@@QEAAXPEAU?$_Tree_node@U?$pair@$$CBV?$basic_string@DU?$char_traits@D@std@@V?$allocator@D@2@@std@@V?$shared_ptr@VTexture2DArray@@@2@@std@@PEAX@2@@Z 000000014007d800 f i TextureManager.obj
 0002:0003b960       ?_Swap@?$_Ptr_base@VTexture2DArray@@@std@@IEAAXAEAV12@@Z 000000014007d960 f i TextureManager.obj
 0002:0003b9e0       ?_Throw_tree_length_error@std@@YAXXZ 000000014007d9e0 f i TextureManager.obj
 0002:0003ba20       ?_Unchecked_begin@?$_Tree@V?$_Tmap_traits@V?$basic_string@DU?$char_traits@D@std@@V?$allocator@D@2@@std@@V?$shared_ptr@VTexture2DArray@@@2@U?$less@V?$basic_string@DU?$char_traits@D@std@@V?$allocator@D@2@@std@@@2@V?$allocator@U?$pair@$$CBV?$basic_string@DU?$char_traits@D@std@@V?$allocator@D@2@@std@@V?$shared_ptr@VTexture2DArray@@@2@@std@@@2@$0A@@std@@@std@@QEAA?AV?$_Tree_unchecked_iterator@V?$_Tree_val@U?$_Tree_simple_types@U?$pair@$$CBV?$basic_string@DU?$char_traits@D@std@@V?$allocator@D@2@@std@@V?$shared_ptr@VTexture2DArray@@@2@@std@@@std@@@std@@@2@XZ 000000014007da20 f i TextureManager.obj
 0002:0003ba90       ?_Unchecked_end@?$_Tree@V?$_Tmap_traits@V?$basic_string@DU?$char_traits@D@std@@V?$allocator@D@2@@std@@V?$shared_ptr@VTexture2DArray@@@2@U?$less@V?$basic_string@DU?$char_traits@D@std@@V?$allocator@D@2@@std@@@2@V?$allocator@U?$pair@$$CBV?$basic_string@DU?$char_traits@D@std@@V?$allocator@D@2@@std@@V?$shared_ptr@VTexture2DArray@@@2@@std@@@2@$0A@@std@@@std@@QEBA?AU_Default_sentinel@2@XZ 000000014007da90 f i TextureManager.obj
 0002:0003baf0       ?__autoclassinit2@?$_Tree_unchecked_iterator@V?$_Tree_val@U?$_Tree_simple_types@U?$pair@$$CBV?$basic_string@DU?$char_traits@D@std@@V?$allocator@D@2@@std@@V?$shared_ptr@VTexture2DArray@@@2@@std@@@std@@@std@@@std@@QEAAX_K@Z 000000014007daf0 f i TextureManager.obj
 0002:0003bb30       ?__autoclassinit2@?$shared_ptr@VTexture2DArray@@@std@@QEAAX_K@Z 000000014007db30 f i TextureManager.obj
 0002:0003bb70       ?__autoclassinit2@TextureManager@@QEAAX_K@Z 000000014007db70 f i TextureManager.obj
 0002:0003bbb0       ?allocate@?$allocator@U?$_Tree_node@U?$pair@$$CBV?$basic_string@DU?$char_traits@D@std@@V?$allocator@D@2@@std@@V?$shared_ptr@VTexture2DArray@@@2@@std@@PEAX@std@@@std@@QEAAPEAU?$_Tree_node@U?$pair@$$CBV?$basic_string@DU?$char_traits@D@std@@V?$allocator@D@2@@std@@V?$shared_ptr@VTexture2DArray@@@2@@std@@PEAX@2@_K@Z 000000014007dbb0 f i TextureManager.obj
 0002:0003bc10       ?cleanUp@TextureManager@@QEAAXXZ 000000014007dc10 f   TextureManager.obj
 0002:0003bd60       ?clear@?$_Tree@V?$_Tmap_traits@V?$basic_string@DU?$char_traits@D@std@@V?$allocator@D@2@@std@@V?$shared_ptr@VTexture2DArray@@@2@U?$less@V?$basic_string@DU?$char_traits@D@std@@V?$allocator@D@2@@std@@@2@V?$allocator@U?$pair@$$CBV?$basic_string@DU?$char_traits@D@std@@V?$allocator@D@2@@std@@V?$shared_ptr@VTexture2DArray@@@2@@std@@@2@$0A@@std@@@std@@QEAAXXZ 000000014007dd60 f i TextureManager.obj
 0002:0003be30       ?compare@?$basic_string@DU?$char_traits@D@std@@V?$allocator@D@2@@std@@QEBAHAEBV12@@Z 000000014007de30 f i TextureManager.obj
 0002:0003bed0       ?deallocate@?$_Default_allocator_traits@V?$allocator@U?$_Tree_node@U?$pair@$$CBV?$basic_string@DU?$char_traits@D@std@@V?$allocator@D@2@@std@@V?$shared_ptr@VTexture2DArray@@@2@@std@@PEAX@std@@@std@@@std@@SAXAEAV?$allocator@U?$_Tree_node@U?$pair@$$CBV?$basic_string@DU?$char_traits@D@std@@V?$allocator@D@2@@std@@V?$shared_ptr@VTexture2DArray@@@2@@std@@PEAX@std@@@2@QEAU?$_Tree_node@U?$pair@$$CBV?$basic_string@DU?$char_traits@D@std@@V?$allocator@D@2@@std@@V?$shared_ptr@VTexture2DArray@@@2@@std@@PEAX@2@_K@Z 000000014007ded0 f i TextureManager.obj
 0002:0003bf30       ?deallocate@?$allocator@U?$_Tree_node@U?$pair@$$CBV?$basic_string@DU?$char_traits@D@std@@V?$allocator@D@2@@std@@V?$shared_ptr@VTexture2DArray@@@2@@std@@PEAX@std@@@std@@QEAAXQEAU?$_Tree_node@U?$pair@$$CBV?$basic_string@DU?$char_traits@D@std@@V?$allocator@D@2@@std@@V?$shared_ptr@VTexture2DArray@@@2@@std@@PEAX@2@_K@Z 000000014007df30 f i TextureManager.obj
 0002:0003c040       ?end@?$_Tree@V?$_Tmap_traits@V?$basic_string@DU?$char_traits@D@std@@V?$allocator@D@2@@std@@V?$shared_ptr@VTexture2DArray@@@2@U?$less@V?$basic_string@DU?$char_traits@D@std@@V?$allocator@D@2@@std@@@2@V?$allocator@U?$pair@$$CBV?$basic_string@DU?$char_traits@D@std@@V?$allocator@D@2@@std@@V?$shared_ptr@VTexture2DArray@@@2@@std@@@2@$0A@@std@@@std@@QEAA?AV?$_Tree_iterator@V?$_Tree_val@U?$_Tree_simple_types@U?$pair@$$CBV?$basic_string@DU?$char_traits@D@std@@V?$allocator@D@2@@std@@V?$shared_ptr@VTexture2DArray@@@2@@std@@@std@@@std@@@2@XZ 000000014007e040 f i TextureManager.obj
 0002:0003c0c0       ?find@?$_Tree@V?$_Tmap_traits@V?$basic_string@DU?$char_traits@D@std@@V?$allocator@D@2@@std@@V?$shared_ptr@VTexture2DArray@@@2@U?$less@V?$basic_string@DU?$char_traits@D@std@@V?$allocator@D@2@@std@@@2@V?$allocator@U?$pair@$$CBV?$basic_string@DU?$char_traits@D@std@@V?$allocator@D@2@@std@@V?$shared_ptr@VTexture2DArray@@@2@@std@@@2@$0A@@std@@@std@@QEAA?AV?$_Tree_iterator@V?$_Tree_val@U?$_Tree_simple_types@U?$pair@$$CBV?$basic_string@DU?$char_traits@D@std@@V?$allocator@D@2@@std@@V?$shared_ptr@VTexture2DArray@@@2@@std@@@std@@@std@@@2@AEBV?$basic_string@DU?$char_traits@D@std@@V?$allocator@D@2@@2@@Z 000000014007e0c0 f i TextureManager.obj
 0002:0003c180       ?getInstance@TextureManager@@SAAEAV1@XZ 000000014007e180 f   TextureManager.obj
 0002:0003c250       ?getTextureArray@TextureManager@@QEAA?AV?$shared_ptr@VTexture2DArray@@@std@@V?$basic_string@DU?$char_traits@D@std@@V?$allocator@D@2@@3@@Z 000000014007e250 f   TextureManager.obj
 0002:0003c3f0       ?ldexp@@YAMMH@Z            000000014007e3f0 f i TextureManager.obj
 0002:0003c450       ?loadTextureArray@TextureManager@@QEAA?AV?$shared_ptr@VTexture2DArray@@@std@@PEBDEEV?$basic_string@DU?$char_traits@D@std@@V?$allocator@D@2@@3@@Z 000000014007e450 f   TextureManager.obj
 0002:0003e030       ?max_size@?$_Default_allocator_traits@V?$allocator@U?$_Tree_node@U?$pair@$$CBV?$basic_string@DU?$char_traits@D@std@@V?$allocator@D@2@@std@@V?$shared_ptr@VTexture2DArray@@@2@@std@@PEAX@std@@@std@@@std@@SA_KAEBV?$allocator@U?$_Tree_node@U?$pair@$$CBV?$basic_string@DU?$char_traits@D@std@@V?$allocator@D@2@@std@@V?$shared_ptr@VTexture2DArray@@@2@@std@@PEAX@std@@@2@@Z 0000000140080030 f i TextureManager.obj
 0002:0003e080       ?max_size@?$_Tree@V?$_Tmap_traits@V?$basic_string@DU?$char_traits@D@std@@V?$allocator@D@2@@std@@V?$shared_ptr@VTexture2DArray@@@2@U?$less@V?$basic_string@DU?$char_traits@D@std@@V?$allocator@D@2@@std@@@2@V?$allocator@U?$pair@$$CBV?$basic_string@DU?$char_traits@D@std@@V?$allocator@D@2@@std@@V?$shared_ptr@VTexture2DArray@@@2@@std@@@2@$0A@@std@@@std@@QEBA_KXZ 0000000140080080 f i TextureManager.obj
 0002:0003e100       ?pow@@YAMMM@Z              0000000140080100 f i TextureManager.obj
 0002:0005f4f0       ?swap@?$shared_ptr@VTexture2DArray@@@std@@QEAAXAEAV12@@Z 00000001400a14f0 f i TextureManager.obj
 0002:0005f550       __local_stdio_printf_options 00000001400a1550 f i TextureManager.obj
 0002:0005f590       _vfprintf_l                00000001400a1590 f i TextureManager.obj
 0002:0005f620       ldexpf                     00000001400a1620 f i TextureManager.obj
 0002:0005f680       printf                     00000001400a1680 f i TextureManager.obj
 0002:0005f770       stbi_convert_iphone_png_to_rgb 00000001400a1770 f   TextureManager.obj
 0002:0005f7c0       stbi_convert_iphone_png_to_rgb_thread 00000001400a17c0 f   TextureManager.obj
 0002:0005f850       stbi_failure_reason        00000001400a1850 f   TextureManager.obj
 0002:0005f8b0       stbi_hdr_to_ldr_gamma      00000001400a18b0 f   TextureManager.obj
 0002:0005f910       stbi_hdr_to_ldr_scale      00000001400a1910 f   TextureManager.obj
 0002:0005f970       stbi_image_free            00000001400a1970 f   TextureManager.obj
 0002:0005f9c0       stbi_info                  00000001400a19c0 f   TextureManager.obj
 0002:0005fa80       stbi_info_from_callbacks   00000001400a1a80 f   TextureManager.obj
 0002:0005fb70       stbi_info_from_file        00000001400a1b70 f   TextureManager.obj
 0002:0005fc90       stbi_info_from_memory      00000001400a1c90 f   TextureManager.obj
 0002:0005fd80       stbi_is_16_bit             00000001400a1d80 f   TextureManager.obj
 0002:0005fe10       stbi_is_16_bit_from_callbacks 00000001400a1e10 f   TextureManager.obj
 0002:0005fee0       stbi_is_16_bit_from_file   00000001400a1ee0 f   TextureManager.obj
 0002:0005ffe0       stbi_is_16_bit_from_memory 00000001400a1fe0 f   TextureManager.obj
 0002:000600b0       stbi_is_hdr                00000001400a20b0 f   TextureManager.obj
 0002:00060140       stbi_is_hdr_from_callbacks 00000001400a2140 f   TextureManager.obj
 0002:00060210       stbi_is_hdr_from_file      00000001400a2210 f   TextureManager.obj
 0002:00060300       stbi_is_hdr_from_memory    00000001400a2300 f   TextureManager.obj
 0002:000603d0       stbi_ldr_to_hdr_gamma      00000001400a23d0 f   TextureManager.obj
 0002:00060420       stbi_ldr_to_hdr_scale      00000001400a2420 f   TextureManager.obj
 0002:00060470       stbi_load                  00000001400a2470 f   TextureManager.obj
 0002:00060570       stbi_load_16               00000001400a2570 f   TextureManager.obj
 0002:00060670       stbi_load_16_from_callbacks 00000001400a2670 f   TextureManager.obj
 0002:00060770       stbi_load_16_from_memory   00000001400a2770 f   TextureManager.obj
 0002:00060870       stbi_load_from_callbacks   00000001400a2870 f   TextureManager.obj
 0002:00060970       stbi_load_from_file        00000001400a2970 f   TextureManager.obj
 0002:00060ab0       stbi_load_from_file_16     00000001400a2ab0 f   TextureManager.obj
 0002:00060bf0       stbi_load_from_memory      00000001400a2bf0 f   TextureManager.obj
 0002:00060cf0       stbi_load_gif_from_memory  00000001400a2cf0 f   TextureManager.obj
 0002:00060ed0       stbi_loadf                 00000001400a2ed0 f   TextureManager.obj
 0002:00060fd0       stbi_loadf_from_callbacks  00000001400a2fd0 f   TextureManager.obj
 0002:000610d0       stbi_loadf_from_file       00000001400a30d0 f   TextureManager.obj
 0002:000611d0       stbi_loadf_from_memory     00000001400a31d0 f   TextureManager.obj
 0002:000612d0       stbi_set_flip_vertically_on_load 00000001400a32d0 f   TextureManager.obj
 0002:00061320       stbi_set_flip_vertically_on_load_thread 00000001400a3320 f   TextureManager.obj
 0002:000613b0       stbi_set_unpremultiply_on_load 00000001400a33b0 f   TextureManager.obj
 0002:00061400       stbi_set_unpremultiply_on_load_thread 00000001400a3400 f   TextureManager.obj
 0002:00061490       stbi_zlib_decode_buffer    00000001400a3490 f   TextureManager.obj
 0002:000615c0       stbi_zlib_decode_malloc    00000001400a35c0 f   TextureManager.obj
 0002:00061630       stbi_zlib_decode_malloc_guesssize 00000001400a3630 f   TextureManager.obj
 0002:000617c0       stbi_zlib_decode_malloc_guesssize_headerflag 00000001400a37c0 f   TextureManager.obj
 0002:00061950       stbi_zlib_decode_noheader_buffer 00000001400a3950 f   TextureManager.obj
 0002:00061a80       stbi_zlib_decode_noheader_malloc 00000001400a3a80 f   TextureManager.obj
 0002:00061c00       ??0Voxel@@QEAA@H_N@Z       00000001400a3c00 f   Voxel.obj
 0002:00061c70       ??0Voxel@@QEAA@XZ          00000001400a3c70 f   Voxel.obj
 0002:00061cd0       ??4Voxel@@QEAAAEAV0@AEBV0@@Z 00000001400a3cd0 f   Voxel.obj
 0002:00061d50       ??8Voxel@@QEAA_NAEBV0@@Z   00000001400a3d50 f   Voxel.obj
 0002:00061df0       ?equals@Voxel@@QEAA_NAEBV1@@Z 00000001400a3df0 f   Voxel.obj
 0002:00061e90       ?isSolid@Voxel@@QEAA_NXZ   00000001400a3e90 f   Voxel.obj
 0002:00061f00       glfwInit                   00000001400a3f00 f   glfw3:init.obj
 0002:00061fe0       glfwTerminate              00000001400a3fe0 f   glfw3:init.obj
 0002:00062010       glfwInitHint               00000001400a4010 f   glfw3:init.obj
 0002:00062090       glfwGetVersion             00000001400a4090 f   glfw3:init.obj
 0002:000620f0       glfwGetVersionString       00000001400a40f0 f   glfw3:init.obj
 0002:00062110       glfwGetError               00000001400a4110 f   glfw3:init.obj
 0002:000621b0       glfwSetErrorCallback       00000001400a41b0 f   glfw3:init.obj
 0002:000621f0       _glfwInputError            00000001400a41f0 f   glfw3:init.obj
 0002:00062520       _glfw_strdup               00000001400a4520 f   glfw3:init.obj
 0002:00062580       _glfw_fminf                00000001400a4580 f   glfw3:init.obj
 0002:000625f0       _glfw_fmaxf                00000001400a45f0 f   glfw3:init.obj
 0002:00062a10       vsnprintf                  00000001400a4a10 f i glfw3:init.obj
 0002:00062ab0       glfwDefaultWindowHints     00000001400a4ab0 f   glfw3:window.obj
 0002:00062be0       glfwWindowHint             00000001400a4be0 f   glfw3:window.obj
 0002:00063250       glfwWindowHintString       00000001400a5250 f   glfw3:window.obj
 0002:00063340       glfwCreateWindow           00000001400a5340 f   glfw3:window.obj
 0002:00063780       glfwDestroyWindow          00000001400a5780 f   glfw3:window.obj
 0002:00063850       glfwWindowShouldClose      00000001400a5850 f   glfw3:window.obj
 0002:000638c0       glfwSetWindowShouldClose   00000001400a58c0 f   glfw3:window.obj
 0002:00063930       glfwSetWindowTitle         00000001400a5930 f   glfw3:window.obj
 0002:000639d0       glfwSetWindowIcon          00000001400a59d0 f   glfw3:window.obj
 0002:00063aa0       glfwGetWindowPos           00000001400a5aa0 f   glfw3:window.obj
 0002:00063b40       glfwSetWindowPos           00000001400a5b40 f   glfw3:window.obj
 0002:00063bd0       glfwGetWindowSize          00000001400a5bd0 f   glfw3:window.obj
 0002:00063c70       glfwSetWindowSizeLimits    00000001400a5c70 f   glfw3:window.obj
 0002:00063dd0       glfwSetWindowAspectRatio   00000001400a5dd0 f   glfw3:window.obj
 0002:00063f00       glfwSetWindowSize          00000001400a5f00 f   glfw3:window.obj
 0002:00063fe0       glfwGetFramebufferSize     00000001400a5fe0 f   glfw3:window.obj
 0002:00064080       glfwGetWindowFrameSize     00000001400a6080 f   glfw3:window.obj
 0002:00064160       glfwGetWindowContentScale  00000001400a6160 f   glfw3:window.obj
 0002:00064210       glfwGetWindowOpacity       00000001400a6210 f   glfw3:window.obj
 0002:00064280       glfwSetWindowOpacity       00000001400a6280 f   glfw3:window.obj
 0002:000643c0       glfwIconifyWindow          00000001400a63c0 f   glfw3:window.obj
 0002:00064430       glfwRestoreWindow          00000001400a6430 f   glfw3:window.obj
 0002:000644a0       glfwMaximizeWindow         00000001400a64a0 f   glfw3:window.obj
 0002:00064520       glfwShowWindow             00000001400a6520 f   glfw3:window.obj
 0002:000645b0       glfwHideWindow             00000001400a65b0 f   glfw3:window.obj
 0002:00064630       glfwFocusWindow            00000001400a6630 f   glfw3:window.obj
 0002:000646a0       glfwRequestWindowAttention 00000001400a66a0 f   glfw3:window.obj
 0002:00064710       glfwGetWindowMonitor       00000001400a6710 f   glfw3:window.obj
 0002:00064780       glfwSetWindowMonitor       00000001400a6780 f   glfw3:window.obj
 0002:00064920       glfwGetWindowAttrib        00000001400a6920 f   glfw3:window.obj
 0002:00064bb0       glfwSetWindowAttrib        00000001400a6bb0 f   glfw3:window.obj
 0002:00064d50       glfwSetWindowUserPointer   00000001400a6d50 f   glfw3:window.obj
 0002:00064dc0       glfwGetWindowUserPointer   00000001400a6dc0 f   glfw3:window.obj
 0002:00064e30       glfwSetWindowPosCallback   00000001400a6e30 f   glfw3:window.obj
 0002:00064ed0       glfwSetWindowSizeCallback  00000001400a6ed0 f   glfw3:window.obj
 0002:00064f70       glfwSetWindowCloseCallback 00000001400a6f70 f   glfw3:window.obj
 0002:00065010       glfwSetWindowRefreshCallback 00000001400a7010 f   glfw3:window.obj
 0002:000650b0       glfwSetWindowFocusCallback 00000001400a70b0 f   glfw3:window.obj
 0002:00065150       glfwSetWindowIconifyCallback 00000001400a7150 f   glfw3:window.obj
 0002:000651f0       glfwSetWindowMaximizeCallback 00000001400a71f0 f   glfw3:window.obj
 0002:00065290       glfwSetFramebufferSizeCallback 00000001400a7290 f   glfw3:window.obj
 0002:00065330       glfwSetWindowContentScaleCallback 00000001400a7330 f   glfw3:window.obj
 0002:000653d0       glfwPollEvents             00000001400a73d0 f   glfw3:window.obj
 0002:00065400       glfwWaitEvents             00000001400a7400 f   glfw3:window.obj
 0002:00065430       glfwWaitEventsTimeout      00000001400a7430 f   glfw3:window.obj
 0002:00065540       glfwPostEmptyEvent         00000001400a7540 f   glfw3:window.obj
 0002:00065570       _glfwInputWindowFocus      00000001400a7570 f   glfw3:window.obj
 0002:00065670       _glfwInputWindowPos        00000001400a7670 f   glfw3:window.obj
 0002:000656c0       _glfwInputWindowSize       00000001400a76c0 f   glfw3:window.obj
 0002:00065710       _glfwInputFramebufferSize  00000001400a7710 f   glfw3:window.obj
 0002:00065760       _glfwInputWindowContentScale 00000001400a7760 f   glfw3:window.obj
 0002:000657b0       _glfwInputWindowIconify    00000001400a77b0 f   glfw3:window.obj
 0002:000657f0       _glfwInputWindowMaximize   00000001400a77f0 f   glfw3:window.obj
 0002:00065830       _glfwInputWindowDamage     00000001400a7830 f   glfw3:window.obj
 0002:00065870       _glfwInputWindowCloseRequest 00000001400a7870 f   glfw3:window.obj
 0002:000658c0       _glfwInputWindowMonitor    00000001400a78c0 f   glfw3:window.obj
 0002:00066470       glfwGetInputMode           00000001400a8470 f   glfw3:input.obj
 0002:00066560       glfwSetInputMode           00000001400a8560 f   glfw3:input.obj
 0002:00066870       glfwRawMouseMotionSupported 00000001400a8870 f   glfw3:input.obj
 0002:000668a0       glfwGetKeyName             00000001400a88a0 f   glfw3:input.obj
 0002:00066930       glfwGetKeyScancode         00000001400a8930 f   glfw3:input.obj
 0002:000669a0       glfwGetKey                 00000001400a89a0 f   glfw3:input.obj
 0002:00066a70       glfwGetMouseButton         00000001400a8a70 f   glfw3:input.obj
 0002:00066b40       glfwGetCursorPos           00000001400a8b40 f   glfw3:input.obj
 0002:00066c30       glfwSetCursorPos           00000001400a8c30 f   glfw3:input.obj
 0002:00066d80       glfwCreateCursor           00000001400a8d80 f   glfw3:input.obj
 0002:00066e40       glfwCreateStandardCursor   00000001400a8e40 f   glfw3:input.obj
 0002:00066f20       glfwDestroyCursor          00000001400a8f20 f   glfw3:input.obj
 0002:00067000       glfwSetCursor              00000001400a9000 f   glfw3:input.obj
 0002:00067090       glfwSetKeyCallback         00000001400a9090 f   glfw3:input.obj
 0002:00067130       glfwSetCharCallback        00000001400a9130 f   glfw3:input.obj
 0002:000671d0       glfwSetCharModsCallback    00000001400a91d0 f   glfw3:input.obj
 0002:00067270       glfwSetMouseButtonCallback 00000001400a9270 f   glfw3:input.obj
 0002:00067310       glfwSetCursorPosCallback   00000001400a9310 f   glfw3:input.obj
 0002:000673b0       glfwSetCursorEnterCallback 00000001400a93b0 f   glfw3:input.obj
 0002:00067450       glfwSetScrollCallback      00000001400a9450 f   glfw3:input.obj
 0002:000674f0       glfwSetDropCallback        00000001400a94f0 f   glfw3:input.obj
 0002:00067590       glfwJoystickPresent        00000001400a9590 f   glfw3:input.obj
 0002:00067670       glfwGetJoystickAxes        00000001400a9670 f   glfw3:input.obj
 0002:000677a0       glfwGetJoystickButtons     00000001400a97a0 f   glfw3:input.obj
 0002:00067900       glfwGetJoystickHats        00000001400a9900 f   glfw3:input.obj
 0002:00067a30       glfwGetJoystickName        00000001400a9a30 f   glfw3:input.obj
 0002:00067b20       glfwGetJoystickGUID        00000001400a9b20 f   glfw3:input.obj
 0002:00067c10       glfwSetJoystickUserPointer 00000001400a9c10 f   glfw3:input.obj
 0002:00067cd0       glfwGetJoystickUserPointer 00000001400a9cd0 f   glfw3:input.obj
 0002:00067d80       glfwJoystickIsGamepad      00000001400a9d80 f   glfw3:input.obj
 0002:00067e90       glfwSetJoystickCallback    00000001400a9e90 f   glfw3:input.obj
 0002:00067ef0       glfwUpdateGamepadMappings  00000001400a9ef0 f   glfw3:input.obj
 0002:00068240       glfwGetGamepadName         00000001400aa240 f   glfw3:input.obj
 0002:00068340       glfwGetGamepadState        00000001400aa340 f   glfw3:input.obj
 0002:00068790       glfwSetClipboardString     00000001400aa790 f   glfw3:input.obj
 0002:000687f0       glfwGetClipboardString     00000001400aa7f0 f   glfw3:input.obj
 0002:00068830       glfwGetTime                00000001400aa830 f   glfw3:input.obj
 0002:000688d0       glfwSetTime                00000001400aa8d0 f   glfw3:input.obj
 0002:000689e0       glfwGetTimerValue          00000001400aa9e0 f   glfw3:input.obj
 0002:00068a10       glfwGetTimerFrequency      00000001400aaa10 f   glfw3:input.obj
 0002:00068a40       _glfwInputKey              00000001400aaa40 f   glfw3:input.obj
 0002:00068b70       _glfwInputChar             00000001400aab70 f   glfw3:input.obj
 0002:00068c20       _glfwInputScroll           00000001400aac20 f   glfw3:input.obj
 0002:00068c70       _glfwInputMouseClick       00000001400aac70 f   glfw3:input.obj
 0002:00068d30       _glfwInputCursorPos        00000001400aad30 f   glfw3:input.obj
 0002:00068de0       _glfwInputCursorEnter      00000001400aade0 f   glfw3:input.obj
 0002:00068e20       _glfwInputDrop             00000001400aae20 f   glfw3:input.obj
 0002:00068e70       _glfwInputJoystick         00000001400aae70 f   glfw3:input.obj
 0002:00068ed0       _glfwInputJoystickAxis     00000001400aaed0 f   glfw3:input.obj
 0002:00068f10       _glfwInputJoystickButton   00000001400aaf10 f   glfw3:input.obj
 0002:00068f40       _glfwInputJoystickHat      00000001400aaf40 f   glfw3:input.obj
 0002:00069060       _glfwInitGamepadMappings   00000001400ab060 f   glfw3:input.obj
 0002:00069100       _glfwAllocJoystick         00000001400ab100 f   glfw3:input.obj
 0002:00069270       _glfwFreeJoystick          00000001400ab270 f   glfw3:input.obj
 0002:000692d0       _glfwCenterCursorInContentArea 00000001400ab2d0 f   glfw3:input.obj
 0002:0006ac20       glfwMakeContextCurrent     00000001400acc20 f   glfw3:context.obj
 0002:0006ace0       glfwGetCurrentContext      00000001400acce0 f   glfw3:context.obj
 0002:0006ad20       glfwSwapBuffers            00000001400acd20 f   glfw3:context.obj
 0002:0006adb0       glfwSwapInterval           00000001400acdb0 f   glfw3:context.obj
 0002:0006ae20       glfwExtensionSupported     00000001400ace20 f   glfw3:context.obj
 0002:0006aff0       glfwGetProcAddress         00000001400acff0 f   glfw3:context.obj
 0002:0006b090       _glfwStringInExtensionString 00000001400ad090 f   glfw3:context.obj
 0002:0006b140       _glfwChooseFBConfig        00000001400ad140 f   glfw3:context.obj
 0002:0006b600       _glfwRefreshContextAttribs 00000001400ad600 f   glfw3:context.obj
 0002:0006bdb0       _glfwIsValidContextConfig  00000001400addb0 f   glfw3:context.obj
 0002:0006c610       _vsscanf_l                 00000001400ae610 f i glfw3:context.obj
 0002:0006c680       sscanf                     00000001400ae680 f i glfw3:context.obj
 0002:0006c720       _glfwCreateWideStringFromUTF8Win32 00000001400ae720 f   glfw3:win32_init.obj
 0002:0006c7f0       _glfwCreateUTF8FromWideStringWin32 00000001400ae7f0 f   glfw3:win32_init.obj
 0002:0006c8e0       _glfwIsWindowsVersionOrGreaterWin32 00000001400ae8e0 f   glfw3:win32_init.obj
 0002:0006ca60       _glfwIsWindows10BuildOrGreaterWin32 00000001400aea60 f   glfw3:win32_init.obj
 0002:0006cba0       _glfwInputErrorWin32       00000001400aeba0 f   glfw3:win32_init.obj
 0002:0006ccf0       _glfwUpdateKeyNamesWin32   00000001400aecf0 f   glfw3:win32_init.obj
 0002:0006cf90       _glfwPlatformInit          00000001400aef90 f   glfw3:win32_init.obj
 0002:0006d080       _glfwPlatformTerminate     00000001400af080 f   glfw3:win32_init.obj
 0002:0006d120       _glfwPlatformGetVersionString 00000001400af120 f   glfw3:win32_init.obj
 0002:0006ea50       UIntToPtr                  00000001400b0a50 f i glfw3:win32_init.obj
 0002:0006ea60       _glfwPollMonitorsWin32     00000001400b0a60 f   glfw3:win32_monitor.obj
 0002:0006ee20       _glfwSetVideoModeWin32     00000001400b0e20 f   glfw3:win32_monitor.obj
 0002:0006f0b0       _glfwRestoreVideoModeWin32 00000001400b10b0 f   glfw3:win32_monitor.obj
 0002:0006f110       _glfwGetMonitorContentScaleWin32 00000001400b1110 f   glfw3:win32_monitor.obj
 0002:0006f210       _glfwPlatformFreeMonitor   00000001400b1210 f   glfw3:win32_monitor.obj
 0002:0006f220       _glfwPlatformGetMonitorPos 00000001400b1220 f   glfw3:win32_monitor.obj
 0002:0006f310       _glfwPlatformGetMonitorContentScale 00000001400b1310 f   glfw3:win32_monitor.obj
 0002:0006f350       _glfwPlatformGetMonitorWorkarea 00000001400b1350 f   glfw3:win32_monitor.obj
 0002:0006f460       _glfwPlatformGetVideoModes 00000001400b1460 f   glfw3:win32_monitor.obj
 0002:0006f710       _glfwPlatformGetVideoMode  00000001400b1710 f   glfw3:win32_monitor.obj
 0002:0006f830       _glfwPlatformGetGammaRamp  00000001400b1830 f   glfw3:win32_monitor.obj
 0002:0006f980       _glfwPlatformSetGammaRamp  00000001400b1980 f   glfw3:win32_monitor.obj
 0002:0006ff70       glfwGetWin32Adapter        00000001400b1f70 f   glfw3:win32_monitor.obj
 0002:0006ffc0       glfwGetWin32Monitor        00000001400b1fc0 f   glfw3:win32_monitor.obj
 0002:00070570       _glfwInitTimerWin32        00000001400b2570 f   glfw3:win32_time.obj
 0002:00070590       _glfwPlatformGetTimerValue 00000001400b2590 f   glfw3:win32_time.obj
 0002:000705e0       _glfwPlatformGetTimerFrequency 00000001400b25e0 f   glfw3:win32_time.obj
 0002:00070610       _glfwPlatformCreateTls     00000001400b2610 f   glfw3:win32_thread.obj
 0002:00070690       _glfwPlatformDestroyTls    00000001400b2690 f   glfw3:win32_thread.obj
 0002:000706d0       _glfwPlatformGetTls        00000001400b26d0 f   glfw3:win32_thread.obj
 0002:00070720       _glfwPlatformSetTls        00000001400b2720 f   glfw3:win32_thread.obj
 0002:00070780       _glfwPlatformCreateMutex   00000001400b2780 f   glfw3:win32_thread.obj
 0002:000707e0       _glfwPlatformDestroyMutex  00000001400b27e0 f   glfw3:win32_thread.obj
 0002:00070830       _glfwPlatformLockMutex     00000001400b2830 f   glfw3:win32_thread.obj
 0002:00070880       _glfwPlatformUnlockMutex   00000001400b2880 f   glfw3:win32_thread.obj
 0002:00070980       glfwGetMonitors            00000001400b2980 f   glfw3:monitor.obj
 0002:00070a00       glfwGetPrimaryMonitor      00000001400b2a00 f   glfw3:monitor.obj
 0002:00070a50       glfwGetMonitorPos          00000001400b2a50 f   glfw3:monitor.obj
 0002:00070af0       glfwGetMonitorWorkarea     00000001400b2af0 f   glfw3:monitor.obj
 0002:00070bd0       glfwGetMonitorPhysicalSize 00000001400b2bd0 f   glfw3:monitor.obj
 0002:00070c90       glfwGetMonitorContentScale 00000001400b2c90 f   glfw3:monitor.obj
 0002:00070d40       glfwGetMonitorName         00000001400b2d40 f   glfw3:monitor.obj
 0002:00070db0       glfwSetMonitorUserPointer  00000001400b2db0 f   glfw3:monitor.obj
 0002:00070e30       glfwGetMonitorUserPointer  00000001400b2e30 f   glfw3:monitor.obj
 0002:00070ea0       glfwSetMonitorCallback     00000001400b2ea0 f   glfw3:monitor.obj
 0002:00070f00       glfwGetVideoModes          00000001400b2f00 f   glfw3:monitor.obj
 0002:00070fd0       glfwGetVideoMode           00000001400b2fd0 f   glfw3:monitor.obj
 0002:00071050       glfwSetGamma               00000001400b3050 f   glfw3:monitor.obj
 0002:000712d0       glfwGetGammaRamp           00000001400b32d0 f   glfw3:monitor.obj
 0002:00071370       glfwSetGammaRamp           00000001400b3370 f   glfw3:monitor.obj
 0002:00071500       _glfwInputMonitor          00000001400b3500 f   glfw3:monitor.obj
 0002:000717b0       _glfwInputMonitorWindow    00000001400b37b0 f   glfw3:monitor.obj
 0002:000717e0       _glfwChooseVideoMode       00000001400b37e0 f   glfw3:monitor.obj
 0002:00071a10       _glfwCompareVideoModes     00000001400b3a10 f   glfw3:monitor.obj
 0002:00071a40       _glfwAllocMonitor          00000001400b3a40 f   glfw3:monitor.obj
 0002:00071ab0       _glfwFreeMonitor           00000001400b3ab0 f   glfw3:monitor.obj
 0002:00071b20       _glfwAllocGammaArrays      00000001400b3b20 f   glfw3:monitor.obj
 0002:00071ba0       _glfwFreeGammaArrays       00000001400b3ba0 f   glfw3:monitor.obj
 0002:00071c00       _glfwSplitBPP              00000001400b3c00 f   glfw3:monitor.obj
 0002:000723b0       glfwVulkanSupported        00000001400b43b0 f   glfw3:vulkan.obj
 0002:000723f0       glfwGetRequiredInstanceExtensions 00000001400b43f0 f   glfw3:vulkan.obj
 0002:00072490       _glfwInitVulkan            00000001400b4490 f   glfw3:vulkan.obj
 0002:00072700       _glfwTerminateVulkan       00000001400b4700 f   glfw3:vulkan.obj
 0002:00072730       _glfwGetVulkanResultString 00000001400b4730 f   glfw3:vulkan.obj
 0002:00072920       glfwGetInstanceProcAddress 00000001400b4920 f   glfw3:vulkan.obj
 0002:000729d0       glfwGetPhysicalDevicePresentationSupport 00000001400b49d0 f   glfw3:vulkan.obj
 0002:00072ab0       glfwCreateWindowSurface    00000001400b4ab0 f   glfw3:vulkan.obj
 0002:00072e10       _glfwRegisterWindowClassWin32 00000001400b4e10 f   glfw3:win32_window.obj
 0002:00072f40       _glfwUnregisterWindowClassWin32 00000001400b4f40 f   glfw3:win32_window.obj
 0002:00072f70       _glfwPlatformGetCursorPos  00000001400b4f70 f   glfw3:win32_window.obj
 0002:00073010       _glfwPlatformSetCursorPos  00000001400b5010 f   glfw3:win32_window.obj
 0002:000730b0       _glfwPlatformSetCursorMode 00000001400b50b0 f   glfw3:win32_window.obj
 0002:00073120       _glfwPlatformSetRawMouseMotion 00000001400b5120 f   glfw3:win32_window.obj
 0002:00073170       _glfwPlatformRawMouseMotionSupported 00000001400b5170 f   glfw3:win32_window.obj
 0002:00073180       _glfwPlatformCreateCursor  00000001400b5180 f   glfw3:win32_window.obj
 0002:000731e0       _glfwPlatformCreateStandardCursor 00000001400b51e0 f   glfw3:win32_window.obj
 0002:000732e0       _glfwPlatformDestroyCursor 00000001400b52e0 f   glfw3:win32_window.obj
 0002:00073320       _glfwPlatformSetCursor     00000001400b5320 f   glfw3:win32_window.obj
 0002:00073360       _glfwPlatformGetScancodeName 00000001400b5360 f   glfw3:win32_window.obj
 0002:000733e0       _glfwPlatformGetKeyScancode 00000001400b53e0 f   glfw3:win32_window.obj
 0002:00073400       _glfwPlatformSetClipboardString 00000001400b5400 f   glfw3:win32_window.obj
 0002:00073550       _glfwPlatformGetClipboardString 00000001400b5550 f   glfw3:win32_window.obj
 0002:00073630       _glfwPlatformCreateWindow  00000001400b5630 f   glfw3:win32_window.obj
 0002:00073770       _glfwPlatformDestroyWindow 00000001400b5770 f   glfw3:win32_window.obj
 0002:00073860       _glfwPlatformSetWindowTitle 00000001400b5860 f   glfw3:win32_window.obj
 0002:000738c0       _glfwPlatformSetWindowIcon 00000001400b58c0 f   glfw3:win32_window.obj
 0002:00073a90       _glfwPlatformGetWindowPos  00000001400b5a90 f   glfw3:win32_window.obj
 0002:00073b30       _glfwPlatformSetWindowPos  00000001400b5b30 f   glfw3:win32_window.obj
 0002:00073ca0       _glfwPlatformGetWindowSize 00000001400b5ca0 f   glfw3:win32_window.obj
 0002:00073d50       _glfwPlatformSetWindowSize 00000001400b5d50 f   glfw3:win32_window.obj
 0002:00073f10       _glfwPlatformSetWindowSizeLimits 00000001400b5f10 f   glfw3:win32_window.obj
 0002:00074010       _glfwPlatformSetWindowAspectRatio 00000001400b6010 f   glfw3:win32_window.obj
 0002:00074100       _glfwPlatformGetFramebufferSize 00000001400b6100 f   glfw3:win32_window.obj
 0002:00074140       _glfwPlatformGetWindowFrameSize 00000001400b6140 f   glfw3:win32_window.obj
 0002:00074320       _glfwPlatformGetWindowContentScale 00000001400b6320 f   glfw3:win32_window.obj
 0002:00074370       _glfwPlatformIconifyWindow 00000001400b6370 f   glfw3:win32_window.obj
 0002:000743a0       _glfwPlatformRestoreWindow 00000001400b63a0 f   glfw3:win32_window.obj
 0002:000743d0       _glfwPlatformMaximizeWindow 00000001400b63d0 f   glfw3:win32_window.obj
 0002:00074400       _glfwPlatformShowWindow    00000001400b6400 f   glfw3:win32_window.obj
 0002:00074430       _glfwPlatformHideWindow    00000001400b6430 f   glfw3:win32_window.obj
 0002:00074460       _glfwPlatformRequestWindowAttention 00000001400b6460 f   glfw3:win32_window.obj
 0002:00074490       _glfwPlatformFocusWindow   00000001400b6490 f   glfw3:win32_window.obj
 0002:000744e0       _glfwPlatformSetWindowMonitor 00000001400b64e0 f   glfw3:win32_window.obj
 0002:00074ab0       _glfwPlatformWindowFocused 00000001400b6ab0 f   glfw3:win32_window.obj
 0002:00074af0       _glfwPlatformWindowIconified 00000001400b6af0 f   glfw3:win32_window.obj
 0002:00074b20       _glfwPlatformWindowVisible 00000001400b6b20 f   glfw3:win32_window.obj
 0002:00074b50       _glfwPlatformWindowMaximized 00000001400b6b50 f   glfw3:win32_window.obj
 0002:00074b80       _glfwPlatformWindowHovered 00000001400b6b80 f   glfw3:win32_window.obj
 0002:00074ba0       _glfwPlatformFramebufferTransparent 00000001400b6ba0 f   glfw3:win32_window.obj
 0002:00074c70       _glfwPlatformGetWindowOpacity 00000001400b6c70 f   glfw3:win32_window.obj
 0002:00074d30       _glfwPlatformSetWindowResizable 00000001400b6d30 f   glfw3:win32_window.obj
 0002:00074d60       _glfwPlatformSetWindowDecorated 00000001400b6d60 f   glfw3:win32_window.obj
 0002:00074d90       _glfwPlatformSetWindowFloating 00000001400b6d90 f   glfw3:win32_window.obj
 0002:00074e10       _glfwPlatformSetWindowOpacity 00000001400b6e10 f   glfw3:win32_window.obj
 0002:00074f00       _glfwPlatformPollEvents    00000001400b6f00 f   glfw3:win32_window.obj
 0002:00075210       _glfwPlatformWaitEvents    00000001400b7210 f   glfw3:win32_window.obj
 0002:00075230       _glfwPlatformWaitEventsTimeout 00000001400b7230 f   glfw3:win32_window.obj
 0002:00075280       _glfwPlatformPostEmptyEvent 00000001400b7280 f   glfw3:win32_window.obj
 0002:000752b0       _glfwPlatformGetRequiredInstanceExtensions 00000001400b72b0 f   glfw3:win32_window.obj
 0002:00075310       _glfwPlatformGetPhysicalDevicePresentationSupport 00000001400b7310 f   glfw3:win32_window.obj
 0002:00075380       _glfwPlatformCreateWindowSurface 00000001400b7380 f   glfw3:win32_window.obj
 0002:00078860       glfwGetWin32Window         00000001400ba860 f   glfw3:win32_window.obj
 0002:00079f50       _glfwInitJoysticksWin32    00000001400bbf50 f   glfw3:win32_joystick.obj
 0002:00079fc0       _glfwTerminateJoysticksWin32 00000001400bbfc0 f   glfw3:win32_joystick.obj
 0002:0007a030       _glfwDetectJoystickConnectionWin32 00000001400bc030 f   glfw3:win32_joystick.obj
 0002:0007a230       _glfwDetectJoystickDisconnectionWin32 00000001400bc230 f   glfw3:win32_joystick.obj
 0002:0007a2a0       _glfwPlatformPollJoystick  00000001400bc2a0 f   glfw3:win32_joystick.obj
 0002:0007a9d0       _glfwPlatformUpdateGamepadGUID 00000001400bc9d0 f   glfw3:win32_joystick.obj
 0002:0007c000       _vsnprintf_l               00000001400be000 f i glfw3:win32_joystick.obj
 0002:0007c0a0       _vsprintf_l                00000001400be0a0 f i glfw3:win32_joystick.obj
 0002:0007c100       sprintf                    00000001400be100 f i glfw3:win32_joystick.obj
 0002:0007c1a0       _glfwInitWGL               00000001400be1a0 f   glfw3:wgl_context.obj
 0002:0007c580       _glfwTerminateWGL          00000001400be580 f   glfw3:wgl_context.obj
 0002:0007c5b0       _glfwCreateContextWGL      00000001400be5b0 f   glfw3:wgl_context.obj
 0002:0007e300       glfwGetWGLContext          00000001400c0300 f   glfw3:wgl_context.obj
 0002:0007ebd0       _glfwInitEGL               00000001400c0bd0 f   glfw3:egl_context.obj
 0002:0007f070       _glfwTerminateEGL          00000001400c1070 f   glfw3:egl_context.obj
 0002:0007f0d0       _glfwCreateContextEGL      00000001400c10d0 f   glfw3:egl_context.obj
 0002:00080510       glfwGetEGLDisplay          00000001400c2510 f   glfw3:egl_context.obj
 0002:00080550       glfwGetEGLContext          00000001400c2550 f   glfw3:egl_context.obj
 0002:000805c0       glfwGetEGLSurface          00000001400c25c0 f   glfw3:egl_context.obj
 0002:00080cc0       _glfwInitOSMesa            00000001400c2cc0 f   glfw3:osmesa_context.obj
 0002:00080ed0       _glfwTerminateOSMesa       00000001400c2ed0 f   glfw3:osmesa_context.obj
 0002:00080f10       _glfwCreateContextOSMesa   00000001400c2f10 f   glfw3:osmesa_context.obj
 0002:00081760       glfwGetOSMesaColorBuffer   00000001400c3760 f   glfw3:osmesa_context.obj
 0002:000818f0       glfwGetOSMesaDepthBuffer   00000001400c38f0 f   glfw3:osmesa_context.obj
 0002:00081a80       glfwGetOSMesaContext       00000001400c3a80 f   glfw3:osmesa_context.obj
 0002:00081e68       FreeLibrary                00000001400c3e68 f   kernel32:KERNEL32.dll
 0002:00081e6e       GetProcAddress             00000001400c3e6e f   kernel32:KERNEL32.dll
 0002:00081e74       LoadLibraryW               00000001400c3e74 f   kernel32:KERNEL32.dll
 0002:00081e7a       VerSetConditionMask        00000001400c3e7a f   kernel32:KERNEL32.dll
 0002:00081e80       GetLastError               00000001400c3e80 f   kernel32:KERNEL32.dll
 0002:00081e86       GetModuleHandleW           00000001400c3e86 f   kernel32:KERNEL32.dll
 0002:00081e8c       LoadLibraryA               00000001400c3e8c f   kernel32:KERNEL32.dll
 0002:00081e92       FormatMessageW             00000001400c3e92 f   kernel32:KERNEL32.dll
 0002:00081e98       MultiByteToWideChar        00000001400c3e98 f   kernel32:KERNEL32.dll
 0002:00081e9e       WideCharToMultiByte        00000001400c3e9e f   kernel32:KERNEL32.dll
 0002:00081ea4       QueryPerformanceCounter    00000001400c3ea4 f   kernel32:KERNEL32.dll
 0002:00081eaa       QueryPerformanceFrequency  00000001400c3eaa f   kernel32:KERNEL32.dll
 0002:00081eb0       InitializeCriticalSection  00000001400c3eb0 f   kernel32:KERNEL32.dll
 0002:00081eb6       EnterCriticalSection       00000001400c3eb6 f   kernel32:KERNEL32.dll
 0002:00081ebc       LeaveCriticalSection       00000001400c3ebc f   kernel32:KERNEL32.dll
 0002:00081ec2       DeleteCriticalSection      00000001400c3ec2 f   kernel32:KERNEL32.dll
 0002:00081ec8       TlsAlloc                   00000001400c3ec8 f   kernel32:KERNEL32.dll
 0002:00081ece       TlsGetValue                00000001400c3ece f   kernel32:KERNEL32.dll
 0002:00081ed4       TlsSetValue                00000001400c3ed4 f   kernel32:KERNEL32.dll
 0002:00081eda       TlsFree                    00000001400c3eda f   kernel32:KERNEL32.dll
 0002:00081ee0       GlobalAlloc                00000001400c3ee0 f   kernel32:KERNEL32.dll
 0002:00081ee6       GlobalUnlock               00000001400c3ee6 f   kernel32:KERNEL32.dll
 0002:00081eec       GlobalLock                 00000001400c3eec f   kernel32:KERNEL32.dll
 0002:00081ef2       GlobalFree                 00000001400c3ef2 f   kernel32:KERNEL32.dll
 0002:00081ef8       SetThreadExecutionState    00000001400c3ef8 f   kernel32:KERNEL32.dll
 0002:00081efe       TranslateMessage           00000001400c3efe f   user32:USER32.dll
 0002:00081f04       DispatchMessageW           00000001400c3f04 f   user32:USER32.dll
 0002:00081f0a       PeekMessageW               00000001400c3f0a f   user32:USER32.dll
 0002:00081f10       RegisterDeviceNotificationW 00000001400c3f10 f   user32:USER32.dll
 0002:00081f16       UnregisterDeviceNotification 00000001400c3f16 f   user32:USER32.dll
 0002:00081f1c       CreateWindowExW            00000001400c3f1c f   user32:USER32.dll
 0002:00081f22       DestroyWindow              00000001400c3f22 f   user32:USER32.dll
 0002:00081f28       ShowWindow                 00000001400c3f28 f   user32:USER32.dll
 0002:00081f2e       ToUnicode                  00000001400c3f2e f   user32:USER32.dll
 0002:00081f34       MapVirtualKeyW             00000001400c3f34 f   user32:USER32.dll
 0002:00081f3a       SystemParametersInfoW      00000001400c3f3a f   user32:USER32.dll
 0002:00081f40       GetDC                      00000001400c3f40 f   user32:USER32.dll
 0002:00081f46       ReleaseDC                  00000001400c3f46 f   user32:USER32.dll
 0002:00081f4c       ChangeDisplaySettingsExW   00000001400c3f4c f   user32:USER32.dll
 0002:00081f52       EnumDisplaySettingsW       00000001400c3f52 f   user32:USER32.dll
 0002:00081f58       EnumDisplaySettingsExW     00000001400c3f58 f   user32:USER32.dll
 0002:00081f5e       EnumDisplayDevicesW        00000001400c3f5e f   user32:USER32.dll
 0002:00081f64       GetMonitorInfoW            00000001400c3f64 f   user32:USER32.dll
 0002:00081f6a       EnumDisplayMonitors        00000001400c3f6a f   user32:USER32.dll
 0002:00081f70       TrackMouseEvent            00000001400c3f70 f   user32:USER32.dll
 0002:00081f76       GetMessageTime             00000001400c3f76 f   user32:USER32.dll
 0002:00081f7c       SendMessageW               00000001400c3f7c f   user32:USER32.dll
 0002:00081f82       PostMessageW               00000001400c3f82 f   user32:USER32.dll
 0002:00081f88       WaitMessage                00000001400c3f88 f   user32:USER32.dll
 0002:00081f8e       DefWindowProcW             00000001400c3f8e f   user32:USER32.dll
 0002:00081f94       UnregisterClassW           00000001400c3f94 f   user32:USER32.dll
 0002:00081f9a       RegisterClassExW           00000001400c3f9a f   user32:USER32.dll
 0002:00081fa0       GetLayeredWindowAttributes 00000001400c3fa0 f   user32:USER32.dll
 0002:00081fa6       SetLayeredWindowAttributes 00000001400c3fa6 f   user32:USER32.dll
 0002:00081fac       FlashWindow                00000001400c3fac f   user32:USER32.dll
 0002:00081fb2       MoveWindow                 00000001400c3fb2 f   user32:USER32.dll
 0002:00081fb8       SetWindowPos               00000001400c3fb8 f   user32:USER32.dll
 0002:00081fbe       GetWindowPlacement         00000001400c3fbe f   user32:USER32.dll
 0002:00081fc4       SetWindowPlacement         00000001400c3fc4 f   user32:USER32.dll
 0002:00081fca       IsWindowVisible            00000001400c3fca f   user32:USER32.dll
 0002:00081fd0       IsIconic                   00000001400c3fd0 f   user32:USER32.dll
 0002:00081fd6       BringWindowToTop           00000001400c3fd6 f   user32:USER32.dll
 0002:00081fdc       IsZoomed                   00000001400c3fdc f   user32:USER32.dll
 0002:00081fe2       OpenClipboard              00000001400c3fe2 f   user32:USER32.dll
 0002:00081fe8       CloseClipboard             00000001400c3fe8 f   user32:USER32.dll
 0002:00081fee       SetClipboardData           00000001400c3fee f   user32:USER32.dll
 0002:00081ff4       GetClipboardData           00000001400c3ff4 f   user32:USER32.dll
 0002:00081ffa       EmptyClipboard             00000001400c3ffa f   user32:USER32.dll
 0002:00082000       SetFocus                   00000001400c4000 f   user32:USER32.dll
 0002:00082006       GetActiveWindow            00000001400c4006 f   user32:USER32.dll
 0002:0008200c       GetKeyState                00000001400c400c f   user32:USER32.dll
 0002:00082012       SetCapture                 00000001400c4012 f   user32:USER32.dll
 0002:00082018       ReleaseCapture             00000001400c4018 f   user32:USER32.dll
 0002:0008201e       MsgWaitForMultipleObjects  00000001400c401e f   user32:USER32.dll
 0002:00082024       GetSystemMetrics           00000001400c4024 f   user32:USER32.dll
 0002:0008202a       SetForegroundWindow        00000001400c402a f   user32:USER32.dll
 0002:00082030       SetPropW                   00000001400c4030 f   user32:USER32.dll
 0002:00082036       GetPropW                   00000001400c4036 f   user32:USER32.dll
 0002:0008203c       RemovePropW                00000001400c403c f   user32:USER32.dll
 0002:00082042       SetWindowTextW             00000001400c4042 f   user32:USER32.dll
 0002:00082048       GetClientRect              00000001400c4048 f   user32:USER32.dll
 0002:0008204e       GetWindowRect              00000001400c404e f   user32:USER32.dll
 0002:00082054       AdjustWindowRectEx         00000001400c4054 f   user32:USER32.dll
 0002:0008205a       SetCursorPos               00000001400c405a f   user32:USER32.dll
 0002:00082060       SetCursor                  00000001400c4060 f   user32:USER32.dll
 0002:00082066       GetCursorPos               00000001400c4066 f   user32:USER32.dll
 0002:0008206c       ClientToScreen             00000001400c406c f   user32:USER32.dll
 0002:00082072       ScreenToClient             00000001400c4072 f   user32:USER32.dll
 0002:00082078       WindowFromPoint            00000001400c4078 f   user32:USER32.dll
 0002:0008207e       ClipCursor                 00000001400c407e f   user32:USER32.dll
 0002:00082084       SetRect                    00000001400c4084 f   user32:USER32.dll
 0002:0008208a       PtInRect                   00000001400c408a f   user32:USER32.dll
 0002:00082090       GetWindowLongW             00000001400c4090 f   user32:USER32.dll
 0002:00082096       SetWindowLongW             00000001400c4096 f   user32:USER32.dll
 0002:0008209c       GetClassLongPtrW           00000001400c409c f   user32:USER32.dll
 0002:000820a2       LoadCursorW                00000001400c40a2 f   user32:USER32.dll
 0002:000820a8       DestroyIcon                00000001400c40a8 f   user32:USER32.dll
 0002:000820ae       LoadImageW                 00000001400c40ae f   user32:USER32.dll
 0002:000820b4       CreateIconIndirect         00000001400c40b4 f   user32:USER32.dll
 0002:000820ba       MonitorFromWindow          00000001400c40ba f   user32:USER32.dll
 0002:000820c0       GetRawInputData            00000001400c40c0 f   user32:USER32.dll
 0002:000820c6       RegisterRawInputDevices    00000001400c40c6 f   user32:USER32.dll
 0002:000820cc       GetRawInputDeviceInfoA     00000001400c40cc f   user32:USER32.dll
 0002:000820d2       GetRawInputDeviceList      00000001400c40d2 f   user32:USER32.dll
 0002:000820d8       CreateDCW                  00000001400c40d8 f   gdi32:GDI32.dll
 0002:000820de       DeleteDC                   00000001400c40de f   gdi32:GDI32.dll
 0002:000820e4       GetDeviceCaps              00000001400c40e4 f   gdi32:GDI32.dll
 0002:000820ea       GetDeviceGammaRamp         00000001400c40ea f   gdi32:GDI32.dll
 0002:000820f0       SetDeviceGammaRamp         00000001400c40f0 f   gdi32:GDI32.dll
 0002:000820f6       CreateBitmap               00000001400c40f6 f   gdi32:GDI32.dll
 0002:000820fc       CreateRectRgn              00000001400c40fc f   gdi32:GDI32.dll
 0002:00082102       DeleteObject               00000001400c4102 f   gdi32:GDI32.dll
 0002:00082108       CreateDIBSection           00000001400c4108 f   gdi32:GDI32.dll
 0002:0008210e       ChoosePixelFormat          00000001400c410e f   gdi32:GDI32.dll
 0002:00082114       DescribePixelFormat        00000001400c4114 f   gdi32:GDI32.dll
 0002:0008211a       SetPixelFormat             00000001400c411a f   gdi32:GDI32.dll
 0002:00082120       SwapBuffers                00000001400c4120 f   gdi32:GDI32.dll
 0002:00082126       DragQueryFileW             00000001400c4126 f   shell32:SHELL32.dll
 0002:0008212c       DragQueryPoint             00000001400c412c f   shell32:SHELL32.dll
 0002:00082132       DragFinish                 00000001400c4132 f   shell32:SHELL32.dll
 0002:00082138       DragAcceptFiles            00000001400c4138 f   shell32:SHELL32.dll
 0002:00082140       _RTC_AllocaHelper          00000001400c4140 f   MSVCRTD:stack.obj
 0002:00082190       _RTC_CheckStackVars        00000001400c4190 f   MSVCRTD:stack.obj
 0002:00082240       _RTC_CheckStackVars2       00000001400c4240 f   MSVCRTD:stack.obj
 0002:00082390       _CRT_RTC_INIT              00000001400c4390 f   MSVCRTD:init.obj
 0002:000823a0       _CRT_RTC_INITW             00000001400c43a0 f   MSVCRTD:init.obj
 0002:000823b0       _RTC_InitBase              00000001400c43b0 f   MSVCRTD:init.obj
 0002:00082400       _RTC_Shutdown              00000001400c4400 f   MSVCRTD:init.obj
 0002:00082430       __CheckForDebuggerJustMyCode 00000001400c4430 f   MSVCRTD:debugger_jmc.obj
 0002:00082480       __GSHandlerCheck           00000001400c4480 f   MSVCRTD:gshandler.obj
 0002:000824d0       __GSHandlerCheckCommon     00000001400c44d0 f   MSVCRTD:gshandler.obj
 0002:00082620       __security_check_cookie    00000001400c4620 f   MSVCRTD:amdsecgs.obj
 0002:00082650       ??3@YAXPEAX_K@Z            00000001400c4650 f   MSVCRTD:delete_scalar_size.obj
 0002:00082680       ??1type_info@@UEAA@XZ      00000001400c4680 f   MSVCRTD:std_type_info_static.obj
 0002:000826a0       ??_Etype_info@@UEAAPEAXI@Z 00000001400c46a0 f i MSVCRTD:std_type_info_static.obj
 0002:000826a0       ??_Gtype_info@@UEAAPEAXI@Z 00000001400c46a0 f i MSVCRTD:std_type_info_static.obj
 0002:000826f0       ??2@YAPEAX_K@Z             00000001400c46f0 f   MSVCRTD:new_scalar.obj
 0002:00082760       __GSHandlerCheck_EH4       00000001400c4760 f   MSVCRTD:gshandlereh4.obj
 0002:00082830       _Init_thread_abort         00000001400c4830 f   MSVCRTD:thread_safe_statics.obj
 0002:00082870       _Init_thread_footer        00000001400c4870 f   MSVCRTD:thread_safe_statics.obj
 0002:000828f0       _Init_thread_header        00000001400c48f0 f   MSVCRTD:thread_safe_statics.obj
 0002:000829a0       _Init_thread_lock          00000001400c49a0 f   MSVCRTD:thread_safe_statics.obj
 0002:000829c0       _Init_thread_notify        00000001400c49c0 f   MSVCRTD:thread_safe_statics.obj
 0002:000829e0       _Init_thread_unlock        00000001400c49e0 f   MSVCRTD:thread_safe_statics.obj
 0002:00082a00       _Init_thread_wait_v2       00000001400c4a00 f   MSVCRTD:thread_safe_statics.obj
 0002:00082a30       ?configure_argv@__scrt_narrow_argv_policy@@SAHXZ 00000001400c4a30 f i MSVCRTD:utility.obj
 0002:00082b50       ?initialize_environment@__scrt_narrow_environment_policy@@SAHXZ 00000001400c4b50 f i MSVCRTD:utility.obj
 0002:00082c20       NtCurrentTeb               00000001400c4c20 f i MSVCRTD:utility.obj
 0002:00082c30       __scrt_acquire_startup_lock 00000001400c4c30 f   MSVCRTD:utility.obj
 0002:00082cb0       __scrt_dllmain_after_initialize_c 00000001400c4cb0 f   MSVCRTD:utility.obj
 0002:00082cf0       __scrt_dllmain_before_initialize_c 00000001400c4cf0 f   MSVCRTD:utility.obj
 0002:00082d20       __scrt_dllmain_crt_thread_attach 00000001400c4d20 f   MSVCRTD:utility.obj
 0002:00082d60       __scrt_dllmain_crt_thread_detach 00000001400c4d60 f   MSVCRTD:utility.obj
 0002:00082d80       __scrt_dllmain_exception_filter 00000001400c4d80 f   MSVCRTD:utility.obj
 0002:00082e00       __scrt_dllmain_uninitialize_c 00000001400c4e00 f   MSVCRTD:utility.obj
 0002:00082e40       __scrt_dllmain_uninitialize_critical 00000001400c4e40 f   MSVCRTD:utility.obj
 0002:00082e60       __scrt_initialize_crt      00000001400c4e60 f   MSVCRTD:utility.obj
 0002:00082ec0       __scrt_initialize_onexit_tables 00000001400c4ec0 f   MSVCRTD:utility.obj
 0002:00083010       __scrt_is_nonwritable_in_current_image 00000001400c5010 f   MSVCRTD:utility.obj
 0002:000830c0       __scrt_release_startup_lock 00000001400c50c0 f   MSVCRTD:utility.obj
 0002:00083100       __scrt_uninitialize_crt    00000001400c5100 f   MSVCRTD:utility.obj
 0002:00083150       _onexit                    00000001400c5150 f   MSVCRTD:utility.obj
 0002:000831f0       at_quick_exit              00000001400c51f0 f   MSVCRTD:utility.obj
 0002:00083250       atexit                     00000001400c5250 f   MSVCRTD:utility.obj
 0002:00083290       ??_U@YAPEAX_K@Z            00000001400c5290 f   MSVCRTD:new_array.obj
 0002:000832b0       ??_V@YAXPEAX_K@Z           00000001400c52b0 f   MSVCRTD:delete_array_size.obj
 0002:000832f0       __chkstk                   00000001400c52f0 f   MSVCRTD:chkstk.obj
 0002:000832f0       _alloca_probe              00000001400c52f0 f   MSVCRTD:chkstk.obj
 0002:00083720       ?set_app_type@__scrt_main_policy@@SAXXZ 00000001400c5720 f i MSVCRTD:exe_main.obj
 0002:00083740       ?set_commode@__scrt_file_policy@@SAXXZ 00000001400c5740 f i MSVCRTD:exe_main.obj
 0002:00083770       ?set_fmode@__scrt_file_policy@@SAXXZ 00000001400c5770 f i MSVCRTD:exe_main.obj
 0002:00083790       mainCRTStartup             00000001400c5790 f   MSVCRTD:exe_main.obj
 0002:000837b0       __raise_securityfailure    00000001400c57b0 f   MSVCRTD:gs_report.obj
 0002:00083800       __report_gsfailure         00000001400c5800 f   MSVCRTD:gs_report.obj
 0002:00083910       __report_rangecheckfailure 00000001400c5910 f   MSVCRTD:gs_report.obj
 0002:00083930       __report_securityfailure   00000001400c5930 f   MSVCRTD:gs_report.obj
 0002:00083a00       __report_securityfailureEx 00000001400c5a00 f   MSVCRTD:gs_report.obj
 0002:00083db0       ?_RTC_AllocaFailure@@YAXPEAXPEAU_RTC_ALLOCA_NODE@@H@Z 00000001400c5db0 f   MSVCRTD:error.obj
 0002:00083f60       ?_RTC_Failure@@YAXPEAXH@Z  00000001400c5f60 f   MSVCRTD:error.obj
 0002:00083fd0       ?_RTC_StackFailure@@YAXPEAXPEBD@Z 00000001400c5fd0 f   MSVCRTD:error.obj
 0002:00084520       _RTC_UninitUse             00000001400c6520 f   MSVCRTD:error.obj
 0002:00084620       _vsprintf_s_l              00000001400c6620 f i MSVCRTD:error.obj
 0002:000846a0       sprintf_s                  00000001400c66a0 f i MSVCRTD:error.obj
 0002:000846d0       ?_RTC_GetErrorFunc@@YAP6AHHPEBDH00ZZPEBX@Z 00000001400c66d0 f   MSVCRTD:userapi.obj
 0002:000846e0       ?_RTC_GetErrorFuncW@@YAP6AHHPEB_WH00ZZPEBX@Z 00000001400c66e0 f   MSVCRTD:userapi.obj
 0002:000846f0       _RTC_GetErrDesc            00000001400c66f0 f   MSVCRTD:userapi.obj
 0002:00084710       _RTC_NumErrors             00000001400c6710 f   MSVCRTD:userapi.obj
 0002:00084720       _RTC_SetErrorFunc          00000001400c6720 f   MSVCRTD:userapi.obj
 0002:00084740       _RTC_SetErrorFuncW         00000001400c6740 f   MSVCRTD:userapi.obj
 0002:00084760       _RTC_SetErrorType          00000001400c6760 f   MSVCRTD:userapi.obj
 0002:00084790       ??3@YAXPEAX@Z              00000001400c6790 f   MSVCRTD:delete_scalar.obj
 0002:000847c0       ??0bad_alloc@std@@QEAA@XZ  00000001400c67c0 f i MSVCRTD:throw_bad_alloc.obj
 0002:00084810       ?__scrt_throw_std_bad_alloc@@YAXXZ 00000001400c6810 f   MSVCRTD:throw_bad_alloc.obj
 0002:00084840       ?__scrt_throw_std_bad_array_new_length@@YAXXZ 00000001400c6840 f   MSVCRTD:throw_bad_alloc.obj
 0002:00084870       __isa_available_init       00000001400c6870 f   MSVCRTD:cpu_disp.obj
 0002:00084ea0       _get_startup_argv_mode     00000001400c6ea0 f   MSVCRTD:argv_mode.obj
 0002:00084eb0       __scrt_is_ucrt_dll_in_use  00000001400c6eb0 f   MSVCRTD:ucrt_detection.obj
 0002:00084ee0       __crt_debugger_hook        00000001400c6ee0 f   MSVCRTD:utility_desktop.obj
 0002:00084f00       __scrt_fastfail            00000001400c6f00 f   MSVCRTD:utility_desktop.obj
 0002:00085100       __scrt_get_show_window_mode 00000001400c7100 f   MSVCRTD:utility_desktop.obj
 0002:00085170       __scrt_initialize_mta      00000001400c7170 f   MSVCRTD:utility_desktop.obj
 0002:00085190       __scrt_initialize_winrt    00000001400c7190 f   MSVCRTD:utility_desktop.obj
 0002:000851a0       __scrt_is_managed_app      00000001400c71a0 f   MSVCRTD:utility_desktop.obj
 0002:00085270       __scrt_set_unhandled_exception_filter 00000001400c7270 f   MSVCRTD:utility_desktop.obj
 0002:00085290       __scrt_exe_initialize_mta  00000001400c7290 f   MSVCRTD:utility_desktop.obj
 0002:00085290       __scrt_stub_for_initialize_mta 00000001400c7290 f   MSVCRTD:utility_desktop.obj
 0002:000852a0       __scrt_unhandled_exception_filter 00000001400c72a0 f   MSVCRTD:utility_desktop.obj
 0002:00085370       _guard_check_icall_nop     00000001400c7370 f i MSVCRTD:guard_support.obj
 0002:00085380       ReadNoFence64              00000001400c7380 f i MSVCRTD:guard_support.obj
 0002:000853b0       ReadPointerNoFence         00000001400c73b0 f i MSVCRTD:guard_support.obj
 0002:000853d0       __castguard_check_failure_debugbreak 00000001400c73d0 f i MSVCRTD:guard_support.obj
 0002:00085400       __castguard_check_failure_fastfail 00000001400c7400 f i MSVCRTD:guard_support.obj
 0002:00085430       __castguard_check_failure_nop 00000001400c7430 f i MSVCRTD:guard_support.obj
 0002:00085440       __castguard_check_failure_os_handled 00000001400c7440 f i MSVCRTD:guard_support.obj
 0002:000854b0       __castguard_check_failure_user_handled 00000001400c74b0 f i MSVCRTD:guard_support.obj
 0002:000855d0       __castguard_set_user_handler 00000001400c75d0 f i MSVCRTD:guard_support.obj
 0002:00085600       __castguard_slow_path_check_debugbreak 00000001400c7600 f i MSVCRTD:guard_support.obj
 0002:00085650       __castguard_slow_path_check_fastfail 00000001400c7650 f i MSVCRTD:guard_support.obj
 0002:000856b0       __castguard_slow_path_check_nop 00000001400c76b0 f i MSVCRTD:guard_support.obj
 0002:000856d0       __castguard_slow_path_check_os_handled 00000001400c76d0 f i MSVCRTD:guard_support.obj
 0002:00085730       __castguard_slow_path_check_user_handled 00000001400c7730 f i MSVCRTD:guard_support.obj
 0002:00085820       _guard_icall_checks_enforced 00000001400c7820 f i MSVCRTD:guard_support.obj
 0002:00085870       _guard_rf_checks_enforced  00000001400c7870 f i MSVCRTD:guard_support.obj
 0002:00085880       ??_V@YAXPEAX@Z             00000001400c7880 f   MSVCRTD:delete_array.obj
 0002:00085990       __security_init_cookie     00000001400c7990 f   MSVCRTD:gs_support.obj
 0002:00085a30       _matherr                   00000001400c7a30 f   MSVCRTD:matherr.obj
 0002:00085a40       _get_startup_commit_mode   00000001400c7a40 f   MSVCRTD:commit_mode.obj
 0002:00085a50       _get_startup_file_mode     00000001400c7a50 f   MSVCRTD:file_mode.obj
 0002:00085a60       _get_startup_new_mode      00000001400c7a60 f   MSVCRTD:new_mode.obj
 0002:00085a70       _get_startup_thread_locale_mode 00000001400c7a70 f   MSVCRTD:thread_locale.obj
 0002:00085a80       ?__scrt_initialize_type_info@@YAXXZ 00000001400c7a80 f   MSVCRTD:tncleanup.obj
 0002:00085aa0       ?__scrt_uninitialize_type_info@@YAXXZ 00000001400c7aa0 f   MSVCRTD:tncleanup.obj
 0002:00085ac0       _should_initialize_environment 00000001400c7ac0 f   MSVCRTD:env_mode.obj
 0002:00085ad0       _initialize_invalid_parameter_handler 00000001400c7ad0 f   MSVCRTD:invalid_parameter_handler.obj
 0002:00085ae0       _initialize_denormal_control 00000001400c7ae0 f   MSVCRTD:denormal_control.obj
 0002:00085af0       __scrt_initialize_default_local_stdio_options 00000001400c7af0 f   MSVCRTD:default_local_stdio_options.obj
 0002:00085b50       __scrt_is_user_matherr_present 00000001400c7b50 f   MSVCRTD:matherr_detection.obj
 0002:00085b80       __scrt_get_dyn_tls_init_callback 00000001400c7b80 f   MSVCRTD:dyn_tls_init.obj
 0002:00085b90       __scrt_get_dyn_tls_dtor_callback 00000001400c7b90 f   MSVCRTD:dyn_tls_dtor.obj
 0002:00085ba0       _RTC_Initialize            00000001400c7ba0 f   MSVCRTD:initsect.obj
 0002:00085c00       _RTC_Terminate             00000001400c7c00 f   MSVCRTD:initsect.obj
 0002:000862d0       ?_RTC_GetSrcLine@@YAHPEAEPEA_WKPEAH1K@Z 00000001400c82d0 f   MSVCRTD:pdblkup.obj
 0002:00086790       ??0_Lockit@std@@QEAA@H@Z   00000001400c8790 f   msvcprtd:MSVCP140D.dll
 0002:00086796       ??1_Lockit@std@@QEAA@XZ    00000001400c8796 f   msvcprtd:MSVCP140D.dll
 0002:0008679c       ?_Xlength_error@std@@YAXPEBD@Z 00000001400c879c f   msvcprtd:MSVCP140D.dll
 0002:000867a2       ?_Xout_of_range@std@@YAXPEBD@Z 00000001400c87a2 f   msvcprtd:MSVCP140D.dll
 0002:000867a8       ?uncaught_exception@std@@YA_NXZ 00000001400c87a8 f   msvcprtd:MSVCP140D.dll
 0002:000867b0       ??0_Fac_node@std@@QEAA@PEAU01@PEAV_Facet_base@1@@Z 00000001400c87b0 f i msvcprtd:locale0_implib.obj
 0002:000867f0       ??1_Fac_node@std@@QEAA@XZ  00000001400c87f0 f i msvcprtd:locale0_implib.obj
 0002:000868a0       ??1_Fac_tidy_reg_t@std@@QEAA@XZ 00000001400c88a0 f i msvcprtd:locale0_implib.obj
 0002:00086920       ??2_Fac_node@std@@SAPEAX_K@Z 00000001400c8920 f i msvcprtd:locale0_implib.obj
 0002:000869a0       ??3_Fac_node@std@@SAXPEAX@Z 00000001400c89a0 f i msvcprtd:locale0_implib.obj
 0002:000869d0       ??_G_Fac_node@std@@QEAAPEAXI@Z 00000001400c89d0 f i msvcprtd:locale0_implib.obj
 0002:00086a40       ?_Facet_Register@std@@YAXPEAV_Facet_base@1@@Z 00000001400c8a40 f   msvcprtd:locale0_implib.obj
 0002:00086ac0       ?__empty_global_delete@@YAXPEAXW4align_val_t@std@@@Z 00000001400c8ac0 f i msvcprtd:locale0_implib.obj
 0002:00086ad0       ?__empty_global_delete@@YAXPEAX_KW4align_val_t@std@@@Z 00000001400c8ad0 f i msvcprtd:locale0_implib.obj
 0002:00086ae4       ??Bid@locale@std@@QEAA_KXZ 00000001400c8ae4 f   msvcprtd:MSVCP140D.dll
 0002:00086aea       ?_Getgloballocale@locale@std@@CAPEAV_Locimp@12@XZ 00000001400c8aea f   msvcprtd:MSVCP140D.dll
 0002:00086af0       ?always_noconv@codecvt_base@std@@QEBA_NXZ 00000001400c8af0 f   msvcprtd:MSVCP140D.dll
 0002:00086af6       ?in@?$codecvt@DDU_Mbstatet@@@std@@QEBAHAEAU_Mbstatet@@PEBD1AEAPEBDPEAD3AEAPEAD@Z 00000001400c8af6 f   msvcprtd:MSVCP140D.dll
 0002:00086afc       ?out@?$codecvt@DDU_Mbstatet@@@std@@QEBAHAEAU_Mbstatet@@PEBD1AEAPEBDPEAD3AEAPEAD@Z 00000001400c8afc f   msvcprtd:MSVCP140D.dll
 0002:00086b02       ?unshift@?$codecvt@DDU_Mbstatet@@@std@@QEBAHAEAU_Mbstatet@@PEAD1AEAPEAD@Z 00000001400c8b02 f   msvcprtd:MSVCP140D.dll
 0002:00086b08       ?_Getcat@?$codecvt@DDU_Mbstatet@@@std@@SA_KPEAPEBVfacet@locale@2@PEBV42@@Z 00000001400c8b08 f   msvcprtd:MSVCP140D.dll
 0002:00086b0e       ?good@ios_base@std@@QEBA_NXZ 00000001400c8b0e f   msvcprtd:MSVCP140D.dll
 0002:00086b14       ?fail@ios_base@std@@QEBA_NXZ 00000001400c8b14 f   msvcprtd:MSVCP140D.dll
 0002:00086b1a       ?flags@ios_base@std@@QEBAHXZ 00000001400c8b1a f   msvcprtd:MSVCP140D.dll
 0002:00086b20       ?width@ios_base@std@@QEBA_JXZ 00000001400c8b20 f   msvcprtd:MSVCP140D.dll
 0002:00086b26       ?width@ios_base@std@@QEAA_J_J@Z 00000001400c8b26 f   msvcprtd:MSVCP140D.dll
 0002:00086b2c       ??0?$basic_streambuf@DU?$char_traits@D@std@@@std@@IEAA@XZ 00000001400c8b2c f   msvcprtd:MSVCP140D.dll
 0002:00086b32       ??1?$basic_streambuf@DU?$char_traits@D@std@@@std@@UEAA@XZ 00000001400c8b32 f   msvcprtd:MSVCP140D.dll
 0002:00086b38       ?getloc@?$basic_streambuf@DU?$char_traits@D@std@@@std@@QEBA?AVlocale@2@XZ 00000001400c8b38 f   msvcprtd:MSVCP140D.dll
 0002:00086b3e       ?sputc@?$basic_streambuf@DU?$char_traits@D@std@@@std@@QEAAHD@Z 00000001400c8b3e f   msvcprtd:MSVCP140D.dll
 0002:00086b44       ?sputn@?$basic_streambuf@DU?$char_traits@D@std@@@std@@QEAA_JPEBD_J@Z 00000001400c8b44 f   msvcprtd:MSVCP140D.dll
 0002:00086b4a       ?eback@?$basic_streambuf@DU?$char_traits@D@std@@@std@@IEBAPEADXZ 00000001400c8b4a f   msvcprtd:MSVCP140D.dll
 0002:00086b50       ?gptr@?$basic_streambuf@DU?$char_traits@D@std@@@std@@IEBAPEADXZ 00000001400c8b50 f   msvcprtd:MSVCP140D.dll
 0002:00086b56       ?pbase@?$basic_streambuf@DU?$char_traits@D@std@@@std@@IEBAPEADXZ 00000001400c8b56 f   msvcprtd:MSVCP140D.dll
 0002:00086b5c       ?pptr@?$basic_streambuf@DU?$char_traits@D@std@@@std@@IEBAPEADXZ 00000001400c8b5c f   msvcprtd:MSVCP140D.dll
 0002:00086b62       ?egptr@?$basic_streambuf@DU?$char_traits@D@std@@@std@@IEBAPEADXZ 00000001400c8b62 f   msvcprtd:MSVCP140D.dll
 0002:00086b68       ?gbump@?$basic_streambuf@DU?$char_traits@D@std@@@std@@IEAAXH@Z 00000001400c8b68 f   msvcprtd:MSVCP140D.dll
 0002:00086b6e       ?setg@?$basic_streambuf@DU?$char_traits@D@std@@@std@@IEAAXPEAD00@Z 00000001400c8b6e f   msvcprtd:MSVCP140D.dll
 0002:00086b74       ?epptr@?$basic_streambuf@DU?$char_traits@D@std@@@std@@IEBAPEADXZ 00000001400c8b74 f   msvcprtd:MSVCP140D.dll
 0002:00086b7a       ?_Gndec@?$basic_streambuf@DU?$char_traits@D@std@@@std@@IEAAPEADXZ 00000001400c8b7a f   msvcprtd:MSVCP140D.dll
 0002:00086b80       ?_Gninc@?$basic_streambuf@DU?$char_traits@D@std@@@std@@IEAAPEADXZ 00000001400c8b80 f   msvcprtd:MSVCP140D.dll
 0002:00086b86       ?_Gnavail@?$basic_streambuf@DU?$char_traits@D@std@@@std@@IEBA_JXZ 00000001400c8b86 f   msvcprtd:MSVCP140D.dll
 0002:00086b8c       ?pbump@?$basic_streambuf@DU?$char_traits@D@std@@@std@@IEAAXH@Z 00000001400c8b8c f   msvcprtd:MSVCP140D.dll
 0002:00086b92       ?setp@?$basic_streambuf@DU?$char_traits@D@std@@@std@@IEAAXPEAD0@Z 00000001400c8b92 f   msvcprtd:MSVCP140D.dll
 0002:00086b98       ?setp@?$basic_streambuf@DU?$char_traits@D@std@@@std@@IEAAXPEAD00@Z 00000001400c8b98 f   msvcprtd:MSVCP140D.dll
 0002:00086b9e       ?_Pninc@?$basic_streambuf@DU?$char_traits@D@std@@@std@@IEAAPEADXZ 00000001400c8b9e f   msvcprtd:MSVCP140D.dll
 0002:00086ba4       ?_Pnavail@?$basic_streambuf@DU?$char_traits@D@std@@@std@@IEBA_JXZ 00000001400c8ba4 f   msvcprtd:MSVCP140D.dll
 0002:00086baa       ?_Init@?$basic_streambuf@DU?$char_traits@D@std@@@std@@IEAAXXZ 00000001400c8baa f   msvcprtd:MSVCP140D.dll
 0002:00086bb0       ?_Init@?$basic_streambuf@DU?$char_traits@D@std@@@std@@IEAAXPEAPEAD0PEAH001@Z 00000001400c8bb0 f   msvcprtd:MSVCP140D.dll
 0002:00086bb6       ?xsgetn@?$basic_streambuf@DU?$char_traits@D@std@@@std@@MEAA_JPEAD_J@Z 00000001400c8bb6 f   msvcprtd:MSVCP140D.dll
 0002:00086bbc       ?xsputn@?$basic_streambuf@DU?$char_traits@D@std@@@std@@MEAA_JPEBD_J@Z 00000001400c8bbc f   msvcprtd:MSVCP140D.dll
 0002:00086bc2       ??1?$basic_ios@DU?$char_traits@D@std@@@std@@UEAA@XZ 00000001400c8bc2 f   msvcprtd:MSVCP140D.dll
 0002:00086bc8       ?clear@?$basic_ios@DU?$char_traits@D@std@@@std@@QEAAXH_N@Z 00000001400c8bc8 f   msvcprtd:MSVCP140D.dll
 0002:00086bce       ?setstate@?$basic_ios@DU?$char_traits@D@std@@@std@@QEAAXH_N@Z 00000001400c8bce f   msvcprtd:MSVCP140D.dll
 0002:00086bd4       ?tie@?$basic_ios@DU?$char_traits@D@std@@@std@@QEBAPEAV?$basic_ostream@DU?$char_traits@D@std@@@2@XZ 00000001400c8bd4 f   msvcprtd:MSVCP140D.dll
 0002:00086bda       ?rdbuf@?$basic_ios@DU?$char_traits@D@std@@@std@@QEBAPEAV?$basic_streambuf@DU?$char_traits@D@std@@@2@XZ 00000001400c8bda f   msvcprtd:MSVCP140D.dll
 0002:00086be0       ?fill@?$basic_ios@DU?$char_traits@D@std@@@std@@QEBADXZ 00000001400c8be0 f   msvcprtd:MSVCP140D.dll
 0002:00086be6       ?widen@?$basic_ios@DU?$char_traits@D@std@@@std@@QEBADD@Z 00000001400c8be6 f   msvcprtd:MSVCP140D.dll
 0002:00086bec       ??0?$basic_ios@DU?$char_traits@D@std@@@std@@IEAA@XZ 00000001400c8bec f   msvcprtd:MSVCP140D.dll
 0002:00086bf2       ?_Osfx@?$basic_ostream@DU?$char_traits@D@std@@@std@@QEAAXXZ 00000001400c8bf2 f   msvcprtd:MSVCP140D.dll
 0002:00086bf8       ??6?$basic_ostream@DU?$char_traits@D@std@@@std@@QEAAAEAV01@P6AAEAV01@AEAV01@@Z@Z 00000001400c8bf8 f   msvcprtd:MSVCP140D.dll
 0002:00086bfe       ??6?$basic_ostream@DU?$char_traits@D@std@@@std@@QEAAAEAV01@PEAV?$basic_streambuf@DU?$char_traits@D@std@@@1@@Z 00000001400c8bfe f   msvcprtd:MSVCP140D.dll
 0002:00086c04       ?put@?$basic_ostream@DU?$char_traits@D@std@@@std@@QEAAAEAV12@D@Z 00000001400c8c04 f   msvcprtd:MSVCP140D.dll
 0002:00086c0a       ?flush@?$basic_ostream@DU?$char_traits@D@std@@@std@@QEAAAEAV12@XZ 00000001400c8c0a f   msvcprtd:MSVCP140D.dll
 0002:00086c10       ??0?$basic_istream@DU?$char_traits@D@std@@@std@@QEAA@PEAV?$basic_streambuf@DU?$char_traits@D@std@@@1@_N@Z 00000001400c8c10 f   msvcprtd:MSVCP140D.dll
 0002:00086c16       ??1?$basic_istream@DU?$char_traits@D@std@@@std@@UEAA@XZ 00000001400c8c16 f   msvcprtd:MSVCP140D.dll
 0002:00086c1c       ??0?$basic_iostream@DU?$char_traits@D@std@@@std@@QEAA@PEAV?$basic_streambuf@DU?$char_traits@D@std@@@1@@Z 00000001400c8c1c f   msvcprtd:MSVCP140D.dll
 0002:00086c22       ??1?$basic_iostream@DU?$char_traits@D@std@@@std@@UEAA@XZ 00000001400c8c22 f   msvcprtd:MSVCP140D.dll
 0002:00086c28       ?_Fiopen@std@@YAPEAU_iobuf@@PEBDHH@Z 00000001400c8c28 f   msvcprtd:MSVCP140D.dll
 0002:00086c2e       ?imbue@?$basic_streambuf@DU?$char_traits@D@std@@@std@@MEAAXAEBVlocale@2@@Z 00000001400c8c2e f   msvcprtd:MSVCP140D.dll
 0002:00086c34       ?sync@?$basic_streambuf@DU?$char_traits@D@std@@@std@@MEAAHXZ 00000001400c8c34 f   msvcprtd:MSVCP140D.dll
 0002:00086c3a       ?setbuf@?$basic_streambuf@DU?$char_traits@D@std@@@std@@MEAAPEAV12@PEAD_J@Z 00000001400c8c3a f   msvcprtd:MSVCP140D.dll
 0002:00086c40       ?uflow@?$basic_streambuf@DU?$char_traits@D@std@@@std@@MEAAHXZ 00000001400c8c40 f   msvcprtd:MSVCP140D.dll
 0002:00086c46       ?showmanyc@?$basic_streambuf@DU?$char_traits@D@std@@@std@@MEAA_JXZ 00000001400c8c46 f   msvcprtd:MSVCP140D.dll
 0002:00086c4c       ?_Unlock@?$basic_streambuf@DU?$char_traits@D@std@@@std@@UEAAXXZ 00000001400c8c4c f   msvcprtd:MSVCP140D.dll
 0002:00086c52       ?_Lock@?$basic_streambuf@DU?$char_traits@D@std@@@std@@UEAAXXZ 00000001400c8c52 f   msvcprtd:MSVCP140D.dll
 0002:00086c58       ??6?$basic_ostream@DU?$char_traits@D@std@@@std@@QEAAAEAV01@H@Z 00000001400c8c58 f   msvcprtd:MSVCP140D.dll
 0002:00086c5e       ??6?$basic_ostream@DU?$char_traits@D@std@@@std@@QEAAAEAV01@_K@Z 00000001400c8c5e f   msvcprtd:MSVCP140D.dll
 0002:00086c64       ?_Xbad_alloc@std@@YAXXZ    00000001400c8c64 f   msvcprtd:MSVCP140D.dll
 0002:00086c6a       memcpy                     00000001400c8c6a f   vcruntimed:VCRUNTIME140D.dll
 0002:00086c70       __CxxFrameHandler4         00000001400c8c70 f   vcruntimed:VCRUNTIME140_1D.dll
 0002:00086c76       memset                     00000001400c8c76 f   vcruntimed:VCRUNTIME140D.dll
 0002:00086c7c       __std_exception_copy       00000001400c8c7c f   vcruntimed:VCRUNTIME140D.dll
 0002:00086c82       __std_exception_destroy    00000001400c8c82 f   vcruntimed:VCRUNTIME140D.dll
 0002:00086c88       _CxxThrowException         00000001400c8c88 f   vcruntimed:VCRUNTIME140D.dll
 0002:00086c8e       memmove                    00000001400c8c8e f   vcruntimed:VCRUNTIME140D.dll
 0002:00086c94       _purecall                  00000001400c8c94 f   vcruntimed:VCRUNTIME140D.dll
 0002:00086c9a       memcmp                     00000001400c8c9a f   vcruntimed:VCRUNTIME140D.dll
 0002:00086ca0       strstr                     00000001400c8ca0 f   vcruntimed:VCRUNTIME140D.dll
 0002:00086ca6       __C_specific_handler       00000001400c8ca6 f   vcruntimed:VCRUNTIME140D.dll
 0002:00086cac       __C_specific_handler_noexcept 00000001400c8cac f   vcruntimed:VCRUNTIME140D.dll
 0002:00086cb2       __current_exception        00000001400c8cb2 f   vcruntimed:VCRUNTIME140D.dll
 0002:00086cb8       __current_exception_context 00000001400c8cb8 f   vcruntimed:VCRUNTIME140D.dll
 0002:00086cbe       __std_type_info_destroy_list 00000001400c8cbe f   vcruntimed:VCRUNTIME140D.dll
 0002:00086cc4       __vcrt_GetModuleFileNameW  00000001400c8cc4 f   vcruntimed:VCRUNTIME140D.dll
 0002:00086cca       __vcrt_GetModuleHandleW    00000001400c8cca f   vcruntimed:VCRUNTIME140D.dll
 0002:00086cd0       __vcrt_LoadLibraryExW      00000001400c8cd0 f   vcruntimed:VCRUNTIME140D.dll
 0002:00086cd6       __stdio_common_vsscanf     00000001400c8cd6 f   ucrtd:ucrtbased.dll
 0002:00086cdc       free                       00000001400c8cdc f   ucrtd:ucrtbased.dll
 0002:00086ce2       malloc                     00000001400c8ce2 f   ucrtd:ucrtbased.dll
 0002:00086ce8       strlen                     00000001400c8ce8 f   ucrtd:ucrtbased.dll
 0002:00086cee       strncmp                    00000001400c8cee f   ucrtd:ucrtbased.dll
 0002:00086cf4       cosf                       00000001400c8cf4 f   ucrtd:ucrtbased.dll
 0002:00086cfa       sinf                       00000001400c8cfa f   ucrtd:ucrtbased.dll
 0002:00086d00       sqrtf                      00000001400c8d00 f   ucrtd:ucrtbased.dll
 0002:00086d06       _wassert                   00000001400c8d06 f   ucrtd:ucrtbased.dll
 0002:00086d0c       _invalid_parameter         00000001400c8d0c f   ucrtd:ucrtbased.dll
 0002:00086d12       _CrtDbgReport              00000001400c8d12 f   ucrtd:ucrtbased.dll
 0002:00086d18       exit                       00000001400c8d18 f   ucrtd:ucrtbased.dll
 0002:00086d1e       _get_stream_buffer_pointers 00000001400c8d1e f   ucrtd:ucrtbased.dll
 0002:00086d24       fclose                     00000001400c8d24 f   ucrtd:ucrtbased.dll
 0002:00086d2a       fflush                     00000001400c8d2a f   ucrtd:ucrtbased.dll
 0002:00086d30       fgetc                      00000001400c8d30 f   ucrtd:ucrtbased.dll
 0002:00086d36       fgetpos                    00000001400c8d36 f   ucrtd:ucrtbased.dll
 0002:00086d3c       fputc                      00000001400c8d3c f   ucrtd:ucrtbased.dll
 0002:00086d42       fread                      00000001400c8d42 f   ucrtd:ucrtbased.dll
 0002:00086d48       fsetpos                    00000001400c8d48 f   ucrtd:ucrtbased.dll
 0002:00086d4e       _fseeki64                  00000001400c8d4e f   ucrtd:ucrtbased.dll
 0002:00086d54       fwrite                     00000001400c8d54 f   ucrtd:ucrtbased.dll
 0002:00086d5a       setvbuf                    00000001400c8d5a f   ucrtd:ucrtbased.dll
 0002:00086d60       ungetc                     00000001400c8d60 f   ucrtd:ucrtbased.dll
 0002:00086d66       _lock_file                 00000001400c8d66 f   ucrtd:ucrtbased.dll
 0002:00086d6c       _unlock_file               00000001400c8d6c f   ucrtd:ucrtbased.dll
 0002:00086d72       tanf                       00000001400c8d72 f   ucrtd:ucrtbased.dll
 0002:00086d78       srand                      00000001400c8d78 f   ucrtd:ucrtbased.dll
 0002:00086d7e       _time64                    00000001400c8d7e f   ucrtd:ucrtbased.dll
 0002:00086d84       rand                       00000001400c8d84 f   ucrtd:ucrtbased.dll
 0002:00086d8a       ceilf                      00000001400c8d8a f   ucrtd:ucrtbased.dll
 0002:00086d90       abs                        00000001400c8d90 f   ucrtd:ucrtbased.dll
 0002:00086d96       ldexp                      00000001400c8d96 f   ucrtd:ucrtbased.dll
 0002:00086d9c       powf                       00000001400c8d9c f   ucrtd:ucrtbased.dll
 0002:00086da2       realloc                    00000001400c8da2 f   ucrtd:ucrtbased.dll
 0002:00086da8       _lrotl                     00000001400c8da8 f   ucrtd:ucrtbased.dll
 0002:00086dae       strtol                     00000001400c8dae f   ucrtd:ucrtbased.dll
 0002:00086db4       __acrt_iob_func            00000001400c8db4 f   ucrtd:ucrtbased.dll
 0002:00086dba       fopen_s                    00000001400c8dba f   ucrtd:ucrtbased.dll
 0002:00086dc0       feof                       00000001400c8dc0 f   ucrtd:ucrtbased.dll
 0002:00086dc6       ferror                     00000001400c8dc6 f   ucrtd:ucrtbased.dll
 0002:00086dcc       fseek                      00000001400c8dcc f   ucrtd:ucrtbased.dll
 0002:00086dd2       ftell                      00000001400c8dd2 f   ucrtd:ucrtbased.dll
 0002:00086dd8       __stdio_common_vfprintf    00000001400c8dd8 f   ucrtd:ucrtbased.dll
 0002:00086dde       strcmp                     00000001400c8dde f   ucrtd:ucrtbased.dll
 0002:00086de4       strcpy                     00000001400c8de4 f   ucrtd:ucrtbased.dll
 0002:00086dea       calloc                     00000001400c8dea f   ucrtd:ucrtbased.dll
 0002:00086df0       __stdio_common_vsprintf    00000001400c8df0 f   ucrtd:ucrtbased.dll
 0002:00086df6       strncpy                    00000001400c8df6 f   ucrtd:ucrtbased.dll
 0002:00086dfc       strcspn                    00000001400c8dfc f   ucrtd:ucrtbased.dll
 0002:00086e02       strspn                     00000001400c8e02 f   ucrtd:ucrtbased.dll
 0002:00086e08       strtoul                    00000001400c8e08 f   ucrtd:ucrtbased.dll
 0002:00086e0e       wcscmp                     00000001400c8e0e f   ucrtd:ucrtbased.dll
 0002:00086e14       wcscpy                     00000001400c8e14 f   ucrtd:ucrtbased.dll
 0002:00086e1a       qsort                      00000001400c8e1a f   ucrtd:ucrtbased.dll
 0002:00086e20       _CrtDbgReportW             00000001400c8e20 f   ucrtd:ucrtbased.dll
 0002:00086e26       _callnewh                  00000001400c8e26 f   ucrtd:ucrtbased.dll
 0002:00086e2c       _seh_filter_dll            00000001400c8e2c f   ucrtd:ucrtbased.dll
 0002:00086e32       _configure_narrow_argv     00000001400c8e32 f   ucrtd:ucrtbased.dll
 0002:00086e38       _initialize_narrow_environment 00000001400c8e38 f   ucrtd:ucrtbased.dll
 0002:00086e3e       _initialize_onexit_table   00000001400c8e3e f   ucrtd:ucrtbased.dll
 0002:00086e44       _register_onexit_function  00000001400c8e44 f   ucrtd:ucrtbased.dll
 0002:00086e4a       _execute_onexit_table      00000001400c8e4a f   ucrtd:ucrtbased.dll
 0002:00086e50       _crt_atexit                00000001400c8e50 f   ucrtd:ucrtbased.dll
 0002:00086e56       _crt_at_quick_exit         00000001400c8e56 f   ucrtd:ucrtbased.dll
 0002:00086e5c       _cexit                     00000001400c8e5c f   ucrtd:ucrtbased.dll
 0002:00086e62       _seh_filter_exe            00000001400c8e62 f   ucrtd:ucrtbased.dll
 0002:00086e68       _set_app_type              00000001400c8e68 f   ucrtd:ucrtbased.dll
 0002:00086e6e       __setusermatherr           00000001400c8e6e f   ucrtd:ucrtbased.dll
 0002:00086e74       _get_initial_narrow_environment 00000001400c8e74 f   ucrtd:ucrtbased.dll
 0002:00086e7a       _initterm                  00000001400c8e7a f   ucrtd:ucrtbased.dll
 0002:00086e80       _initterm_e                00000001400c8e80 f   ucrtd:ucrtbased.dll
 0002:00086e86       _exit                      00000001400c8e86 f   ucrtd:ucrtbased.dll
 0002:00086e8c       _set_fmode                 00000001400c8e8c f   ucrtd:ucrtbased.dll
 0002:00086e92       __p___argc                 00000001400c8e92 f   ucrtd:ucrtbased.dll
 0002:00086e98       __p___argv                 00000001400c8e98 f   ucrtd:ucrtbased.dll
 0002:00086e9e       _c_exit                    00000001400c8e9e f   ucrtd:ucrtbased.dll
 0002:00086ea4       _register_thread_local_exe_atexit_callback 00000001400c8ea4 f   ucrtd:ucrtbased.dll
 0002:00086eaa       _configthreadlocale        00000001400c8eaa f   ucrtd:ucrtbased.dll
 0002:00086eb0       _set_new_mode              00000001400c8eb0 f   ucrtd:ucrtbased.dll
 0002:00086eb6       __p__commode               00000001400c8eb6 f   ucrtd:ucrtbased.dll
 0002:00086ebc       strcpy_s                   00000001400c8ebc f   ucrtd:ucrtbased.dll
 0002:00086ec2       strcat_s                   00000001400c8ec2 f   ucrtd:ucrtbased.dll
 0002:00086ec8       __stdio_common_vsprintf_s  00000001400c8ec8 f   ucrtd:ucrtbased.dll
 0002:00086ece       _free_dbg                  00000001400c8ece f   ucrtd:ucrtbased.dll
 0002:00086ed4       terminate                  00000001400c8ed4 f   ucrtd:ucrtbased.dll
 0002:00086eda       _wmakepath_s               00000001400c8eda f   ucrtd:ucrtbased.dll
 0002:00086ee0       _wsplitpath_s              00000001400c8ee0 f   ucrtd:ucrtbased.dll
 0002:00086ee6       wcscpy_s                   00000001400c8ee6 f   ucrtd:ucrtbased.dll
 0002:00086eec       _malloc_dbg                00000001400c8eec f   ucrtd:ucrtbased.dll
 0002:00086ef2       GetCurrentThreadId         00000001400c8ef2 f   kernel32:KERNEL32.dll
 0002:00086ef8       ReleaseSRWLockExclusive    00000001400c8ef8 f   kernel32:KERNEL32.dll
 0002:00086efe       AcquireSRWLockExclusive    00000001400c8efe f   kernel32:KERNEL32.dll
 0002:00086f04       WakeAllConditionVariable   00000001400c8f04 f   kernel32:KERNEL32.dll
 0002:00086f0a       SleepConditionVariableSRW  00000001400c8f0a f   kernel32:KERNEL32.dll
 0002:00086f10       RtlCaptureContext          00000001400c8f10 f   kernel32:KERNEL32.dll
 0002:00086f16       RtlLookupFunctionEntry     00000001400c8f16 f   kernel32:KERNEL32.dll
 0002:00086f1c       RtlVirtualUnwind           00000001400c8f1c f   kernel32:KERNEL32.dll
 0002:00086f22       UnhandledExceptionFilter   00000001400c8f22 f   kernel32:KERNEL32.dll
 0002:00086f28       SetUnhandledExceptionFilter 00000001400c8f28 f   kernel32:KERNEL32.dll
 0002:00086f2e       GetCurrentProcess          00000001400c8f2e f   kernel32:KERNEL32.dll
 0002:00086f34       TerminateProcess           00000001400c8f34 f   kernel32:KERNEL32.dll
 0002:00086f3a       IsProcessorFeaturePresent  00000001400c8f3a f   kernel32:KERNEL32.dll
 0002:00086f40       IsDebuggerPresent          00000001400c8f40 f   kernel32:KERNEL32.dll
 0002:00086f46       RaiseException             00000001400c8f46 f   kernel32:KERNEL32.dll
 0002:00086f4c       GetStartupInfoW            00000001400c8f4c f   kernel32:KERNEL32.dll
 0002:00086f52       GetCurrentProcessId        00000001400c8f52 f   kernel32:KERNEL32.dll
 0002:00086f58       GetSystemTimeAsFileTime    00000001400c8f58 f   kernel32:KERNEL32.dll
 0002:00086f5e       InitializeSListHead        00000001400c8f5e f   kernel32:KERNEL32.dll
 0002:00086f64       HeapAlloc                  00000001400c8f64 f   kernel32:KERNEL32.dll
 0002:00086f6a       HeapFree                   00000001400c8f6a f   kernel32:KERNEL32.dll
 0002:00086f70       GetProcessHeap             00000001400c8f70 f   kernel32:KERNEL32.dll
 0002:00086f76       VirtualQuery               00000001400c8f76 f   kernel32:KERNEL32.dll
 0002:00086f80       __acrt_initialize          00000001400c8f80 f   MSVCRTD:ucrt_stubs.obj
 0002:00086f80       __scrt_stub_for_acrt_initialize 00000001400c8f80 f   MSVCRTD:ucrt_stubs.obj
 0002:00086f80       __vcrt_initialize          00000001400c8f80 f   MSVCRTD:ucrt_stubs.obj
 0002:00086f90       __acrt_thread_attach       00000001400c8f90 f   MSVCRTD:ucrt_stubs.obj
 0002:00086f90       __scrt_stub_for_acrt_thread_attach 00000001400c8f90 f   MSVCRTD:ucrt_stubs.obj
 0002:00086f90       __vcrt_thread_attach       00000001400c8f90 f   MSVCRTD:ucrt_stubs.obj
 0002:00086fa0       __acrt_thread_detach       00000001400c8fa0 f   MSVCRTD:ucrt_stubs.obj
 0002:00086fa0       __scrt_stub_for_acrt_thread_detach 00000001400c8fa0 f   MSVCRTD:ucrt_stubs.obj
 0002:00086fa0       __vcrt_thread_detach       00000001400c8fa0 f   MSVCRTD:ucrt_stubs.obj
 0002:00086fb0       __acrt_uninitialize        00000001400c8fb0 f   MSVCRTD:ucrt_stubs.obj
 0002:00086fb0       __scrt_stub_for_acrt_uninitialize 00000001400c8fb0 f   MSVCRTD:ucrt_stubs.obj
 0002:00086fb0       __vcrt_uninitialize        00000001400c8fb0 f   MSVCRTD:ucrt_stubs.obj
 0002:00086fc0       __acrt_uninitialize_critical 00000001400c8fc0 f   MSVCRTD:ucrt_stubs.obj
 0002:00086fc0       __scrt_stub_for_acrt_uninitialize_critical 00000001400c8fc0 f   MSVCRTD:ucrt_stubs.obj
 0002:00086fc0       __vcrt_uninitialize_critical 00000001400c8fc0 f   MSVCRTD:ucrt_stubs.obj
 0002:00086fd0       __scrt_stub_for_is_c_termination_complete 00000001400c8fd0 f   MSVCRTD:ucrt_stubs.obj
 0002:00086fd0       _is_c_termination_complete 00000001400c8fd0 f   MSVCRTD:ucrt_stubs.obj
 0002:00088ea0       _guard_dispatch_icall_nop  00000001400caea0 f   MSVCRTD:guard_dispatch.obj
 0002:00088ec0       _guard_xfg_dispatch_icall_nop 00000001400caec0 f   MSVCRTD:guard_xfg_dispatch.obj
 0003:00000000       __xc_a                     00000001400d0000     MSVCRTD:initializers.obj
 0003:00000440       __xc_z                     00000001400d0440     MSVCRTD:initializers.obj
 0003:00000550       __xi_a                     00000001400d0550     MSVCRTD:initializers.obj
 0003:00000880       __xi_z                     00000001400d0880     MSVCRTD:initializers.obj
 0003:00000990       __xl_a                     00000001400d0990     MSVCRTD:tlssup.obj
 0003:00000998       __xl_z                     00000001400d0998     MSVCRTD:tlssup.obj
 0003:000009a0       __xp_a                     00000001400d09a0     MSVCRTD:initializers.obj
 0003:00000ab0       __xp_z                     00000001400d0ab0     MSVCRTD:initializers.obj
 0003:00000bc0       __xt_a                     00000001400d0bc0     MSVCRTD:initializers.obj
 0003:00000cd0       __xt_z                     00000001400d0cd0     MSVCRTD:initializers.obj
 0003:00000e40       __real@42480000            00000001400d0e40     MeshGenerator.obj
 0003:00000f80       ??_C@_1BK@LCODAJLO@?$AAo?$AAp?$AAe?$AAn?$AAg?$AAl?$AA3?$AA2?$AA?4?$AAd?$AAl?$AAl@ 00000001400d0f80     glad.obj
 0003:00000fa0       ??_C@_0BC@FFKMKEGM@wglGetProcAddress@ 00000001400d0fa0     glad.obj
 0003:00000fb8       ??_C@_0L@BAPBLHME@glCullFace@ 00000001400d0fb8     glad.obj
 0003:00000fc8       ??_C@_0M@ILBMDJDA@glFrontFace@ 00000001400d0fc8     glad.obj
 0003:00000fd8       ??_C@_06HEADGMBC@glHint@   00000001400d0fd8     glad.obj
 0003:00000fe0       ??_C@_0M@CFLGNFPG@glLineWidth@ 00000001400d0fe0     glad.obj
 0003:00000ff0       ??_C@_0M@EEAPMMNM@glPointSize@ 00000001400d0ff0     glad.obj
 0003:00001000       ??_C@_0O@DKMNBFMB@glPolygonMode@ 00000001400d1000     glad.obj
 0003:00001010       ??_C@_09ECGPAEPL@glScissor@ 00000001400d1010     glad.obj
 0003:00001020       ??_C@_0BA@INKFIMGP@glTexParameterf@ 00000001400d1020     glad.obj
 0003:00001038       ??_C@_0BB@KEOFAHDF@glTexParameterfv@ 00000001400d1038     glad.obj
 0003:00001050       ??_C@_0BA@KDNJAKA@glTexParameteri@ 00000001400d1050     glad.obj
 0003:00001068       ??_C@_0BB@KPLJEAAI@glTexParameteriv@ 00000001400d1068     glad.obj
 0003:00001080       ??_C@_0N@JDMMMFHL@glTexImage1D@ 00000001400d1080     glad.obj
 0003:00001090       ??_C@_0N@JBIKHLCC@glTexImage2D@ 00000001400d1090     glad.obj
 0003:000010a0       ??_C@_0N@EKCLGPL@glDrawBuffer@ 00000001400d10a0     glad.obj
 0003:000010b0       ??_C@_07IBAPPAHJ@glClear@  00000001400d10b0     glad.obj
 0003:000010c0       ??_C@_0N@OGLMDNKC@glClearColor@ 00000001400d10c0     glad.obj
 0003:000010d0       ??_C@_0P@KBLPBBFP@glClearStencil@ 00000001400d10d0     glad.obj
 0003:000010e8       ??_C@_0N@LJIELNG@glClearDepth@ 00000001400d10e8     glad.obj
 0003:000010f8       ??_C@_0O@DJFHPFEP@glStencilMask@ 00000001400d10f8     glad.obj
 0003:00001108       ??_C@_0M@DLGOAHPH@glColorMask@ 00000001400d1108     glad.obj
 0003:00001118       ??_C@_0M@KABMFLLN@glDepthMask@ 00000001400d1118     glad.obj
 0003:00001128       ??_C@_09MHGMIMKN@glDisable@ 00000001400d1128     glad.obj
 0003:00001138       ??_C@_08OOEHEKOP@glEnable@ 00000001400d1138     glad.obj
 0003:00001148       ??_C@_08DFCPOKBK@glFinish@ 00000001400d1148     glad.obj
 0003:00001158       ??_C@_07COFELLJA@glFlush@  00000001400d1158     glad.obj
 0003:00001168       ??_C@_0M@PFBKOKOH@glBlendFunc@ 00000001400d1168     glad.obj
 0003:00001178       ??_C@_09GKGMNAKG@glLogicOp@ 00000001400d1178     glad.obj
 0003:00001188       ??_C@_0O@ENNLLOLN@glStencilFunc@ 00000001400d1188     glad.obj
 0003:00001198       ??_C@_0M@BILBNGF@glStencilOp@ 00000001400d1198     glad.obj
 0003:000011a8       ??_C@_0M@NEJABAEP@glDepthFunc@ 00000001400d11a8     glad.obj
 0003:000011b8       ??_C@_0O@BFLAHHCK@glPixelStoref@ 00000001400d11b8     glad.obj
 0003:000011c8       ??_C@_0O@JCCIGLOF@glPixelStorei@ 00000001400d11c8     glad.obj
 0003:000011d8       ??_C@_0N@HFKHBECK@glReadBuffer@ 00000001400d11d8     glad.obj
 0003:000011e8       ??_C@_0N@CKFNNHOO@glReadPixels@ 00000001400d11e8     glad.obj
 0003:000011f8       ??_C@_0O@NLMELLCJ@glGetBooleanv@ 00000001400d11f8     glad.obj
 0003:00001208       ??_C@_0N@OFBMMCDH@glGetDoublev@ 00000001400d1208     glad.obj
 0003:00001218       ??_C@_0L@FPKAMKHB@glGetError@ 00000001400d1218     glad.obj
 0003:00001228       ??_C@_0M@CKCOBONE@glGetFloatv@ 00000001400d1228     glad.obj
 0003:00001238       ??_C@_0O@DHHDCCLF@glGetIntegerv@ 00000001400d1238     glad.obj
 0003:00001248       ??_C@_0M@OPOBFDCB@glGetString@ 00000001400d1248     glad.obj
 0003:00001258       ??_C@_0O@DOIIJLAD@glGetTexImage@ 00000001400d1258     glad.obj
 0003:00001268       ??_C@_0BE@DNHBPKMC@glGetTexParameterfv@ 00000001400d1268     glad.obj
 0003:00001280       ??_C@_0BE@DGCNLNPP@glGetTexParameteriv@ 00000001400d1280     glad.obj
 0003:00001298       ??_C@_0BJ@GAMLGIFF@glGetTexLevelParameterfv@ 00000001400d1298     glad.obj
 0003:000012b8       ??_C@_0BJ@GLJHCPGI@glGetTexLevelParameteriv@ 00000001400d12b8     glad.obj
 0003:000012d8       ??_C@_0M@INHMIHKC@glIsEnabled@ 00000001400d12d8     glad.obj
 0003:000012e8       ??_C@_0N@PEBDIKOA@glDepthRange@ 00000001400d12e8     glad.obj
 0003:000012f8       ??_C@_0L@KBLIPDFH@glViewport@ 00000001400d12f8     glad.obj
 0003:00001308       ??_C@_09KAGOBDOO@glNewList@ 00000001400d1308     glad.obj
 0003:00001318       ??_C@_09HKEBCLHH@glEndList@ 00000001400d1318     glad.obj
 0003:00001328       ??_C@_0L@CIPLDIDL@glCallList@ 00000001400d1328     glad.obj
 0003:00001338       ??_C@_0M@LFDBDICJ@glCallLists@ 00000001400d1338     glad.obj
 0003:00001348       ??_C@_0O@KPJIJAFM@glDeleteLists@ 00000001400d1348     glad.obj
 0003:00001358       ??_C@_0L@BNOFOEBP@glGenLists@ 00000001400d1358     glad.obj
 0003:00001368       ??_C@_0L@HDOJDFBA@glListBase@ 00000001400d1368     glad.obj
 0003:00001378       ??_C@_07FCOIFMD@glBegin@   00000001400d1378     glad.obj
 0003:00001388       ??_C@_08PJOLDJDK@glBitmap@ 00000001400d1388     glad.obj
 0003:00001398       ??_C@_09JLHBBGHE@glColor3b@ 00000001400d1398     glad.obj
 0003:000013a8       ??_C@_0L@COJGBKED@glColor3bv@ 00000001400d13a8     glad.obj
 0003:000013b8       ??_C@_09MNCLLBPC@glColor3d@ 00000001400d13b8     glad.obj
 0003:000013c8       ??_C@_0L@CKBLGGPB@glColor3dv@ 00000001400d13c8     glad.obj
 0003:000013d8       ??_C@_09PPBNNDHA@glColor3f@ 00000001400d13d8     glad.obj
 0003:000013e8       ??_C@_0L@CJJPLCJP@glColor3fv@ 00000001400d13e8     glad.obj
 0003:000013f8       ??_C@_09HIIFMPLP@glColor3i@ 00000001400d13f8     glad.obj
 0003:00001408       ??_C@_0L@CCMDPFKC@glColor3iv@ 00000001400d1408     glad.obj
 0003:00001418       ??_C@_09MIKIDFGE@glColor3s@ 00000001400d1418     glad.obj
 0003:00001428       ??_C@_0L@DDHCNDAE@glColor3sv@ 00000001400d1428     glad.obj
 0003:00001438       ??_C@_0L@BJFBHIOD@glColor3ub@ 00000001400d1438     glad.obj
 0003:00001448       ??_C@_0M@EAHPDMMK@glColor3ubv@ 00000001400d1448     glad.obj
 0003:00001458       ??_C@_0L@PKKFKBCI@glColor3ui@ 00000001400d1458     glad.obj
 0003:00001468       ??_C@_0M@EMCKNDCL@glColor3uiv@ 00000001400d1468     glad.obj
 0003:00001478       ??_C@_0L@EKIIFLPD@glColor3us@ 00000001400d1478     glad.obj
 0003:00001488       ??_C@_0M@FNJLPFIN@glColor3usv@ 00000001400d1488     glad.obj
 0003:00001498       ??_C@_09JODOAAPB@glColor4b@ 00000001400d1498     glad.obj
 0003:000014a8       ??_C@_0L@LDEBCCPK@glColor4bv@ 00000001400d14a8     glad.obj
 0003:000014b8       ??_C@_09MIGEKHHH@glColor4d@ 00000001400d14b8     glad.obj
 0003:000014c8       ??_C@_0L@LHMMFOEI@glColor4dv@ 00000001400d14c8     glad.obj
 0003:000014d8       ??_C@_09PKFCMFPF@glColor4f@ 00000001400d14d8     glad.obj
 0003:000014e8       ??_C@_0L@LEEIIKCG@glColor4fv@ 00000001400d14e8     glad.obj
 0003:000014f8       ??_C@_09HNMKNJDK@glColor4i@ 00000001400d14f8     glad.obj
 0003:00001508       ??_C@_0L@LPBEMNBL@glColor4iv@ 00000001400d1508     glad.obj
 0003:00001518       ??_C@_09MNOHCDOB@glColor4s@ 00000001400d1518     glad.obj
 0003:00001528       ??_C@_0L@KOKFOLLN@glColor4sv@ 00000001400d1528     glad.obj
 0003:00001538       ??_C@_0L@IEIGEAFK@glColor4ub@ 00000001400d1538     glad.obj
 0003:00001548       ??_C@_0M@PCFPOANK@glColor4ubv@ 00000001400d1548     glad.obj
 0003:00001558       ??_C@_0L@GHHCJJJB@glColor4ui@ 00000001400d1558     glad.obj
 0003:00001568       ??_C@_0M@POAKAPDL@glColor4uiv@ 00000001400d1568     glad.obj
 0003:00001578       ??_C@_0L@NHFPGDEK@glColor4us@ 00000001400d1578     glad.obj
 0003:00001588       ??_C@_0M@OPLLCJJN@glColor4usv@ 00000001400d1588     glad.obj
 0003:00001598       ??_C@_0L@DFCKJEPI@glEdgeFlag@ 00000001400d1598     glad.obj
 0003:000015a8       ??_C@_0M@MKDGIOMK@glEdgeFlagv@ 00000001400d15a8     glad.obj
 0003:000015b8       ??_C@_05OIBMBLHE@glEnd@    00000001400d15b8     glad.obj
 0003:000015c0       ??_C@_08HOOEKNLP@glIndexd@ 00000001400d15c0     glad.obj
 0003:000015d0       ??_C@_09CCMFJEMA@glIndexdv@ 00000001400d15d0     glad.obj
 0003:000015e0       ??_C@_08EMNCMPDN@glIndexf@ 00000001400d15e0     glad.obj
 0003:000015f0       ??_C@_09CBEBEAKO@glIndexfv@ 00000001400d15f0     glad.obj
 0003:00001600       ??_C@_08MLEKNDPC@glIndexi@ 00000001400d1600     glad.obj
 0003:00001610       ??_C@_09CKBNAHJD@glIndexiv@ 00000001400d1610     glad.obj
 0003:00001620       ??_C@_08HLGHCJCJ@glIndexs@ 00000001400d1620     glad.obj
 0003:00001630       ??_C@_09DLKMCBDF@glIndexsv@ 00000001400d1630     glad.obj
 0003:00001640       ??_C@_0L@FCAONKPI@glNormal3b@ 00000001400d1640     glad.obj
 0003:00001650       ??_C@_0M@MKFBKKIE@glNormal3bv@ 00000001400d1650     glad.obj
 0003:00001660       ??_C@_0L@EFEHNHO@glNormal3d@ 00000001400d1660     glad.obj
 0003:00001670       ??_C@_0M@MONMNGDG@glNormal3dv@ 00000001400d1670     glad.obj
 0003:00001680       ??_C@_0L@DGGCBPPM@glNormal3f@ 00000001400d1680     glad.obj
 0003:00001690       ??_C@_0M@MNFIACFI@glNormal3fv@ 00000001400d1690     glad.obj
 0003:000016a0       ??_C@_0L@LBPKADDD@glNormal3i@ 00000001400d16a0     glad.obj
 0003:000016b0       ??_C@_0M@MGAEEFGF@glNormal3iv@ 00000001400d16b0     glad.obj
 0003:000016c0       ??_C@_0L@BNHPJOI@glNormal3s@ 00000001400d16c0     glad.obj
 0003:000016d0       ??_C@_0M@NHLFGDMD@glNormal3sv@ 00000001400d16d0     glad.obj
 0003:000016e0       ??_C@_0O@JNCPGME@glRasterPos2d@ 00000001400d16e0     glad.obj
 0003:000016f0       ??_C@_0P@OFGFAKCP@glRasterPos2dv@ 00000001400d16f0     glad.obj
 0003:00001708       ??_C@_0O@DLOEJEEG@glRasterPos2f@ 00000001400d1708     glad.obj
 0003:00001718       ??_C@_0P@OGOBNOEB@glRasterPos2fv@ 00000001400d1718     glad.obj
 0003:00001730       ??_C@_0O@LMHMIIIJ@glRasterPos2i@ 00000001400d1730     glad.obj
 0003:00001740       ??_C@_0P@ONLNJJHM@glRasterPos2iv@ 00000001400d1740     glad.obj
 0003:00001758       ??_C@_0O@MFBHCFC@glRasterPos2s@ 00000001400d1758     glad.obj
 0003:00001768       ??_C@_0P@PMAMLPNK@glRasterPos2sv@ 00000001400d1768     glad.obj
 0003:00001780       ??_C@_0O@IBAJMPD@glRasterPos3d@ 00000001400d1780     glad.obj
 0003:00001790       ??_C@_0P@FNNJGNEK@glRasterPos3dv@ 00000001400d1790     glad.obj
 0003:000017a8       ??_C@_0O@DKCGPOHB@glRasterPos3f@ 00000001400d17a8     glad.obj
 0003:000017b8       ??_C@_0P@FOFNLJCE@glRasterPos3fv@ 00000001400d17b8     glad.obj
 0003:000017d0       ??_C@_0O@LNLOOCLO@glRasterPos3i@ 00000001400d17d0     glad.obj
 0003:000017e0       ??_C@_0P@FFABPOBJ@glRasterPos3iv@ 00000001400d17e0     glad.obj
 0003:000017f8       ??_C@_0O@NJDBIGF@glRasterPos3s@ 00000001400d17f8     glad.obj
 0003:00001808       ??_C@_0P@EELANILP@glRasterPos3sv@ 00000001400d1808     glad.obj
 0003:00001820       ??_C@_0O@NFPIKHG@glRasterPos4d@ 00000001400d1820     glad.obj
 0003:00001830       ??_C@_0P@MAAOFFPD@glRasterPos4dv@ 00000001400d1830     glad.obj
 0003:00001848       ??_C@_0O@DPGJOIPE@glRasterPos4f@ 00000001400d1848     glad.obj
 0003:00001858       ??_C@_0P@MDIKIBJN@glRasterPos4fv@ 00000001400d1858     glad.obj
 0003:00001870       ??_C@_0O@LIPBPEDL@glRasterPos4i@ 00000001400d1870     glad.obj
 0003:00001880       ??_C@_0P@MINGMGKA@glRasterPos4iv@ 00000001400d1880     glad.obj
 0003:00001898       ??_C@_0O@INMAOOA@glRasterPos4s@ 00000001400d1898     glad.obj
 0003:000018a8       ??_C@_0P@NJGHOAAG@glRasterPos4sv@ 00000001400d18a8     glad.obj
 0003:000018c0       ??_C@_07GHILMIKG@glRectd@  00000001400d18c0     glad.obj
 0003:000018d0       ??_C@_08EGLHFDGF@glRectdv@ 00000001400d18d0     glad.obj
 0003:000018e0       ??_C@_07FFLNKKCE@glRectf@  00000001400d18e0     glad.obj
 0003:000018f0       ??_C@_08EFDDIHAL@glRectfv@ 00000001400d18f0     glad.obj
 0003:00001900       ??_C@_07NCCFLGOL@glRecti@  00000001400d1900     glad.obj
 0003:00001910       ??_C@_08EOGPMADG@glRectiv@ 00000001400d1910     glad.obj
 0003:00001920       ??_C@_07GCAIEMDA@glRects@  00000001400d1920     glad.obj
 0003:00001930       ??_C@_08FPNOOGJA@glRectsv@ 00000001400d1930     glad.obj
 0003:00001940       ??_C@_0N@CKKBPCNP@glTexCoord1d@ 00000001400d1940     glad.obj
 0003:00001950       ??_C@_0O@GPCDLAMH@glTexCoord1dv@ 00000001400d1950     glad.obj
 0003:00001960       ??_C@_0N@BIJHJAFN@glTexCoord1f@ 00000001400d1960     glad.obj
 0003:00001970       ??_C@_0O@GMKHGEKJ@glTexCoord1fv@ 00000001400d1970     glad.obj
 0003:00001980       ??_C@_0N@JPAPIMJC@glTexCoord1i@ 00000001400d1980     glad.obj
 0003:00001990       ??_C@_0O@GHPLCDJE@glTexCoord1iv@ 00000001400d1990     glad.obj
 0003:000019a0       ??_C@_0N@CPCCHGEJ@glTexCoord1s@ 00000001400d19a0     glad.obj
 0003:000019b0       ??_C@_0O@HGEKAFDC@glTexCoord1sv@ 00000001400d19b0     glad.obj
 0003:000019c0       ??_C@_0N@CIOHEMIG@glTexCoord2d@ 00000001400d19c0     glad.obj
 0003:000019d0       ??_C@_0O@HNJGBPCJ@glTexCoord2dv@ 00000001400d19d0     glad.obj
 0003:000019e0       ??_C@_0N@BKNBCOAE@glTexCoord2f@ 00000001400d19e0     glad.obj
 0003:000019f0       ??_C@_0O@HOBCMLEH@glTexCoord2fv@ 00000001400d19f0     glad.obj
 0003:00001a00       ??_C@_0N@JNEJDCML@glTexCoord2i@ 00000001400d1a00     glad.obj
 0003:00001a10       ??_C@_0O@HFEOIMHK@glTexCoord2iv@ 00000001400d1a10     glad.obj
 0003:00001a20       ??_C@_0N@CNGEMIBA@glTexCoord2s@ 00000001400d1a20     glad.obj
 0003:00001a30       ??_C@_0O@GEPPKKNM@glTexCoord2sv@ 00000001400d1a30     glad.obj
 0003:00001a40       ??_C@_0N@CJCFCGLB@glTexCoord3d@ 00000001400d1a40     glad.obj
 0003:00001a50       ??_C@_0O@MFCKHIEM@glTexCoord3dv@ 00000001400d1a50     glad.obj
 0003:00001a60       ??_C@_0N@BLBDEEDD@glTexCoord3f@ 00000001400d1a60     glad.obj
 0003:00001a70       ??_C@_0O@MGKOKMCC@glTexCoord3fv@ 00000001400d1a70     glad.obj
 0003:00001a80       ??_C@_0N@JMILFIPM@glTexCoord3i@ 00000001400d1a80     glad.obj
 0003:00001a90       ??_C@_0O@MNPCOLBP@glTexCoord3iv@ 00000001400d1a90     glad.obj
 0003:00001aa0       ??_C@_0N@CMKGKCCH@glTexCoord3s@ 00000001400d1aa0     glad.obj
 0003:00001ab0       ??_C@_0O@NMEDMNLJ@glTexCoord3sv@ 00000001400d1ab0     glad.obj
 0003:00001ac0       ??_C@_0N@CMGKDADE@glTexCoord4d@ 00000001400d1ac0     glad.obj
 0003:00001ad0       ??_C@_0O@FIPNEAPF@glTexCoord4dv@ 00000001400d1ad0     glad.obj
 0003:00001ae0       ??_C@_0N@BOFMFCLG@glTexCoord4f@ 00000001400d1ae0     glad.obj
 0003:00001af0       ??_C@_0O@FLHJJEJL@glTexCoord4fv@ 00000001400d1af0     glad.obj
 0003:00001b00       ??_C@_0N@JJMEEOHJ@glTexCoord4i@ 00000001400d1b00     glad.obj
 0003:00001b10       ??_C@_0O@FACFNDKG@glTexCoord4iv@ 00000001400d1b10     glad.obj
 0003:00001b20       ??_C@_0N@CJOJLEKC@glTexCoord4s@ 00000001400d1b20     glad.obj
 0003:00001b30       ??_C@_0O@EBJEPFAA@glTexCoord4sv@ 00000001400d1b30     glad.obj
 0003:00001b40       ??_C@_0L@INGMNOLD@glVertex2d@ 00000001400d1b40     glad.obj
 0003:00001b50       ??_C@_0M@CLIAFAJI@glVertex2dv@ 00000001400d1b50     glad.obj
 0003:00001b60       ??_C@_0L@LPFKLMDB@glVertex2f@ 00000001400d1b60     glad.obj
 0003:00001b70       ??_C@_0M@CIAEIEPG@glVertex2fv@ 00000001400d1b70     glad.obj
 0003:00001b80       ??_C@_0L@DIMCKAPO@glVertex2i@ 00000001400d1b80     glad.obj
 0003:00001b90       ??_C@_0M@CDFIMDML@glVertex2iv@ 00000001400d1b90     glad.obj
 0003:00001ba0       ??_C@_0L@IIOPFKCF@glVertex2s@ 00000001400d1ba0     glad.obj
 0003:00001bb0       ??_C@_0M@DCOJOFGN@glVertex2sv@ 00000001400d1bb0     glad.obj
 0003:00001bc0       ??_C@_0L@IMKOLEIE@glVertex3d@ 00000001400d1bc0     glad.obj
 0003:00001bd0       ??_C@_0M@JDDMDHPN@glVertex3dv@ 00000001400d1bd0     glad.obj
 0003:00001be0       ??_C@_0L@LOJINGAG@glVertex3f@ 00000001400d1be0     glad.obj
 0003:00001bf0       ??_C@_0M@JALIODJD@glVertex3fv@ 00000001400d1bf0     glad.obj
 0003:00001c00       ??_C@_0L@DJAAMKMJ@glVertex3i@ 00000001400d1c00     glad.obj
 0003:00001c10       ??_C@_0M@JLOEKEKO@glVertex3iv@ 00000001400d1c10     glad.obj
 0003:00001c20       ??_C@_0L@IJCNDABC@glVertex3s@ 00000001400d1c20     glad.obj
 0003:00001c30       ??_C@_0M@IKFFICAI@glVertex3sv@ 00000001400d1c30     glad.obj
 0003:00001c40       ??_C@_0L@IJOBKCAB@glVertex4d@ 00000001400d1c40     glad.obj
 0003:00001c50       ??_C@_0M@OOLAPEE@glVertex4dv@ 00000001400d1c50     glad.obj
 0003:00001c60       ??_C@_0L@LLNHMAID@glVertex4f@ 00000001400d1c60     glad.obj
 0003:00001c70       ??_C@_0M@NGPNLCK@glVertex4fv@ 00000001400d1c70     glad.obj
 0003:00001c80       ??_C@_0L@DMEPNMEM@glVertex4i@ 00000001400d1c80     glad.obj
 0003:00001c90       ??_C@_0M@GDDJMBH@glVertex4iv@ 00000001400d1c90     glad.obj
 0003:00001ca0       ??_C@_0L@IMGCCGJH@glVertex4s@ 00000001400d1ca0     glad.obj
 0003:00001cb0       ??_C@_0M@BHICLKLB@glVertex4sv@ 00000001400d1cb0     glad.obj
 0003:00001cc0       ??_C@_0M@OHCNGGFF@glClipPlane@ 00000001400d1cc0     glad.obj
 0003:00001cd0       ??_C@_0BA@OOEHEGPC@glColorMaterial@ 00000001400d1cd0     glad.obj
 0003:00001ce4       ??_C@_06JJHNMGPD@glFogf@   00000001400d1ce4     glad.obj
 0003:00001cf0       ??_C@_07FNEIAABA@glFogfv@  00000001400d1cf0     glad.obj
 0003:00001cfc       ??_C@_06BOOFNKDM@glFogi@   00000001400d1cfc     glad.obj
 0003:00001d08       ??_C@_07FGBEEHCN@glFogiv@  00000001400d1d08     glad.obj
 0003:00001d18       ??_C@_08LPDPILEL@glLightf@ 00000001400d1d18     glad.obj
 0003:00001d28       ??_C@_09JINEHJOD@glLightfv@ 00000001400d1d28     glad.obj
 0003:00001d38       ??_C@_08DIKHJHIE@glLighti@ 00000001400d1d38     glad.obj
 0003:00001d48       ??_C@_09JDIIDONO@glLightiv@ 00000001400d1d48     glad.obj
 0003:00001d58       ??_C@_0O@HPCJLAII@glLightModelf@ 00000001400d1d58     glad.obj
 0003:00001d68       ??_C@_0P@JKHJPMNC@glLightModelfv@ 00000001400d1d68     glad.obj
 0003:00001d80       ??_C@_0O@PILBKMEH@glLightModeli@ 00000001400d1d80     glad.obj
 0003:00001d90       ??_C@_0P@JBCFLLOP@glLightModeliv@ 00000001400d1d90     glad.obj
 0003:00001da8       ??_C@_0O@LDOINBOK@glLineStipple@ 00000001400d1da8     glad.obj
 0003:00001db8       ??_C@_0M@HANOIKMC@glMaterialf@ 00000001400d1db8     glad.obj
 0003:00001dc8       ??_C@_0N@MHPKDGG@glMaterialfv@ 00000001400d1dc8     glad.obj
 0003:00001dd8       ??_C@_0M@PHEGJGAN@glMateriali@ 00000001400d1dd8     glad.obj
 0003:00001de8       ??_C@_0N@HCDOEFL@glMaterialiv@ 00000001400d1de8     glad.obj
 0003:00001df8       ??_C@_0BB@GIADEJGP@glPolygonStipple@ 00000001400d1df8     glad.obj
 0003:00001e10       ??_C@_0N@NALMFHKN@glShadeModel@ 00000001400d1e10     glad.obj
 0003:00001e20       ??_C@_09FCLLGECI@glTexEnvf@ 00000001400d1e20     glad.obj
 0003:00001e30       ??_C@_0L@EMICMNOO@glTexEnvfv@ 00000001400d1e30     glad.obj
 0003:00001e40       ??_C@_09NFCDHIOH@glTexEnvi@ 00000001400d1e40     glad.obj
 0003:00001e50       ??_C@_0L@EHNOIKND@glTexEnviv@ 00000001400d1e50     glad.obj
 0003:00001e60       ??_C@_09NPHJCAAD@glTexGend@ 00000001400d1e60     glad.obj
 0003:00001e70       ??_C@_0L@OALDPGOK@glTexGendv@ 00000001400d1e70     glad.obj
 0003:00001e80       ??_C@_09ONEPECIB@glTexGenf@ 00000001400d1e80     glad.obj
 0003:00001e90       ??_C@_0L@ODDHCCIE@glTexGenfv@ 00000001400d1e90     glad.obj
 0003:00001ea0       ??_C@_09GKNHFOEO@glTexGeni@ 00000001400d1ea0     glad.obj
 0003:00001eb0       ??_C@_0L@OIGLGFLJ@glTexGeniv@ 00000001400d1eb0     glad.obj
 0003:00001ec0       ??_C@_0BB@COFAIKCN@glFeedbackBuffer@ 00000001400d1ec0     glad.obj
 0003:00001ed8       ??_C@_0P@KACPMBCN@glSelectBuffer@ 00000001400d1ed8     glad.obj
 0003:00001ef0       ??_C@_0N@HCFJFDGP@glRenderMode@ 00000001400d1ef0     glad.obj
 0003:00001f00       ??_C@_0M@LBOBLINN@glInitNames@ 00000001400d1f00     glad.obj
 0003:00001f10       ??_C@_0L@JFFJNAJA@glLoadName@ 00000001400d1f10     glad.obj
 0003:00001f20       ??_C@_0O@KCIMMNEH@glPassThrough@ 00000001400d1f20     glad.obj
 0003:00001f30       ??_C@_09IKDPIJOE@glPopName@ 00000001400d1f30     glad.obj
 0003:00001f40       ??_C@_0L@LFFFABIK@glPushName@ 00000001400d1f40     glad.obj
 0003:00001f50       ??_C@_0N@OKAMEJMG@glClearAccum@ 00000001400d1f50     glad.obj
 0003:00001f60       ??_C@_0N@EIILHCMH@glClearIndex@ 00000001400d1f60     glad.obj
 0003:00001f70       ??_C@_0M@ONDJOEOA@glIndexMask@ 00000001400d1f70     glad.obj
 0003:00001f80       ??_C@_07LNIJJMEN@glAccum@  00000001400d1f80     glad.obj
 0003:00001f90       ??_C@_0M@LLNGAHMN@glPopAttrib@ 00000001400d1f90     glad.obj
 0003:00001fa0       ??_C@_0N@KDMLHFJM@glPushAttrib@ 00000001400d1fa0     glad.obj
 0003:00001fb0       ??_C@_07FEHGGJHC@glMap1d@  00000001400d1fb0     glad.obj
 0003:00001fc0       ??_C@_07GGEAALPA@glMap1f@  00000001400d1fc0     glad.obj
 0003:00001fd0       ??_C@_07FGDANHCL@glMap2d@  00000001400d1fd0     glad.obj
 0003:00001fe0       ??_C@_07GEAGLFKJ@glMap2f@  00000001400d1fe0     glad.obj
 0003:00001ff0       ??_C@_0M@MNDKIDNO@glMapGrid1d@ 00000001400d1ff0     glad.obj
 0003:00002000       ??_C@_0M@PPAMOBFM@glMapGrid1f@ 00000001400d2000     glad.obj
 0003:00002010       ??_C@_0M@MPHMDNIH@glMapGrid2d@ 00000001400d2010     glad.obj
 0003:00002020       ??_C@_0M@PNEKFPAF@glMapGrid2f@ 00000001400d2020     glad.obj
 0003:00002030       ??_C@_0O@FJBIDDKI@glEvalCoord1d@ 00000001400d2030     glad.obj
 0003:00002040       ??_C@_0P@KBDBONJJ@glEvalCoord1dv@ 00000001400d2040     glad.obj
 0003:00002058       ??_C@_0O@GLCOFBCK@glEvalCoord1f@ 00000001400d2058     glad.obj
 0003:00002068       ??_C@_0P@KCLFDJPH@glEvalCoord1fv@ 00000001400d2068     glad.obj
 0003:00002080       ??_C@_0O@FLFOINPB@glEvalCoord2d@ 00000001400d2080     glad.obj
 0003:00002090       ??_C@_0P@LDIEECHH@glEvalCoord2dv@ 00000001400d2090     glad.obj
 0003:000020a8       ??_C@_0O@GJGIOPHD@glEvalCoord2f@ 00000001400d20a8     glad.obj
 0003:000020b8       ??_C@_0P@LAAAJGBJ@glEvalCoord2fv@ 00000001400d20b8     glad.obj
 0003:000020d0       ??_C@_0M@DCFEDLDA@glEvalMesh1@ 00000001400d20d0     glad.obj
 0003:000020e0       ??_C@_0N@DOEOCCJJ@glEvalPoint1@ 00000001400d20e0     glad.obj
 0003:000020f0       ??_C@_0M@BJHJGIPD@glEvalMesh2@ 00000001400d20f0     glad.obj
 0003:00002100       ??_C@_0N@BFGDHBFK@glEvalPoint2@ 00000001400d2100     glad.obj
 0003:00002110       ??_C@_0M@BJGLMKCC@glAlphaFunc@ 00000001400d2110     glad.obj
 0003:00002120       ??_C@_0M@JAMJIGNB@glPixelZoom@ 00000001400d2120     glad.obj
 0003:00002130       ??_C@_0BB@HFCIPEN@glPixelTransferf@ 00000001400d2130     glad.obj
 0003:00002148       ??_C@_0BB@IAMKJDIC@glPixelTransferi@ 00000001400d2148     glad.obj
 0003:00002160       ??_C@_0N@CNONNBNO@glPixelMapfv@ 00000001400d2160     glad.obj
 0003:00002170       ??_C@_0O@ENPFNAEO@glPixelMapuiv@ 00000001400d2170     glad.obj
 0003:00002180       ??_C@_0O@FMEEPGOI@glPixelMapusv@ 00000001400d2180     glad.obj
 0003:00002190       ??_C@_0N@OACCOOE@glCopyPixels@ 00000001400d2190     glad.obj
 0003:000021a0       ??_C@_0N@FLFIHFDP@glDrawPixels@ 00000001400d21a0     glad.obj
 0003:000021b0       ??_C@_0P@MMMNLMC@glGetClipPlane@ 00000001400d21b0     glad.obj
 0003:000021c8       ??_C@_0N@MGGMJGKA@glGetLightfv@ 00000001400d21c8     glad.obj
 0003:000021d8       ??_C@_0N@MNDANBJN@glGetLightiv@ 00000001400d21d8     glad.obj
 0003:000021e8       ??_C@_0L@FGIDEHCA@glGetMapdv@ 00000001400d21e8     glad.obj
 0003:000021f8       ??_C@_0L@FFAHJDEO@glGetMapfv@ 00000001400d21f8     glad.obj
 0003:00002208       ??_C@_0L@FOFLNEHD@glGetMapiv@ 00000001400d2208     glad.obj
 0003:00002218       ??_C@_0BA@GCPPEEDM@glGetMaterialfv@ 00000001400d2218     glad.obj
 0003:00002230       ??_C@_0BA@GJKDADAB@glGetMaterialiv@ 00000001400d2230     glad.obj
 0003:00002248       ??_C@_0BA@EDGNDGIE@glGetPixelMapfv@ 00000001400d2248     glad.obj
 0003:00002260       ??_C@_0BB@MGCFOIED@glGetPixelMapuiv@ 00000001400d2260     glad.obj
 0003:00002278       ??_C@_0BB@NHJEMOOF@glGetPixelMapusv@ 00000001400d2278     glad.obj
 0003:00002290       ??_C@_0BE@PBJHLEJI@glGetPolygonStipple@ 00000001400d2290     glad.obj
 0003:000022a8       ??_C@_0O@KDAJGFCL@glGetTexEnvfv@ 00000001400d22a8     glad.obj
 0003:000022b8       ??_C@_0O@KIFFCCBG@glGetTexEnviv@ 00000001400d22b8     glad.obj
 0003:000022c8       ??_C@_0O@PDIFOCP@glGetTexGendv@ 00000001400d22c8     glad.obj
 0003:000022d8       ??_C@_0O@MLMIKEB@glGetTexGenfv@ 00000001400d22d8     glad.obj
 0003:000022e8       ??_C@_0O@HOAMNHM@glGetTexGeniv@ 00000001400d22e8     glad.obj
 0003:000022f8       ??_C@_08DMFMJKDH@glIsList@ 00000001400d22f8     glad.obj
 0003:00002308       ??_C@_09ICLFHOKP@glFrustum@ 00000001400d2308     glad.obj
 0003:00002318       ??_C@_0P@EJAFHEPO@glLoadIdentity@ 00000001400d2318     glad.obj
 0003:00002330       ??_C@_0O@DJGBMGEI@glLoadMatrixf@ 00000001400d2330     glad.obj
 0003:00002340       ??_C@_0O@LFHKEMK@glLoadMatrixd@ 00000001400d2340     glad.obj
 0003:00002350       ??_C@_0N@KDLNHKEJ@glMatrixMode@ 00000001400d2350     glad.obj
 0003:00002360       ??_C@_0O@LHKDNPKJ@glMultMatrixf@ 00000001400d2360     glad.obj
 0003:00002370       ??_C@_0O@IFJFLNCL@glMultMatrixd@ 00000001400d2370     glad.obj
 0003:00002380       ??_C@_07DBAFHOII@glOrtho@  00000001400d2380     glad.obj
 0003:00002390       ??_C@_0M@JPEAAEEK@glPopMatrix@ 00000001400d2390     glad.obj
 0003:000023a0       ??_C@_0N@IHFNHGBL@glPushMatrix@ 00000001400d23a0     glad.obj
 0003:000023b0       ??_C@_09GANFLDAO@glRotated@ 00000001400d23b0     glad.obj
 0003:000023c0       ??_C@_09FCODNBIM@glRotatef@ 00000001400d23c0     glad.obj
 0003:000023d0       ??_C@_08KAMCINDI@glScaled@ 00000001400d23d0     glad.obj
 0003:000023e0       ??_C@_08JCPEOPLK@glScalef@ 00000001400d23e0     glad.obj
 0003:000023f0       ??_C@_0N@LHMFFDFG@glTranslated@ 00000001400d23f0     glad.obj
 0003:00002400       ??_C@_0N@IFPDDBNE@glTranslatef@ 00000001400d2400     glad.obj
 0003:00002410       ??_C@_0N@CMNPPOHA@glDrawArrays@ 00000001400d2410     glad.obj
 0003:00002420       ??_C@_0P@MENFIFGE@glDrawElements@ 00000001400d2420     glad.obj
 0003:00002438       ??_C@_0O@LADEDGJO@glGetPointerv@ 00000001400d2438     glad.obj
 0003:00002448       ??_C@_0BA@FFBJGNC@glPolygonOffset@ 00000001400d2448     glad.obj
 0003:00002460       ??_C@_0BB@MEEDBHPL@glCopyTexImage1D@ 00000001400d2460     glad.obj
 0003:00002478       ??_C@_0BB@MGAFKJKC@glCopyTexImage2D@ 00000001400d2478     glad.obj
 0003:00002490       ??_C@_0BE@PKNCAIGI@glCopyTexSubImage1D@ 00000001400d2490     glad.obj
 0003:000024a8       ??_C@_0BE@PIJELGDB@glCopyTexSubImage2D@ 00000001400d24a8     glad.obj
 0003:000024c0       ??_C@_0BA@NFOOCKJD@glTexSubImage1D@ 00000001400d24c0     glad.obj
 0003:000024d8       ??_C@_0BA@NHKIJEMK@glTexSubImage2D@ 00000001400d24d8     glad.obj
 0003:000024f0       ??_C@_0O@JKKCIBGC@glBindTexture@ 00000001400d24f0     glad.obj
 0003:00002500       ??_C@_0BB@KMPLFJIC@glDeleteTextures@ 00000001400d2500     glad.obj
 0003:00002518       ??_C@_0O@LLMANLNK@glGenTextures@ 00000001400d2518     glad.obj
 0003:00002528       ??_C@_0M@NJHAEPDN@glIsTexture@ 00000001400d2528     glad.obj
 0003:00002538       ??_C@_0P@CKCIJELG@glArrayElement@ 00000001400d2538     glad.obj
 0003:00002550       ??_C@_0P@DPKEGLKI@glColorPointer@ 00000001400d2550     glad.obj
 0003:00002568       ??_C@_0BF@LJDHBNBP@glDisableClientState@ 00000001400d2568     glad.obj
 0003:00002588       ??_C@_0BC@LILGCNN@glEdgeFlagPointer@ 00000001400d2588     glad.obj
 0003:000025a0       ??_C@_0BE@KECPKGNE@glEnableClientState@ 00000001400d25a0     glad.obj
 0003:000025b8       ??_C@_0P@KGJBLKPD@glIndexPointer@ 00000001400d25b8     glad.obj
 0003:000025d0       ??_C@_0BE@EDEDCKLI@glInterleavedArrays@ 00000001400d25d0     glad.obj
 0003:000025e8       ??_C@_0BA@DCLMCEOP@glNormalPointer@ 00000001400d25e8     glad.obj
 0003:00002600       ??_C@_0BC@DAOMILMO@glTexCoordPointer@ 00000001400d2600     glad.obj
 0003:00002618       ??_C@_0BA@HAHECJNK@glVertexPointer@ 00000001400d2618     glad.obj
 0003:00002630       ??_C@_0BG@DHOKJLEP@glAreTexturesResident@ 00000001400d2630     glad.obj
 0003:00002650       ??_C@_0BF@FFCGNNIA@glPrioritizeTextures@ 00000001400d2650     glad.obj
 0003:00002670       ??_C@_09BBIPIKNC@glIndexub@ 00000001400d2670     glad.obj
 0003:00002680       ??_C@_0L@BBKJOCAC@glIndexubv@ 00000001400d2680     glad.obj
 0003:00002690       ??_C@_0BC@GOOJKIDH@glPopClientAttrib@ 00000001400d2690     glad.obj
 0003:000026a8       ??_C@_0BD@JKGPLNEA@glPushClientAttrib@ 00000001400d26a8     glad.obj
 0003:000026c0       ??_C@_0BE@IHNAGJGJ@glDrawRangeElements@ 00000001400d26c0     glad.obj
 0003:000026d8       ??_C@_0N@JAEIBBBF@glTexImage3D@ 00000001400d26d8     glad.obj
 0003:000026e8       ??_C@_0BA@NGGKPOPN@glTexSubImage3D@ 00000001400d26e8     glad.obj
 0003:00002700       ??_C@_0BE@PJFGNMAG@glCopyTexSubImage3D@ 00000001400d2700     glad.obj
 0003:00002718       ??_C@_0BA@KOBBIKOF@glActiveTexture@ 00000001400d2718     glad.obj
 0003:00002730       ??_C@_0BB@BJGIPMOA@glSampleCoverage@ 00000001400d2730     glad.obj
 0003:00002748       ??_C@_0BH@GGHNMAGP@glCompressedTexImage3D@ 00000001400d2748     glad.obj
 0003:00002768       ??_C@_0BH@GHLPKKFI@glCompressedTexImage2D@ 00000001400d2768     glad.obj
 0003:00002788       ??_C@_0BH@GFPJBEAB@glCompressedTexImage1D@ 00000001400d2788     glad.obj
 0003:000027a8       ??_C@_0BK@EBJMCDPA@glCompressedTexSubImage3D@ 00000001400d27a8     glad.obj
 0003:000027c8       ??_C@_0BK@EAFOEJMH@glCompressedTexSubImage2D@ 00000001400d27c8     glad.obj
 0003:000027e8       ??_C@_0BK@ECBIPHJO@glCompressedTexSubImage1D@ 00000001400d27e8     glad.obj
 0003:00002808       ??_C@_0BI@MPANLPPL@glGetCompressedTexImage@ 00000001400d2808     glad.obj
 0003:00002828       ??_C@_0BG@EGKOMLFO@glClientActiveTexture@ 00000001400d2828     glad.obj
 0003:00002848       ??_C@_0BC@IHHPPFPP@glMultiTexCoord1d@ 00000001400d2848     glad.obj
 0003:00002860       ??_C@_0BD@FEOAEOAI@glMultiTexCoord1dv@ 00000001400d2860     glad.obj
 0003:00002878       ??_C@_0BC@LFEJJHHN@glMultiTexCoord1f@ 00000001400d2878     glad.obj
 0003:00002890       ??_C@_0BD@FHGEJKGG@glMultiTexCoord1fv@ 00000001400d2890     glad.obj
 0003:000028a8       ??_C@_0BC@DCNBILLC@glMultiTexCoord1i@ 00000001400d28a8     glad.obj
 0003:000028c0       ??_C@_0BD@FMDINNFL@glMultiTexCoord1iv@ 00000001400d28c0     glad.obj
 0003:000028d8       ??_C@_0BC@ICPMHBGJ@glMultiTexCoord1s@ 00000001400d28d8     glad.obj
 0003:000028f0       ??_C@_0BD@ENIJPLPN@glMultiTexCoord1sv@ 00000001400d28f0     glad.obj
 0003:00002908       ??_C@_0BC@IFDJELKG@glMultiTexCoord2d@ 00000001400d2908     glad.obj
 0003:00002920       ??_C@_0BD@EGFFOBOG@glMultiTexCoord2dv@ 00000001400d2920     glad.obj
 0003:00002938       ??_C@_0BC@LHAPCJCE@glMultiTexCoord2f@ 00000001400d2938     glad.obj
 0003:00002950       ??_C@_0BD@EFNBDFII@glMultiTexCoord2fv@ 00000001400d2950     glad.obj
 0003:00002968       ??_C@_0BC@DAJHDFOL@glMultiTexCoord2i@ 00000001400d2968     glad.obj
 0003:00002980       ??_C@_0BD@EOINHCLF@glMultiTexCoord2iv@ 00000001400d2980     glad.obj
 0003:00002998       ??_C@_0BC@IALKMPDA@glMultiTexCoord2s@ 00000001400d2998     glad.obj
 0003:000029b0       ??_C@_0BD@FPDMFEBD@glMultiTexCoord2sv@ 00000001400d29b0     glad.obj
 0003:000029c8       ??_C@_0BC@IEPLCBJB@glMultiTexCoord3d@ 00000001400d29c8     glad.obj
 0003:000029e0       ??_C@_0BD@POOJIGID@glMultiTexCoord3dv@ 00000001400d29e0     glad.obj
 0003:000029f8       ??_C@_0BC@LGMNEDBD@glMultiTexCoord3f@ 00000001400d29f8     glad.obj
 0003:00002a10       ??_C@_0BD@PNGNFCON@glMultiTexCoord3fv@ 00000001400d2a10     glad.obj
 0003:00002a28       ??_C@_0BC@DBFFFPNM@glMultiTexCoord3i@ 00000001400d2a28     glad.obj
 0003:00002a40       ??_C@_0BD@PGDBBFNA@glMultiTexCoord3iv@ 00000001400d2a40     glad.obj
 0003:00002a58       ??_C@_0BC@IBHIKFAH@glMultiTexCoord3s@ 00000001400d2a58     glad.obj
 0003:00002a70       ??_C@_0BD@OHIADDHG@glMultiTexCoord3sv@ 00000001400d2a70     glad.obj
 0003:00002a88       ??_C@_0BC@IBLEDHBE@glMultiTexCoord4d@ 00000001400d2a88     glad.obj
 0003:00002aa0       ??_C@_0BD@GDDOLODK@glMultiTexCoord4dv@ 00000001400d2aa0     glad.obj
 0003:00002ab8       ??_C@_0BC@LDICFFJG@glMultiTexCoord4f@ 00000001400d2ab8     glad.obj
 0003:00002ad0       ??_C@_0BD@GALKGKFE@glMultiTexCoord4fv@ 00000001400d2ad0     glad.obj
 0003:00002ae8       ??_C@_0BC@DEBKEJFJ@glMultiTexCoord4i@ 00000001400d2ae8     glad.obj
 0003:00002b00       ??_C@_0BD@GLOGCNGJ@glMultiTexCoord4iv@ 00000001400d2b00     glad.obj
 0003:00002b18       ??_C@_0BC@IEDHLDIC@glMultiTexCoord4s@ 00000001400d2b18     glad.obj
 0003:00002b30       ??_C@_0BD@HKFHALMP@glMultiTexCoord4sv@ 00000001400d2b30     glad.obj
 0003:00002b48       ??_C@_0BH@OJNLGHA@glLoadTransposeMatrixf@ 00000001400d2b48     glad.obj
 0003:00002b68       ??_C@_0BH@DMKLNEPC@glLoadTransposeMatrixd@ 00000001400d2b68     glad.obj
 0003:00002b88       ??_C@_0BH@DPBMPCNC@glMultTransposeMatrixf@ 00000001400d2b88     glad.obj
 0003:00002ba8       ??_C@_0BH@NCKJAFA@glMultTransposeMatrixd@ 00000001400d2ba8     glad.obj
 0003:00002bc8       ??_C@_0BE@LLLCIIOO@glBlendFuncSeparate@ 00000001400d2bc8     glad.obj
 0003:00002be0       ??_C@_0BC@IBABPJFA@glMultiDrawArrays@ 00000001400d2be0     glad.obj
 0003:00002bf8       ??_C@_0BE@MPDFJJLL@glMultiDrawElements@ 00000001400d2bf8     glad.obj
 0003:00002c10       ??_C@_0BC@FGOOEDO@glPointParameterf@ 00000001400d2c10     glad.obj
 0003:00002c28       ??_C@_0BD@LIABKNDP@glPointParameterfv@ 00000001400d2c28     glad.obj
 0003:00002c40       ??_C@_0BC@ICPGPIPB@glPointParameteri@ 00000001400d2c40     glad.obj
 0003:00002c58       ??_C@_0BD@LDFNOKAC@glPointParameteriv@ 00000001400d2c58     glad.obj
 0003:00002c70       ??_C@_0M@GCBCNNOF@glFogCoordf@ 00000001400d2c70     glad.obj
 0003:00002c80       ??_C@_0N@KJGHNKFK@glFogCoordfv@ 00000001400d2c80     glad.obj
 0003:00002c90       ??_C@_0M@FACELPGH@glFogCoordd@ 00000001400d2c90     glad.obj
 0003:00002ca0       ??_C@_0N@KKODAODE@glFogCoorddv@ 00000001400d2ca0     glad.obj
 0003:00002cb0       ??_C@_0BC@GECGFLP@glFogCoordPointer@ 00000001400d2cb0     glad.obj
 0003:00002cc8       ??_C@_0BD@MCCHHBGK@glSecondaryColor3b@ 00000001400d2cc8     glad.obj
 0003:00002ce0       ??_C@_0BE@NEMAHBEH@glSecondaryColor3bv@ 00000001400d2ce0     glad.obj
 0003:00002cf8       ??_C@_0BD@JEHNNGOM@glSecondaryColor3d@ 00000001400d2cf8     glad.obj
 0003:00002d10       ??_C@_0BE@NAENANPF@glSecondaryColor3dv@ 00000001400d2d10     glad.obj
 0003:00002d28       ??_C@_0BD@KGELLEGO@glSecondaryColor3f@ 00000001400d2d28     glad.obj
 0003:00002d40       ??_C@_0BE@NDMJNJJL@glSecondaryColor3fv@ 00000001400d2d40     glad.obj
 0003:00002d58       ??_C@_0BD@CBNDKIKB@glSecondaryColor3i@ 00000001400d2d58     glad.obj
 0003:00002d70       ??_C@_0BE@NIJFJOKG@glSecondaryColor3iv@ 00000001400d2d70     glad.obj
 0003:00002d88       ??_C@_0BD@JBPOFCHK@glSecondaryColor3s@ 00000001400d2d88     glad.obj
 0003:00002da0       ??_C@_0BE@MJCELIAA@glSecondaryColor3sv@ 00000001400d2da0     glad.obj
 0003:00002db8       ??_C@_0BE@ODAHBDOH@glSecondaryColor3ub@ 00000001400d2db8     glad.obj
 0003:00002dd0       ??_C@_0BF@EHOIKOLI@glSecondaryColor3ubv@ 00000001400d2dd0     glad.obj
 0003:00002df0       ??_C@_0BE@PDMKCM@glSecondaryColor3ui@ 00000001400d2df0     glad.obj
 0003:00002e08       ??_C@_0BF@ELLNEBFJ@glSecondaryColor3uiv@ 00000001400d2e08     glad.obj
 0003:00002e28       ??_C@_0BE@LANODAPH@glSecondaryColor3us@ 00000001400d2e28     glad.obj
 0003:00002e40       ??_C@_0BF@FKAMGHPP@glSecondaryColor3usv@ 00000001400d2e40     glad.obj
 0003:00002e60       ??_C@_0BI@EFMNDJOO@glSecondaryColorPointer@ 00000001400d2e60     glad.obj
 0003:00002e80       ??_C@_0O@JGNKBLNH@glWindowPos2d@ 00000001400d2e80     glad.obj
 0003:00002e90       ??_C@_0P@GBEEEDBM@glWindowPos2dv@ 00000001400d2e90     glad.obj
 0003:00002ea8       ??_C@_0O@KEOMHJFF@glWindowPos2f@ 00000001400d2ea8     glad.obj
 0003:00002eb8       ??_C@_0P@GCMAJHHC@glWindowPos2fv@ 00000001400d2eb8     glad.obj
 0003:00002ed0       ??_C@_0O@CDHEGFJK@glWindowPos2i@ 00000001400d2ed0     glad.obj
 0003:00002ee0       ??_C@_0P@GJJMNAEP@glWindowPos2iv@ 00000001400d2ee0     glad.obj
 0003:00002ef8       ??_C@_0O@JDFJJPEB@glWindowPos2s@ 00000001400d2ef8     glad.obj
 0003:00002f08       ??_C@_0P@HICNPGOJ@glWindowPos2sv@ 00000001400d2f08     glad.obj
 0003:00002f20       ??_C@_0O@JHBIHBOA@glWindowPos3d@ 00000001400d2f20     glad.obj
 0003:00002f30       ??_C@_0P@NJPICEHJ@glWindowPos3dv@ 00000001400d2f30     glad.obj
 0003:00002f48       ??_C@_0O@KFCOBDGC@glWindowPos3f@ 00000001400d2f48     glad.obj
 0003:00002f58       ??_C@_0P@NKHMPABH@glWindowPos3fv@ 00000001400d2f58     glad.obj
 0003:00002f70       ??_C@_0O@CCLGAPKN@glWindowPos3i@ 00000001400d2f70     glad.obj
 0003:00002f80       ??_C@_0P@NBCALHCK@glWindowPos3iv@ 00000001400d2f80     glad.obj
 0003:00002f98       ??_C@_0O@JCJLPFHG@glWindowPos3s@ 00000001400d2f98     glad.obj
 0003:00002fa8       ??_C@_0P@MAJBJBIM@glWindowPos3sv@ 00000001400d2fa8     glad.obj
 0003:00002fc0       ??_C@_0N@PKBMFJDK@glBlendColor@ 00000001400d2fc0     glad.obj
 0003:00002fd0       ??_C@_0BA@PFHILPAN@glBlendEquation@ 00000001400d2fd0     glad.obj
 0003:00002fe8       ??_C@_0N@CJIGHHJ@glGenQueries@ 00000001400d2fe8     glad.obj
 0003:00002ff8       ??_C@_0BA@IOKEHMOH@glDeleteQueries@ 00000001400d2ff8     glad.obj
 0003:00003010       ??_C@_09CNNLCEBN@glIsQuery@ 00000001400d3010     glad.obj
 0003:00003020       ??_C@_0N@GIAGIGPA@glBeginQuery@ 00000001400d3020     glad.obj
 0003:00003030       ??_C@_0L@FLEBHIDM@glEndQuery@ 00000001400d3030     glad.obj
 0003:00003040       ??_C@_0N@BPACPFCI@glGetQueryiv@ 00000001400d3040     glad.obj
 0003:00003050       ??_C@_0BD@KMBBCJID@glGetQueryObjectiv@ 00000001400d3050     glad.obj
 0003:00003068       ??_C@_0BE@MNBBKJ@glGetQueryObjectuiv@ 00000001400d3068     glad.obj
 0003:00003080       ??_C@_0N@BONEPPLO@glBindBuffer@ 00000001400d3080     glad.obj
 0003:00003090       ??_C@_0BA@DMNLADIO@glDeleteBuffers@ 00000001400d3090     glad.obj
 0003:000030a8       ??_C@_0N@LAOHBIBA@glGenBuffers@ 00000001400d30a8     glad.obj
 0003:000030b8       ??_C@_0L@KFPDMKNG@glIsBuffer@ 00000001400d30b8     glad.obj
 0003:000030c8       ??_C@_0N@JHHJMABP@glBufferData@ 00000001400d30c8     glad.obj
 0003:000030d8       ??_C@_0BA@GAJMDBBN@glBufferSubData@ 00000001400d30d8     glad.obj
 0003:000030f0       ??_C@_0BD@PNDAHMBO@glGetBufferSubData@ 00000001400d30f0     glad.obj
 0003:00003108       ??_C@_0M@NNHDPACA@glMapBuffer@ 00000001400d3108     glad.obj
 0003:00003118       ??_C@_0O@OFGHBLEO@glUnmapBuffer@ 00000001400d3118     glad.obj
 0003:00003128       ??_C@_0BH@BMIEIFJP@glGetBufferParameteriv@ 00000001400d3128     glad.obj
 0003:00003148       ??_C@_0BE@KNJEIFMC@glGetBufferPointerv@ 00000001400d3148     glad.obj
 0003:00003160       ??_C@_0BI@JNHDNJAG@glBlendEquationSeparate@ 00000001400d3160     glad.obj
 0003:00003180       ??_C@_0O@COHJKDBH@glDrawBuffers@ 00000001400d3180     glad.obj
 0003:00003190       ??_C@_0BE@GAPLDNGF@glStencilOpSeparate@ 00000001400d3190     glad.obj
 0003:000031a8       ??_C@_0BG@FCMNCEIA@glStencilFuncSeparate@ 00000001400d31a8     glad.obj
 0003:000031c8       ??_C@_0BG@MMKPIEJI@glStencilMaskSeparate@ 00000001400d31c8     glad.obj
 0003:000031e8       ??_C@_0P@LDMLEABL@glAttachShader@ 00000001400d31e8     glad.obj
 0003:00003200       ??_C@_0BF@MHKEFIHM@glBindAttribLocation@ 00000001400d3200     glad.obj
 0003:00003220       ??_C@_0BA@DGIEGONF@glCompileShader@ 00000001400d3220     glad.obj
 0003:00003238       ??_C@_0BA@FLKLHNKP@glCreateProgram@ 00000001400d3238     glad.obj
 0003:00003250       ??_C@_0P@HGHBNC@glCreateShader@ 00000001400d3250     glad.obj
 0003:00003268       ??_C@_0BA@NKGCDOPO@glDeleteProgram@ 00000001400d3268     glad.obj
 0003:00003280       ??_C@_0P@HHCDONAG@glDeleteShader@ 00000001400d3280     glad.obj
 0003:00003298       ??_C@_0P@DJFJFCJL@glDetachShader@ 00000001400d3298     glad.obj
 0003:000032b0       ??_C@_0BL@NKHLOFFF@glDisableVertexAttribArray@ 00000001400d32b0     glad.obj
 0003:000032d0       ??_C@_0BK@EHBAHNHE@glEnableVertexAttribArray@ 00000001400d32d0     glad.obj
 0003:000032f0       ??_C@_0BC@MBALAOHF@glGetActiveAttrib@ 00000001400d32f0     glad.obj
 0003:00003308       ??_C@_0BD@NIMHLLKN@glGetActiveUniform@ 00000001400d3308     glad.obj
 0003:00003320       ??_C@_0BF@GHMDGFEM@glGetAttachedShaders@ 00000001400d3320     glad.obj
 0003:00003340       ??_C@_0BE@BEPGJDMM@glGetAttribLocation@ 00000001400d3340     glad.obj
 0003:00003358       ??_C@_0P@FMMDFLCO@glGetProgramiv@ 00000001400d3358     glad.obj
 0003:00003370       ??_C@_0BE@DHGHAJFL@glGetProgramInfoLog@ 00000001400d3370     glad.obj
 0003:00003388       ??_C@_0O@JBDFPDMG@glGetShaderiv@ 00000001400d3388     glad.obj
 0003:00003398       ??_C@_0BD@GIABBCMO@glGetShaderInfoLog@ 00000001400d3398     glad.obj
 0003:000033b0       ??_C@_0BC@ELEIFJEL@glGetShaderSource@ 00000001400d33b0     glad.obj
 0003:000033c8       ??_C@_0BF@KIOPGICP@glGetUniformLocation@ 00000001400d33c8     glad.obj
 0003:000033e8       ??_C@_0P@DFCJIBG@glGetUniformfv@ 00000001400d33e8     glad.obj
 0003:00003400       ??_C@_0P@IAONPCL@glGetUniformiv@ 00000001400d3400     glad.obj
 0003:00003418       ??_C@_0BE@HDPMJMIN@glGetVertexAttribdv@ 00000001400d3418     glad.obj
 0003:00003430       ??_C@_0BE@HAHIEIOD@glGetVertexAttribfv@ 00000001400d3430     glad.obj
 0003:00003448       ??_C@_0BE@HLCEAPNO@glGetVertexAttribiv@ 00000001400d3448     glad.obj
 0003:00003460       ??_C@_0BK@DOJMENLD@glGetVertexAttribPointerv@ 00000001400d3460     glad.obj
 0003:00003480       ??_C@_0M@INLOJDGO@glIsProgram@ 00000001400d3480     glad.obj
 0003:00003490       ??_C@_0L@MDDLFIHC@glIsShader@ 00000001400d3490     glad.obj
 0003:000034a0       ??_C@_0O@PIOEEBPO@glLinkProgram@ 00000001400d34a0     glad.obj
 0003:000034b0       ??_C@_0P@DFHCPFMO@glShaderSource@ 00000001400d34b0     glad.obj
 0003:000034c8       ??_C@_0N@ICBDHBI@glUseProgram@ 00000001400d34c8     glad.obj
 0003:000034d8       ??_C@_0M@MLICAPOF@glUniform1f@ 00000001400d34d8     glad.obj
 0003:000034e8       ??_C@_0M@MJMELBLM@glUniform2f@ 00000001400d34e8     glad.obj
 0003:000034f8       ??_C@_0M@MIAGNLIL@glUniform3f@ 00000001400d34f8     glad.obj
 0003:00003508       ??_C@_0M@MNEJMNAO@glUniform4f@ 00000001400d3508     glad.obj
 0003:00003518       ??_C@_0M@EMBKBDCK@glUniform1i@ 00000001400d3518     glad.obj
 0003:00003528       ??_C@_0M@EOFMKNHD@glUniform2i@ 00000001400d3528     glad.obj
 0003:00003538       ??_C@_0M@EPJOMHEE@glUniform3i@ 00000001400d3538     glad.obj
 0003:00003548       ??_C@_0M@EKNBNBMB@glUniform4i@ 00000001400d3548     glad.obj
 0003:00003558       ??_C@_0N@KJMOEKII@glUniform1fv@ 00000001400d3558     glad.obj
 0003:00003568       ??_C@_0N@LLHLOFGG@glUniform2fv@ 00000001400d3568     glad.obj
 0003:00003578       ??_C@_0N@DMHICAD@glUniform3fv@ 00000001400d3578     glad.obj
 0003:00003588       ??_C@_0N@JOBALKLK@glUniform4fv@ 00000001400d3588     glad.obj
 0003:00003598       ??_C@_0N@KCJCANLF@glUniform1iv@ 00000001400d3598     glad.obj
 0003:000035a8       ??_C@_0N@LACHKCFL@glUniform2iv@ 00000001400d35a8     glad.obj
 0003:000035b8       ??_C@_0N@IJLMFDO@glUniform3iv@ 00000001400d35b8     glad.obj
 0003:000035c8       ??_C@_0N@JFEMPNIH@glUniform4iv@ 00000001400d35c8     glad.obj
 0003:000035d8       ??_C@_0BD@JIBJELHD@glUniformMatrix2fv@ 00000001400d35d8     glad.obj
 0003:000035f0       ??_C@_0BD@CAKFCMBG@glUniformMatrix3fv@ 00000001400d35f0     glad.obj
 0003:00003608       ??_C@_0BD@LNHCBEKP@glUniformMatrix4fv@ 00000001400d3608     glad.obj
 0003:00003620       ??_C@_0BC@MAPGDLJK@glValidateProgram@ 00000001400d3620     glad.obj
 0003:00003638       ??_C@_0BB@PIOLPNPC@glVertexAttrib1d@ 00000001400d3638     glad.obj
 0003:00003650       ??_C@_0BC@CKCOKGLN@glVertexAttrib1dv@ 00000001400d3650     glad.obj
 0003:00003668       ??_C@_0BB@MKNNJPHA@glVertexAttrib1f@ 00000001400d3668     glad.obj
 0003:00003680       ??_C@_0BC@CJKKHCND@glVertexAttrib1fv@ 00000001400d3680     glad.obj
 0003:00003698       ??_C@_0BB@PNGIHJGE@glVertexAttrib1s@ 00000001400d3698     glad.obj
 0003:000036b0       ??_C@_0BC@DDEHBDEI@glVertexAttrib1sv@ 00000001400d36b0     glad.obj
 0003:000036c8       ??_C@_0BB@PKKNEDKL@glVertexAttrib2d@ 00000001400d36c8     glad.obj
 0003:000036e0       ??_C@_0BC@DIJLAJFD@glVertexAttrib2dv@ 00000001400d36e0     glad.obj
 0003:000036f8       ??_C@_0BB@MIJLCBCJ@glVertexAttrib2f@ 00000001400d36f8     glad.obj
 0003:00003710       ??_C@_0BC@DLBPNNDN@glVertexAttrib2fv@ 00000001400d3710     glad.obj
 0003:00003728       ??_C@_0BB@PPCOMHDN@glVertexAttrib2s@ 00000001400d3728     glad.obj
 0003:00003740       ??_C@_0BC@CBPCLMKG@glVertexAttrib2sv@ 00000001400d3740     glad.obj
 0003:00003758       ??_C@_0BB@PLGPCJJM@glVertexAttrib3d@ 00000001400d3758     glad.obj
 0003:00003770       ??_C@_0BC@IACHGODG@glVertexAttrib3dv@ 00000001400d3770     glad.obj
 0003:00003788       ??_C@_0BB@MJFJELBO@glVertexAttrib3f@ 00000001400d3788     glad.obj
 0003:000037a0       ??_C@_0BC@IDKDLKFI@glVertexAttrib3fv@ 00000001400d37a0     glad.obj
 0003:000037b8       ??_C@_0BB@POOMKNAK@glVertexAttrib3s@ 00000001400d37b8     glad.obj
 0003:000037d0       ??_C@_0BC@JJEONLMD@glVertexAttrib3sv@ 00000001400d37d0     glad.obj
 0003:000037e8       ??_C@_0BD@NANPPEGB@glVertexAttrib4Nbv@ 00000001400d37e8     glad.obj
 0003:00003800       ??_C@_0BD@NMIKBLIA@glVertexAttrib4Niv@ 00000001400d3800     glad.obj
 0003:00003818       ??_C@_0BD@MNDLDNCG@glVertexAttrib4Nsv@ 00000001400d3818     glad.obj
 0003:00003830       ??_C@_0BD@OHBIJGMB@glVertexAttrib4Nub@ 00000001400d3830     glad.obj
 0003:00003848       ??_C@_0BE@JFOBDEMA@glVertexAttrib4Nubv@ 00000001400d3848     glad.obj
 0003:00003860       ??_C@_0BE@JJLENLCB@glVertexAttrib4Nuiv@ 00000001400d3860     glad.obj
 0003:00003878       ??_C@_0BE@IIAFPNIH@glVertexAttrib4Nusv@ 00000001400d3878     glad.obj
 0003:00003890       ??_C@_0BC@BJHNCKDN@glVertexAttrib4bv@ 00000001400d3890     glad.obj
 0003:000038a8       ??_C@_0BB@POCADPBJ@glVertexAttrib4d@ 00000001400d38a8     glad.obj
 0003:000038c0       ??_C@_0BC@BNPAFGIP@glVertexAttrib4dv@ 00000001400d38c0     glad.obj
 0003:000038d8       ??_C@_0BB@MMBGFNJL@glVertexAttrib4f@ 00000001400d38d8     glad.obj
 0003:000038f0       ??_C@_0BC@BOHEICOB@glVertexAttrib4fv@ 00000001400d38f0     glad.obj
 0003:00003908       ??_C@_0BC@BFCIMFNM@glVertexAttrib4iv@ 00000001400d3908     glad.obj
 0003:00003920       ??_C@_0BB@PLKDLLIP@glVertexAttrib4s@ 00000001400d3920     glad.obj
 0003:00003938       ??_C@_0BC@EJJODHK@glVertexAttrib4sv@ 00000001400d3938     glad.obj
 0003:00003950       ??_C@_0BD@PHPFILMB@glVertexAttrib4ubv@ 00000001400d3950     glad.obj
 0003:00003968       ??_C@_0BD@PLKAGECA@glVertexAttrib4uiv@ 00000001400d3968     glad.obj
 0003:00003980       ??_C@_0BD@OKBBECIG@glVertexAttrib4usv@ 00000001400d3980     glad.obj
 0003:00003998       ??_C@_0BG@JPNNNPKG@glVertexAttribPointer@ 00000001400d3998     glad.obj
 0003:000039b8       ??_C@_0BF@KDDJMCDK@glUniformMatrix2x3fv@ 00000001400d39b8     glad.obj
 0003:000039d8       ??_C@_0BF@NANJHGPK@glUniformMatrix3x2fv@ 00000001400d39d8     glad.obj
 0003:000039f8       ??_C@_0BF@DOOOPKID@glUniformMatrix2x4fv@ 00000001400d39f8     glad.obj
 0003:00003a18       ??_C@_0BF@MNNMEGEC@glUniformMatrix4x2fv@ 00000001400d3a18     glad.obj
 0003:00003a38       ??_C@_0BF@PFLCCJCG@glUniformMatrix3x4fv@ 00000001400d3a38     glad.obj
 0003:00003a58       ??_C@_0BF@HFGACBCH@glUniformMatrix4x3fv@ 00000001400d3a58     glad.obj
 0003:00003a78       ??_C@_0N@JHNNNJFG@glColorMaski@ 00000001400d3a78     glad.obj
 0003:00003a88       ??_C@_0BA@OAKNOBP@glGetBooleani_v@ 00000001400d3a88     glad.obj
 0003:00003aa0       ??_C@_0BA@FKCNNMFO@glGetIntegeri_v@ 00000001400d3aa0     glad.obj
 0003:00003ab8       ??_C@_09IEGEGIEN@glEnablei@ 00000001400d3ab8     glad.obj
 0003:00003ac8       ??_C@_0L@BMJPGDDH@glDisablei@ 00000001400d3ac8     glad.obj
 0003:00003ad8       ??_C@_0N@IMGKGOKN@glIsEnabledi@ 00000001400d3ad8     glad.obj
 0003:00003ae8       ??_C@_0BJ@FHJKOECC@glBeginTransformFeedback@ 00000001400d3ae8     glad.obj
 0003:00003b08       ??_C@_0BH@LCFLNNBH@glEndTransformFeedback@ 00000001400d3b08     glad.obj
 0003:00003b28       ??_C@_0BC@EEMMCHMB@glBindBufferRange@ 00000001400d3b28     glad.obj
 0003:00003b40       ??_C@_0BB@LDPKOCJI@glBindBufferBase@ 00000001400d3b40     glad.obj
 0003:00003b58       ??_C@_0BM@IJFAKBEF@glTransformFeedbackVaryings@ 00000001400d3b58     glad.obj
 0003:00003b80       ??_C@_0BO@ODFLPNG@glGetTransformFeedbackVarying@ 00000001400d3b80     glad.obj
 0003:00003ba8       ??_C@_0N@HLGAGIMI@glClampColor@ 00000001400d3ba8     glad.obj
 0003:00003bb8       ??_C@_0BJ@EHEPIEPF@glBeginConditionalRender@ 00000001400d3bb8     glad.obj
 0003:00003bd8       ??_C@_0BH@KCIOLNMA@glEndConditionalRender@ 00000001400d3bd8     glad.obj
 0003:00003bf8       ??_C@_0BH@NLOEHKCD@glVertexAttribIPointer@ 00000001400d3bf8     glad.obj
 0003:00003c18       ??_C@_0BF@KPDNEONP@glGetVertexAttribIiv@ 00000001400d3c18     glad.obj
 0003:00003c38       ??_C@_0BG@GCBDCABB@glGetVertexAttribIuiv@ 00000001400d3c38     glad.obj
 0003:00003c58       ??_C@_0BC@CDIIMMAL@glVertexAttribI1i@ 00000001400d3c58     glad.obj
 0003:00003c70       ??_C@_0BC@CBMOHCFC@glVertexAttribI2i@ 00000001400d3c70     glad.obj
 0003:00003c88       ??_C@_0BC@CAAMBIGF@glVertexAttribI3i@ 00000001400d3c88     glad.obj
 0003:00003ca0       ??_C@_0BC@CFEDAOOA@glVertexAttribI4i@ 00000001400d3ca0     glad.obj
 0003:00003cb8       ??_C@_0BD@DGPCNLLO@glVertexAttribI1ui@ 00000001400d3cb8     glad.obj
 0003:00003cd0       ??_C@_0BD@CEEHHEFA@glVertexAttribI2ui@ 00000001400d3cd0     glad.obj
 0003:00003ce8       ??_C@_0BD@JMPLBDDF@glVertexAttribI3ui@ 00000001400d3ce8     glad.obj
 0003:00003d00       ??_C@_0BD@BCMCLIM@glVertexAttribI4ui@ 00000001400d3d00     glad.obj
 0003:00003d18       ??_C@_0BD@OOJEIPDE@glVertexAttribI1iv@ 00000001400d3d18     glad.obj
 0003:00003d30       ??_C@_0BD@PMCBCANK@glVertexAttribI2iv@ 00000001400d3d30     glad.obj
 0003:00003d48       ??_C@_0BD@EEJNEHLP@glVertexAttribI3iv@ 00000001400d3d48     glad.obj
 0003:00003d60       ??_C@_0BD@NJEKHPAG@glVertexAttribI4iv@ 00000001400d3d60     glad.obj
 0003:00003d78       ??_C@_0BE@FFIKLCCA@glVertexAttribI1uiv@ 00000001400d3d78     glad.obj
 0003:00003d90       ??_C@_0BE@BCCKMIPA@glVertexAttribI2uiv@ 00000001400d3d90     glad.obj
 0003:00003da8       ??_C@_0BE@CPEKOBEA@glVertexAttribI3uiv@ 00000001400d3da8     glad.obj
 0003:00003dc0       ??_C@_0BE@JNGKDNFA@glVertexAttribI4uiv@ 00000001400d3dc0     glad.obj
 0003:00003dd8       ??_C@_0BD@NFBPJAOH@glVertexAttribI4bv@ 00000001400d3dd8     glad.obj
 0003:00003df0       ??_C@_0BD@MIPLFJKA@glVertexAttribI4sv@ 00000001400d3df0     glad.obj
 0003:00003e08       ??_C@_0BE@JBDPNCLB@glVertexAttribI4ubv@ 00000001400d3e08     glad.obj
 0003:00003e20       ??_C@_0BE@IMNLBLPG@glVertexAttribI4usv@ 00000001400d3e20     glad.obj
 0003:00003e38       ??_C@_0BA@NIGECFIF@glGetUniformuiv@ 00000001400d3e38     glad.obj
 0003:00003e50       ??_C@_0BH@DLJLAGBA@glBindFragDataLocation@ 00000001400d3e50     glad.obj
 0003:00003e70       ??_C@_0BG@NDOIGAMC@glGetFragDataLocation@ 00000001400d3e70     glad.obj
 0003:00003e90       ??_C@_0N@HKPEFJDP@glUniform1ui@ 00000001400d3e90     glad.obj
 0003:00003ea0       ??_C@_0N@GIEBPGNB@glUniform2ui@ 00000001400d3ea0     glad.obj
 0003:00003eb0       ??_C@_0N@NAPNJBLE@glUniform3ui@ 00000001400d3eb0     glad.obj
 0003:00003ec0       ??_C@_0N@ENCKKJAN@glUniform4ui@ 00000001400d3ec0     glad.obj
 0003:00003ed0       ??_C@_0O@MPHJAHBE@glUniform1uiv@ 00000001400d3ed0     glad.obj
 0003:00003ee0       ??_C@_0O@IINJHNME@glUniform2uiv@ 00000001400d3ee0     glad.obj
 0003:00003ef0       ??_C@_0O@LFLJFEHE@glUniform3uiv@ 00000001400d3ef0     glad.obj
 0003:00003f00       ??_C@_0O@HJJIIGE@glUniform4uiv@ 00000001400d3f00     glad.obj
 0003:00003f10       ??_C@_0BC@MAFJKEHB@glTexParameterIiv@ 00000001400d3f10     glad.obj
 0003:00003f28       ??_C@_0BD@FDBCMKBE@glTexParameterIuiv@ 00000001400d3f28     glad.obj
 0003:00003f40       ??_C@_0BF@ODBJFHDD@glGetTexParameterIiv@ 00000001400d3f40     glad.obj
 0003:00003f60       ??_C@_0BG@MLODKKFL@glGetTexParameterIuiv@ 00000001400d3f60     glad.obj
 0003:00003f80       ??_C@_0BA@CGCJAEIN@glClearBufferiv@ 00000001400d3f80     glad.obj
 0003:00003f98       ??_C@_0BB@OHPPAEID@glClearBufferuiv@ 00000001400d3f98     glad.obj
 0003:00003fb0       ??_C@_0BA@CNHFEDLA@glClearBufferfv@ 00000001400d3fb0     glad.obj
 0003:00003fc8       ??_C@_0BA@OACPENCO@glClearBufferfi@ 00000001400d3fc8     glad.obj
 0003:00003fe0       ??_C@_0N@PILJCBOD@glGetStringi@ 00000001400d3fe0     glad.obj
 0003:00003ff0       ??_C@_0BB@DGGHKKOH@glIsRenderbuffer@ 00000001400d3ff0     glad.obj
 0003:00004008       ??_C@_0BD@EPOPJGFA@glBindRenderbuffer@ 00000001400d4008     glad.obj
 0003:00004020       ??_C@_0BG@KKOKEJDE@glDeleteRenderbuffers@ 00000001400d4020     glad.obj
 0003:00004040       ??_C@_0BD@MIGEDNGJ@glGenRenderbuffers@ 00000001400d4040     glad.obj
 0003:00004058       ??_C@_0BG@EOIILGMJ@glRenderbufferStorage@ 00000001400d4058     glad.obj
 0003:00004078       ??_C@_0BN@FGKAECKO@glGetRenderbufferParameteriv@ 00000001400d4078     glad.obj
 0003:000040a0       ??_C@_0BA@FGBIJCNH@glIsFramebuffer@ 00000001400d40a0     glad.obj
 0003:000040b8       ??_C@_0BC@CJMIBNO@glBindFramebuffer@ 00000001400d40b8     glad.obj
 0003:000040d0       ??_C@_0BF@DJNJENP@glDeleteFramebuffers@ 00000001400d40d0     glad.obj
 0003:000040f0       ??_C@_0BC@FAPEBGID@glGenFramebuffers@ 00000001400d40f0     glad.obj
 0003:00004108       ??_C@_0BJ@GIOLHEAD@glCheckFramebufferStatus@ 00000001400d4108     glad.obj
 0003:00004128       ??_C@_0BH@JAMDNNBM@glFramebufferTexture1D@ 00000001400d4128     glad.obj
 0003:00004148       ??_C@_0BH@JCIFGDEF@glFramebufferTexture2D@ 00000001400d4148     glad.obj
 0003:00004168       ??_C@_0BH@JDEHAJHC@glFramebufferTexture3D@ 00000001400d4168     glad.obj
 0003:00004188       ??_C@_0BK@OJDINAOA@glFramebufferRenderbuffer@ 00000001400d4188     glad.obj
 0003:000041a8       ??_C@_0CG@KLDGJEON@glGetFramebufferAttachmentParam@ 00000001400d41a8     glad.obj
 0003:000041d8       ??_C@_0BB@BHNIMGDM@glGenerateMipmap@ 00000001400d41d8     glad.obj
 0003:000041f0       ??_C@_0BC@OANBDDEP@glBlitFramebuffer@ 00000001400d41f0     glad.obj
 0003:00004208       ??_C@_0CB@HNONLGJE@glRenderbufferStorageMultisampl@ 00000001400d4208     glad.obj
 0003:00004230       ??_C@_0BK@NIHIDBBO@glFramebufferTextureLayer@ 00000001400d4230     glad.obj
 0003:00004250       ??_C@_0BB@EOHJGBIO@glMapBufferRange@ 00000001400d4250     glad.obj
 0003:00004268       ??_C@_0BJ@NCDMGHKF@glFlushMappedBufferRange@ 00000001400d4268     glad.obj
 0003:00004288       ??_C@_0BC@LHBAHFAN@glBindVertexArray@ 00000001400d4288     glad.obj
 0003:000042a0       ??_C@_0BF@BMPCJLEF@glDeleteVertexArrays@ 00000001400d42a0     glad.obj
 0003:000042c0       ??_C@_0BC@EPJLBJBJ@glGenVertexArrays@ 00000001400d42c0     glad.obj
 0003:000042d8       ??_C@_0BA@ODJEGGAE@glIsVertexArray@ 00000001400d42d8     glad.obj
 0003:000042f0       ??_C@_0BG@HIOFINAN@glDrawArraysInstanced@ 00000001400d42f0     glad.obj
 0003:00004310       ??_C@_0BI@CGJENFBH@glDrawElementsInstanced@ 00000001400d4310     glad.obj
 0003:00004330       ??_C@_0M@IIMBBALL@glTexBuffer@ 00000001400d4330     glad.obj
 0003:00004340       ??_C@_0BI@LJDLNGAF@glPrimitiveRestartIndex@ 00000001400d4340     glad.obj
 0003:00004360       ??_C@_0BE@EPKABDOG@glCopyBufferSubData@ 00000001400d4360     glad.obj
 0003:00004378       ??_C@_0BE@MDPMIDEE@glGetUniformIndices@ 00000001400d4378     glad.obj
 0003:00004390       ??_C@_0BG@JEHIMPCG@glGetActiveUniformsiv@ 00000001400d4390     glad.obj
 0003:000043b0       ??_C@_0BH@EGGFHKJJ@glGetActiveUniformName@ 00000001400d43b0     glad.obj
 0003:000043d0       ??_C@_0BH@CBDIMHHE@glGetUniformBlockIndex@ 00000001400d43d0     glad.obj
 0003:000043f0       ??_C@_0BK@DMHOPJGL@glGetActiveUniformBlockiv@ 00000001400d43f0     glad.obj
 0003:00004410       ??_C@_0BM@KEMCJPAJ@glGetActiveUniformBlockName@ 00000001400d4410     glad.obj
 0003:00004438       ??_C@_0BG@BOLEKKCP@glUniformBlockBinding@ 00000001400d4438     glad.obj
 0003:00004458       ??_C@_0BJ@LFMMIAHA@glDrawElementsBaseVertex@ 00000001400d4458     glad.obj
 0003:00004478       ??_C@_0BO@KBDDBILP@glDrawRangeElementsBaseVertex@ 00000001400d4478     glad.obj
 0003:000044a0       ??_C@_0CC@KLOIIKNA@glDrawElementsInstancedBaseVert@ 00000001400d44a0     glad.obj
 0003:000044c8       ??_C@_0BO@NAPFJEEK@glMultiDrawElementsBaseVertex@ 00000001400d44c8     glad.obj
 0003:000044f0       ??_C@_0BC@ECOAPEBI@glProvokingVertex@ 00000001400d44f0     glad.obj
 0003:00004508       ??_C@_0M@EFGFPFLP@glFenceSync@ 00000001400d4508     glad.obj
 0003:00004518       ??_C@_08JPIIHJEO@glIsSync@ 00000001400d4518     glad.obj
 0003:00004528       ??_C@_0N@PIFDNDFG@glDeleteSync@ 00000001400d4528     glad.obj
 0003:00004538       ??_C@_0BB@KDMPGJAC@glClientWaitSync@ 00000001400d4538     glad.obj
 0003:00004550       ??_C@_0L@MHLOGHGO@glWaitSync@ 00000001400d4550     glad.obj
 0003:00004560       ??_C@_0BA@INMBOHGL@glGetInteger64v@ 00000001400d4560     glad.obj
 0003:00004578       ??_C@_0M@MPEEOPIN@glGetSynciv@ 00000001400d4578     glad.obj
 0003:00004588       ??_C@_0BC@KOJILIEC@glGetInteger64i_v@ 00000001400d4588     glad.obj
 0003:000045a0       ??_C@_0BJ@KKBIDGPP@glGetBufferParameteri64v@ 00000001400d45a0     glad.obj
 0003:000045c0       ??_C@_0BF@ENLMLILA@glFramebufferTexture@ 00000001400d45c0     glad.obj
 0003:000045e0       ??_C@_0BI@FHDFLFA@glTexImage2DMultisample@ 00000001400d45e0     glad.obj
 0003:00004600       ??_C@_0BI@JIHMLKCG@glTexImage3DMultisample@ 00000001400d4600     glad.obj
 0003:00004620       ??_C@_0BD@DHLIMGN@glGetMultisamplefv@ 00000001400d4620     glad.obj
 0003:00004638       ??_C@_0O@JNHBCHMB@glSampleMaski@ 00000001400d4638     glad.obj
 0003:00004648       ??_C@_0BO@POJBGCGG@glBindFragDataLocationIndexed@ 00000001400d4648     glad.obj
 0003:00004670       ??_C@_0BD@COCJFEOH@glGetFragDataIndex@ 00000001400d4670     glad.obj
 0003:00004688       ??_C@_0O@EMMLGGLG@glGenSamplers@ 00000001400d4688     glad.obj
 0003:00004698       ??_C@_0BB@FLPAOEOO@glDeleteSamplers@ 00000001400d4698     glad.obj
 0003:000046b0       ??_C@_0M@LAJKHOKJ@glIsSampler@ 00000001400d46b0     glad.obj
 0003:000046c0       ??_C@_0O@PDEILAPG@glBindSampler@ 00000001400d46c0     glad.obj
 0003:000046d0       ??_C@_0BE@KBCBMPJO@glSamplerParameteri@ 00000001400d46d0     glad.obj
 0003:000046e8       ??_C@_0BF@GOHDEBPM@glSamplerParameteriv@ 00000001400d46e8     glad.obj
 0003:00004708       ??_C@_0BE@CGLJNDFB@glSamplerParameterf@ 00000001400d4708     glad.obj
 0003:00004720       ??_C@_0BF@GFCPAGMB@glSamplerParameterfv@ 00000001400d4720     glad.obj
 0003:00004740       ??_C@_0BG@HKEIFIHF@glSamplerParameterIiv@ 00000001400d4740     glad.obj
 0003:00004760       ??_C@_0BH@FEMFBPPB@glSamplerParameterIuiv@ 00000001400d4760     glad.obj
 0003:00004780       ??_C@_0BI@FECAOLJP@glGetSamplerParameteriv@ 00000001400d4780     glad.obj
 0003:000047a0       ??_C@_0BJ@KOMJDLDN@glGetSamplerParameterIiv@ 00000001400d47a0     glad.obj
 0003:000047c0       ??_C@_0BI@FPHMKMKC@glGetSamplerParameterfv@ 00000001400d47c0     glad.obj
 0003:000047e0       ??_C@_0BK@CMBGFHDA@glGetSamplerParameterIuiv@ 00000001400d47e0     glad.obj
 0003:00004800       ??_C@_0P@KALICDIM@glQueryCounter@ 00000001400d4800     glad.obj
 0003:00004818       ??_C@_0BF@JDAPDEPE@glGetQueryObjecti64v@ 00000001400d4818     glad.obj
 0003:00004838       ??_C@_0BG@NEGGOMJO@glGetQueryObjectui64v@ 00000001400d4838     glad.obj
 0003:00004858       ??_C@_0BG@NEBMAEHM@glVertexAttribDivisor@ 00000001400d4858     glad.obj
 0003:00004878       ??_C@_0BD@FLACCOEN@glVertexAttribP1ui@ 00000001400d4878     glad.obj
 0003:00004890       ??_C@_0BE@HBFDOBHD@glVertexAttribP1uiv@ 00000001400d4890     glad.obj
 0003:000048a8       ??_C@_0BD@EJLHIBKD@glVertexAttribP2ui@ 00000001400d48a8     glad.obj
 0003:000048c0       ??_C@_0BE@DGPDJLKD@glVertexAttribP2uiv@ 00000001400d48c0     glad.obj
 0003:000048d8       ??_C@_0BD@PBALOGMG@glVertexAttribP3ui@ 00000001400d48d8     glad.obj
 0003:000048f0       ??_C@_0BE@LJDLCBD@glVertexAttribP3uiv@ 00000001400d48f0     glad.obj
 0003:00004908       ??_C@_0BD@GMNMNOHP@glVertexAttribP4ui@ 00000001400d4908     glad.obj
 0003:00004920       ??_C@_0BE@LJLDGOAD@glVertexAttribP4uiv@ 00000001400d4920     glad.obj
 0003:00004938       ??_C@_0N@EFBCIBMC@glVertexP2ui@ 00000001400d4938     glad.obj
 0003:00004948       ??_C@_0O@MEKGPGN@glVertexP2uiv@ 00000001400d4948     glad.obj
 0003:00004958       ??_C@_0N@PNKOOGKH@glVertexP3ui@ 00000001400d4958     glad.obj
 0003:00004968       ??_C@_0O@DBCKEGNN@glVertexP3uiv@ 00000001400d4968     glad.obj
 0003:00004978       ??_C@_0N@GAHJNOBO@glVertexP4ui@ 00000001400d4978     glad.obj
 0003:00004988       ??_C@_0O@IDAKJKMN@glVertexP4uiv@ 00000001400d4988     glad.obj
 0003:00004998       ??_C@_0P@OLJHLLHJ@glTexCoordP1ui@ 00000001400d4998     glad.obj
 0003:000049b0       ??_C@_0BA@FAFHIAFD@glTexCoordP1uiv@ 00000001400d49b0     glad.obj
 0003:000049c8       ??_C@_0P@PJCCBEJH@glTexCoordP2ui@ 00000001400d49c8     glad.obj
 0003:000049e0       ??_C@_0BA@BHPHPKID@glTexCoordP2uiv@ 00000001400d49e0     glad.obj
 0003:000049f8       ??_C@_0P@EBJOHDPC@glTexCoordP3ui@ 00000001400d49f8     glad.obj
 0003:00004a10       ??_C@_0BA@CKJHNDDD@glTexCoordP3uiv@ 00000001400d4a10     glad.obj
 0003:00004a28       ??_C@_0P@NMEJELEL@glTexCoordP4ui@ 00000001400d4a28     glad.obj
 0003:00004a40       ??_C@_0BA@JILHAPCD@glTexCoordP4uiv@ 00000001400d4a40     glad.obj
 0003:00004a58       ??_C@_0BE@OAHHKHKG@glMultiTexCoordP1ui@ 00000001400d4a58     glad.obj
 0003:00004a70       ??_C@_0BF@EGDAKPAK@glMultiTexCoordP1uiv@ 00000001400d4a70     glad.obj
 0003:00004a90       ??_C@_0BE@PCMCAIEI@glMultiTexCoordP2ui@ 00000001400d4a90     glad.obj
 0003:00004aa8       ??_C@_0BF@BJANFNK@glMultiTexCoordP2uiv@ 00000001400d4aa8     glad.obj
 0003:00004ac8       ??_C@_0BE@EKHOGPCN@glMultiTexCoordP3ui@ 00000001400d4ac8     glad.obj
 0003:00004ae0       ??_C@_0BF@DMPAPMGK@glMultiTexCoordP3uiv@ 00000001400d4ae0     glad.obj
 0003:00004b00       ??_C@_0BE@NHKJFHJE@glMultiTexCoordP4ui@ 00000001400d4b00     glad.obj
 0003:00004b18       ??_C@_0BF@IONACAHK@glMultiTexCoordP4uiv@ 00000001400d4b18     glad.obj
 0003:00004b38       ??_C@_0N@PBEFBNHO@glNormalP3ui@ 00000001400d4b38     glad.obj
 0003:00004b48       ??_C@_0O@MOCJMHFG@glNormalP3uiv@ 00000001400d4b48     glad.obj
 0003:00004b58       ??_C@_0M@PEKBINNN@glColorP3ui@ 00000001400d4b58     glad.obj
 0003:00004b68       ??_C@_0N@IBPDNBJE@glColorP3uiv@ 00000001400d4b68     glad.obj
 0003:00004b78       ??_C@_0M@GJHGLFGE@glColorP4ui@ 00000001400d4b78     glad.obj
 0003:00004b88       ??_C@_0N@DDNDANIE@glColorP4uiv@ 00000001400d4b88     glad.obj
 0003:00004b98       ??_C@_0BF@PDDGBPKP@glSecondaryColorP3ui@ 00000001400d4b98     glad.obj
 0003:00004bb8       ??_C@_0BG@DPPPFGBG@glSecondaryColorP3uiv@ 00000001400d4bb8     glad.obj
 0003:00004bd8       ??_C@_0O@ENGHJHNB@OpenGL?5ES?9CM?5@ 00000001400d4bd8     glad.obj
 0003:00004be8       ??_C@_0O@EMKFPNOG@OpenGL?5ES?9CL?5@ 00000001400d4be8     glad.obj
 0003:00004bf8       ??_C@_0L@JLFHOCGA@OpenGL?5ES?5@ 00000001400d4bf8     glad.obj
 0003:00004c08       ??_C@_05KBEOJPB@?$CFd?4?$CFd@ 00000001400d4c08     glad.obj
 0003:000050d0       ??_7Camera@@6B@            00000001400d50d0     Camera.obj
 0003:00005110       ??_C@_1JI@IPOJDPON@?$AAC?$AA?3?$AA?2?$AAU?$AAs?$AAe?$AAr?$AAs?$AA?2?$AAb?$AAu?$AAi?$AAq?$AAu?$AA?2@ 00000001400d5110     Camera.obj
 0003:000051c8       ??_C@_1DK@BGNCJAPL@?$AAi?$AA?5?$AA?$DO?$AA?$DN?$AA?5?$AA0?$AA?5?$AA?$CG?$AA?$CG?$AA?5?$AAi?$AA?5?$AA?$DM?$AA?5?$AAt@ 00000001400d51c8     Camera.obj
 0003:00005210       ??_C@_1JM@LJHMGFOE@?$AAC?$AA?3?$AA?2?$AAU?$AAs?$AAe?$AAr?$AAs?$AA?2?$AAb?$AAu?$AAi?$AAq?$AAu?$AA?2@ 00000001400d5210     Camera.obj
 0003:000052d0       ??_C@_1CG@KOFHLCJL@?$AAi?$AA?5?$AA?$DM?$AA?5?$AAt?$AAh?$AAi?$AAs?$AA?9?$AA?$DO?$AAl?$AAe?$AAn?$AAg?$AAt@ 00000001400d52d0     Camera.obj
 0003:00005300       __real@3c8efa35            00000001400d5300     Camera.obj
 0003:00005304       __real@3e800000            00000001400d5304     Camera.obj
 0003:00005308       __real@3f800000            00000001400d5308     Camera.obj
 0003:0000530c       __real@40000000            00000001400d530c     Camera.obj
 0003:00005310       __real@40400000            00000001400d5310     Camera.obj
 0003:00005314       __real@41c80000            00000001400d5314     Camera.obj
 0003:00005318       __real@42b20000            00000001400d5318     Camera.obj
 0003:0000531c       __real@bf800000            00000001400d531c     Camera.obj
 0003:00005320       __real@c2b40000            00000001400d5320     Camera.obj
 0003:00005330       __xmm@80000000800000008000000080000000 00000001400d5330     Camera.obj
 0003:000068e0       ??_7exception@std@@6B@     00000001400d68e0     Chunk.obj
 0003:000068f8       ??_C@_0BC@EOODALEL@Unknown?5exception@ 00000001400d68f8     Chunk.obj
 0003:00006910       ??_C@_0BB@FCMFBGOM@invalid?5argument@ 00000001400d6910     Chunk.obj
 0003:00006924       ??_C@_02DKCKIIND@?$CFs@    00000001400d6924     Chunk.obj
 0003:00006930       ??_C@_0GC@OGIIGPAB@C?3?2Program?5Files?2Microsoft?5Visu@ 00000001400d6930     Chunk.obj
 0003:000069b0       ??_C@_1ME@MIFAIHL@?$AAC?$AA?3?$AA?2?$AAP?$AAr?$AAo?$AAg?$AAr?$AAa?$AAm?$AA?5?$AAF?$AAi?$AAl?$AAe@ 00000001400d69b0     Chunk.obj
 0003:00006a9c       ??_C@_11LOCGONAA@@         00000001400d6a9c     Chunk.obj
 0003:00006aa0       ??_C@_1CG@JNLFBNGN@?$AA?$CC?$AAi?$AAn?$AAv?$AAa?$AAl?$AAi?$AAd?$AA?5?$AAa?$AAr?$AAg?$AAu?$AAm?$AAe@ 00000001400d6aa0     Chunk.obj
 0003:00006ad8       ??_7runtime_error@std@@6B@ 00000001400d6ad8     Chunk.obj
 0003:00006af8       ??_7Chunk@@6B@             00000001400d6af8     Chunk.obj
 0003:00006b38       ??_C@_0BC@HOMBIKFP@Invalid?5direction@ 00000001400d6b38     Chunk.obj
 0003:00006b50       ??_C@_0EL@MGINMPJP@Voxels?5data?5is?5null?4?5You?5may?5fo@ 00000001400d6b50     Chunk.obj
 0003:00006bb0       ??_C@_0DG@KGHKKGBC@null?5pointer?5cannot?5point?5to?5a?5@ 00000001400d6bb0     Chunk.obj
 0003:00006bf0       ??_C@_1HA@FACCKGGH@?$AA?$CC?$AAn?$AAu?$AAl?$AAl?$AA?5?$AAp?$AAo?$AAi?$AAn?$AAt?$AAe?$AAr?$AA?5?$AAc@ 00000001400d6bf0     Chunk.obj
 0003:00006c80       ??_C@_1JI@PLHBNGGC@?$AAC?$AA?3?$AA?2?$AAU?$AAs?$AAe?$AAr?$AAs?$AA?2?$AAb?$AAu?$AAi?$AAq?$AAu?$AA?2@ 00000001400d6c80     Chunk.obj
 0003:00006d38       __real@3ff0000000000000    00000001400d6d38     Chunk.obj
 0003:00006d48       __real@4018000000000000    00000001400d6d48     Chunk.obj
 0003:00006d58       __real@4024000000000000    00000001400d6d58     Chunk.obj
 0003:00006d68       __real@402e000000000000    00000001400d6d68     Chunk.obj
 0003:00006d74       __real@40c00000            00000001400d6d74     Chunk.obj
 0003:00006d78       __real@41000000            00000001400d6d78     Chunk.obj
 0003:00006d7c       __real@41200000            00000001400d6d7c     Chunk.obj
 0003:00006d80       __real@41700000            00000001400d6d80     Chunk.obj
 0003:00006d84       __real@5f000000            00000001400d6d84     Chunk.obj
 0003:00006d90       __xmm@80000000000000008000000000000000 00000001400d6d90     Chunk.obj
 0003:00007cd0       ??_7bad_alloc@std@@6B@     00000001400d7cd0     FileUtils.obj
 0003:00007cf0       ??_7bad_array_new_length@std@@6B@ 00000001400d7cf0     FileUtils.obj
 0003:00007d08       ??_C@_0BF@KINCDENJ@bad?5array?5new?5length@ 00000001400d7d08     FileUtils.obj
 0003:00007d28       ??_C@_0BA@JFNIOLAK@string?5too?5long@ 00000001400d7d28     FileUtils.obj
 0003:00007d48       ??_7bad_cast@std@@6B@      00000001400d7d48     FileUtils.obj
 0003:00007d60       ??_C@_08EPJLHIJG@bad?5cast@ 00000001400d7d60     FileUtils.obj
 0003:00007d78       ??_7?$basic_filebuf@DU?$char_traits@D@std@@@std@@6B@ 00000001400d7d78     FileUtils.obj
 0003:00007e18       ??_7?$basic_ifstream@DU?$char_traits@D@std@@@std@@6B@ 00000001400d7e18     FileUtils.obj
 0003:00007e24       ??_8?$basic_ifstream@DU?$char_traits@D@std@@@std@@7B@ 00000001400d7e24     FileUtils.obj
 0003:00007e38       ??_7?$basic_stringbuf@DU?$char_traits@D@std@@V?$allocator@D@2@@std@@6B@ 00000001400d7e38     FileUtils.obj
 0003:00007ed8       ??_7?$basic_stringstream@DU?$char_traits@D@std@@V?$allocator@D@2@@std@@6B@ 00000001400d7ed8     FileUtils.obj
 0003:00007ee4       ??_8?$basic_stringstream@DU?$char_traits@D@std@@V?$allocator@D@2@@std@@7B?$basic_istream@DU?$char_traits@D@std@@@1@@ 00000001400d7ee4     FileUtils.obj
 0003:00007ef0       ??_8?$basic_stringstream@DU?$char_traits@D@std@@V?$allocator@D@2@@std@@7B?$basic_ostream@DU?$char_traits@D@std@@@1@@ 00000001400d7ef0     FileUtils.obj
 0003:00007f00       ??_C@_0BE@GNMEAFCL@Failed?5to?5read?5file@ 00000001400d7f00     FileUtils.obj
 0003:00007f20       ??_C@_0GC@BPEFGDOI@C?3?2Program?5Files?2Microsoft?5Visu@ 00000001400d7f20     FileUtils.obj
 0003:00007fa0       ??_C@_1ME@OCAJPBKK@?$AAC?$AA?3?$AA?2?$AAP?$AAr?$AAo?$AAg?$AAr?$AAa?$AAm?$AA?5?$AAF?$AAi?$AAl?$AAe@ 00000001400d7fa0     FileUtils.obj
 0003:00008090       ??_C@_0BP@PFIPNLNI@front?$CI?$CJ?5called?5on?5empty?5string@ 00000001400d8090     FileUtils.obj
 0003:000080c0       ??_C@_1EC@DINNLDHA@?$AA?$CC?$AAf?$AAr?$AAo?$AAn?$AAt?$AA?$CI?$AA?$CJ?$AA?5?$AAc?$AAa?$AAl?$AAl?$AAe?$AAd@ 00000001400d80c0     FileUtils.obj
 0003:00008110       ??_C@_0BI@CFPLBAOH@invalid?5string?5position@ 00000001400d8110     FileUtils.obj
 0003:000088d8       ??_C@_0BF@CIIBKDPH@fragment_shader?4frag@ 00000001400d88d8     Game.obj
 0003:000088f8       ??_C@_0BD@MAABKCOB@vertex_shader?4vert@ 00000001400d88f8     Game.obj
 0003:00008910       ??_C@_04GHJNJNPO@main@     00000001400d8910     Game.obj
 0003:00008918       ??_C@_0BD@HMJNAKFD@texture_atlas2?4png@ 00000001400d8918     Game.obj
 0003:00008930       ??_C@_0BD@HBGCEHLC@Init?5Game?5succeed?$CB@ 00000001400d8930     Game.obj
 0003:00008948       ??_C@_04CHADEDPO@view@     00000001400d8948     Game.obj
 0003:00008950       ??_C@_0L@PPHAJBEH@projection@ 00000001400d8950     Game.obj
 0003:00008968       ??_7?$_Ref_count_obj2@VChunk@@@std@@6B@ 00000001400d8968     Game.obj
 0003:00008990       ??_C@_1KC@OBKPMKJI@?$AAC?$AA?3?$AA?2?$AAU?$AAs?$AAe?$AAr?$AAs?$AA?2?$AAb?$AAu?$AAi?$AAq?$AAu?$AA?2@ 00000001400d8990     Game.obj
 0003:00008a60       ??_C@_1II@JJEBDBC@?$AAa?$AAb?$AAs?$AA?$CI?$AAa?$AAs?$AAp?$AAe?$AAc?$AAt?$AA?5?$AA?9?$AA?5?$AAs?$AAt@ 00000001400d8a60     Game.obj
 0003:00008b08       ??_C@_0BA@FOIKENOD@vector?5too?5long@ 00000001400d8b08     Game.obj
 0003:00008b1c       __real@00000000            00000001400d8b1c     Game.obj
 0003:00008b20       __real@34000000            00000001400d8b20     Game.obj
 0003:00008b24       __real@3dcccccd            00000001400d8b24     Game.obj
 0003:00008b28       __real@3e4ccccd            00000001400d8b28     Game.obj
 0003:00008b2c       __real@3e99999a            00000001400d8b2c     Game.obj
 0003:00008b30       __real@42000000            00000001400d8b30     Game.obj
 0003:00008b34       __real@42340000            00000001400d8b34     Game.obj
 0003:00008b38       __real@42f00000            00000001400d8b38     Game.obj
 0003:00008b3c       __real@447a0000            00000001400d8b3c     Game.obj
 0003:00008b48       ??_7GameObject@@6B@        00000001400d8b48     GameObject.obj
 0003:00008b88       ??_C@_0BB@DMCPAGHE@Minecraft?5Reboot@ 00000001400d8b88     main.obj
 0003:00008ba0       ??_C@_0BN@BEDFCJGN@Failed?5to?5create?5GLFW?5Window@ 00000001400d8ba0     main.obj
 0003:00008bc8       ??_C@_0BK@HEFHANKG@Failed?5to?5initialize?5GLAD@ 00000001400d8bc8     main.obj
 0003:00009028       ??_C@_0BH@OECMEKCC@VBO?5already?5generated?$CB@ 00000001400d9028     MeshBuilder.obj
 0003:00009048       ??_C@_0BD@PLIEOFAH@VBO?5not?5generated?$CB@ 00000001400d9048     MeshBuilder.obj
 0003:00009060       ??_C@_05NCCFOPHA@model@    00000001400d9060     MeshBuilder.obj
 0003:00009068       ??_C@_07EBPEELNJ@?5bytes?$CJ@ 00000001400d9068     MeshBuilder.obj
 0003:00009074       ??_C@_01ODHLEDKK@?$CI@     00000001400d9074     MeshBuilder.obj
 0003:00009078       ??_C@_0BJ@NBDKIHGF@Vertices?5Element?5Count?3?5@ 00000001400d9078     MeshBuilder.obj
 0003:00009098       ??_C@_0BI@POGIOBNI@Indices?5Element?5Count?3?5@ 00000001400d9098     MeshBuilder.obj
 0003:000090b8       ??_C@_0N@NNDJLFLB@Face?5Count?3?5@ 00000001400d90b8     MeshBuilder.obj
 0003:000090c8       ??_C@_0BB@FCLAHFEO@Vertices?5Count?3?5@ 00000001400d90c8     MeshBuilder.obj
 0003:000090e0       ??_C@_0BO@PFKOHNJC@vector?5subscript?5out?5of?5range@ 00000001400d90e0     MeshBuilder.obj
 0003:00009110       ??_C@_0GB@NMNHNNFC@C?3?2Program?5Files?2Microsoft?5Visu@ 00000001400d9110     MeshBuilder.obj
 0003:00009190       ??_C@_1MC@ENNOJFOL@?$AAC?$AA?3?$AA?2?$AAP?$AAr?$AAo?$AAg?$AAr?$AAa?$AAm?$AA?5?$AAF?$AAi?$AAl?$AAe@ 00000001400d9190     MeshBuilder.obj
 0003:00009280       ??_C@_1EA@LEKOKFNB@?$AA?$CC?$AAv?$AAe?$AAc?$AAt?$AAo?$AAr?$AA?5?$AAs?$AAu?$AAb?$AAs?$AAc?$AAr?$AAi@ 00000001400d9280     MeshBuilder.obj
 0003:000096b4       __real@40800000            00000001400d96b4     MeshGenerator.obj
 0003:00009940       ??_C@_0BL@NPIDJGED@ERROR?3?3SHADER?3?3COMPILING?3?3@ 00000001400d9940     Shader.obj
 0003:00009960       ??_C@_0BL@EMDCHMLF@SHADER?3?3COMPILING?3?3SUCCESS@ 00000001400d9960     Shader.obj
 0003:0000a868       ??_C@_0BJ@LFDBABJJ@ITERATOR?5LIST?5CORRUPTED?$CB@ 00000001400da868     ShaderManager.obj
 0003:0000a888       ??_C@_1DG@PLBPCAEM@?$AA?$CC?$AAI?$AAT?$AAE?$AAR?$AAA?$AAT?$AAO?$AAR?$AA?5?$AAL?$AAI?$AAS?$AAT?$AA?5@ 00000001400da888     ShaderManager.obj
 0003:0000a8c8       ?_Min_buckets@?$_Hash@V?$_Umap_traits@V?$basic_string@DU?$char_traits@D@std@@V?$allocator@D@2@@std@@V?$shared_ptr@VShaderProgram@@@2@V?$_Uhash_compare@V?$basic_string@DU?$char_traits@D@std@@V?$allocator@D@2@@std@@U?$hash@V?$basic_string@DU?$char_traits@D@std@@V?$allocator@D@2@@std@@@2@U?$equal_to@V?$basic_string@DU?$char_traits@D@std@@V?$allocator@D@2@@std@@@2@@2@V?$allocator@U?$pair@$$CBV?$basic_string@DU?$char_traits@D@std@@V?$allocator@D@2@@std@@V?$shared_ptr@VShaderProgram@@@2@@std@@@2@$0A@@std@@@std@@2_KB 00000001400da8c8     ShaderManager.obj
 0003:0000a8d8       ??_C@_0BM@BALDKKHE@list?5iterators?5incompatible@ 00000001400da8d8     ShaderManager.obj
 0003:0000a900       ??_C@_0FP@KKEBMHBB@C?3?2Program?5Files?2Microsoft?5Visu@ 00000001400da900     ShaderManager.obj
 0003:0000a980       ??_C@_1LO@PKHFBID@?$AAC?$AA?3?$AA?2?$AAP?$AAr?$AAo?$AAg?$AAr?$AAa?$AAm?$AA?5?$AAF?$AAi?$AAl?$AAe@ 00000001400da980     ShaderManager.obj
 0003:0000aa68       ??_C@_1DM@KDLJAKOP@?$AA?$CC?$AAl?$AAi?$AAs?$AAt?$AA?5?$AAi?$AAt?$AAe?$AAr?$AAa?$AAt?$AAo?$AAr?$AAs@ 00000001400daa68     ShaderManager.obj
 0003:0000aab0       ??_C@_0DB@ENBCPNKO@cannot?5increment?5value?9initiali@ 00000001400daab0     ShaderManager.obj
 0003:0000aaf0       ??_C@_1GG@JLMAGPNK@?$AA?$CC?$AAc?$AAa?$AAn?$AAn?$AAo?$AAt?$AA?5?$AAi?$AAn?$AAc?$AAr?$AAe?$AAm?$AAe@ 00000001400daaf0     ShaderManager.obj
 0003:0000ab70       ??_C@_0CD@PMFMCEG@cannot?5increment?5end?5list?5itera@ 00000001400dab70     ShaderManager.obj
 0003:0000aba0       ??_C@_1EK@OKKCFDJN@?$AA?$CC?$AAc?$AAa?$AAn?$AAn?$AAo?$AAt?$AA?5?$AAi?$AAn?$AAc?$AAr?$AAe?$AAm?$AAe@ 00000001400daba0     ShaderManager.obj
 0003:0000abf8       ??_C@_0DD@MBIHGLJE@cannot?5dereference?5value?9initia@ 00000001400dabf8     ShaderManager.obj
 0003:0000ac40       ??_C@_1GK@NKIMOCIG@?$AA?$CC?$AAc?$AAa?$AAn?$AAn?$AAo?$AAt?$AA?5?$AAd?$AAe?$AAr?$AAe?$AAf?$AAe?$AAr@ 00000001400dac40     ShaderManager.obj
 0003:0000acc0       ??_C@_0CF@JCBFHMPL@cannot?5dereference?5end?5list?5ite@ 00000001400dacc0     ShaderManager.obj
 0003:0000acf0       ??_C@_1EO@CNEFBDCF@?$AA?$CC?$AAc?$AAa?$AAn?$AAn?$AAo?$AAt?$AA?5?$AAd?$AAe?$AAr?$AAe?$AAf?$AAe?$AAr@ 00000001400dacf0     ShaderManager.obj
 0003:0000ad50       ??_C@_0BJ@HAJGEHKO@transposed?5pointer?5range@ 00000001400dad50     ShaderManager.obj
 0003:0000ad70       ??_C@_0GD@LEBKLMKJ@C?3?2Program?5Files?2Microsoft?5Visu@ 00000001400dad70     ShaderManager.obj
 0003:0000adf0       ??_C@_1MG@MPNAAJII@?$AAC?$AA?3?$AA?2?$AAP?$AAr?$AAo?$AAg?$AAr?$AAa?$AAm?$AA?5?$AAF?$AAi?$AAl?$AAe@ 00000001400dadf0     ShaderManager.obj
 0003:0000aee0       ??_C@_1DG@FJIKMGFD@?$AA?$CC?$AAt?$AAr?$AAa?$AAn?$AAs?$AAp?$AAo?$AAs?$AAe?$AAd?$AA?5?$AAp?$AAo?$AAi@ 00000001400daee0     ShaderManager.obj
 0003:0000af28       ??_7?$_Ref_count_obj2@VShaderProgram@@@std@@6B@ 00000001400daf28     ShaderManager.obj
 0003:0000af50       ??_C@_0BL@GOIGLPKN@unordered_map?1set?5too?5long@ 00000001400daf50     ShaderManager.obj
 0003:0000af70       ??_C@_0BK@OGNNAFAB@invalid?5hash?5bucket?5count@ 00000001400daf70     ShaderManager.obj
 0003:0000b130       ??_C@_0BJ@NGFLEFFK@PROGRAM?3?3LINKING?3SUCCESS@ 00000001400db130     ShaderProgram.obj
 0003:0000b150       ??_C@_0BK@NOAILEBJ@ERROR?3?3PROGRAM?3?3LINKING?3?3@ 00000001400db150     ShaderProgram.obj
 0003:0000b5a8       ??_C@_0CO@LHPFLLJB@cannot?5seek?5value?9initialized?5v@ 00000001400db5a8     Texture2DArray.obj
 0003:0000b5e0       ??_C@_1GA@EIHBFEJD@?$AA?$CC?$AAc?$AAa?$AAn?$AAn?$AAo?$AAt?$AA?5?$AAs?$AAe?$AAe?$AAk?$AA?5?$AAv?$AAa@ 00000001400db5e0     Texture2DArray.obj
 0003:0000b658       ??_C@_0CI@OOHCOPKB@cannot?5seek?5invalidated?5vector?5@ 00000001400db658     Texture2DArray.obj
 0003:0000b690       ??_C@_1FE@NGOHPDCL@?$AA?$CC?$AAc?$AAa?$AAn?$AAn?$AAo?$AAt?$AA?5?$AAs?$AAe?$AAe?$AAk?$AA?5?$AAi?$AAn@ 00000001400db690     Texture2DArray.obj
 0003:0000b6f8       ??_C@_0CJ@DIFMEJBE@cannot?5seek?5vector?5iterator?5bef@ 00000001400db6f8     Texture2DArray.obj
 0003:0000b730       ??_C@_1FG@JCGKNFIB@?$AA?$CC?$AAc?$AAa?$AAn?$AAn?$AAo?$AAt?$AA?5?$AAs?$AAe?$AAe?$AAk?$AA?5?$AAv?$AAe@ 00000001400db730     Texture2DArray.obj
 0003:0000b798       ??_C@_0CG@JDIOCKHH@cannot?5seek?5vector?5iterator?5aft@ 00000001400db798     Texture2DArray.obj
 0003:0000b7d0       ??_C@_1FA@LCODAPOP@?$AA?$CC?$AAc?$AAa?$AAn?$AAn?$AAo?$AAt?$AA?5?$AAs?$AAe?$AAe?$AAk?$AA?5?$AAv?$AAe@ 00000001400db7d0     Texture2DArray.obj
 0003:0000b830       ??_C@_0BB@KBEKGHFK@integer?5overflow@ 00000001400db830     Texture2DArray.obj
 0003:0000b848       ??_C@_1CG@NMONALKO@?$AA?$CC?$AAi?$AAn?$AAt?$AAe?$AAg?$AAe?$AAr?$AA?5?$AAo?$AAv?$AAe?$AAr?$AAf?$AAl@ 00000001400db848     Texture2DArray.obj
 0003:0000e893       ??_C@_00CNPNBAHC@@         00000001400de893     TextureManager.obj
 0003:0000e898       ??_C@_0BB@GCADKGJO@map?1set?5too?5long@ 00000001400de898     TextureManager.obj
 0003:0000e8b0       ??_C@_0BD@CBEDEJPH@unknown?5image?5type@ 00000001400de8b0     TextureManager.obj
 0003:0000e8c8       ??_C@_08NOGIMCHF@outofmem@ 00000001400de8c8     TextureManager.obj
 0003:0000e8e0       ??_C@_1LA@NLGLACPC@?$AAC?$AA?3?$AA?2?$AAU?$AAs?$AAe?$AAr?$AAs?$AA?2?$AAb?$AAu?$AAi?$AAq?$AAu?$AA?2@ 00000001400de8e0     TextureManager.obj
 0003:0000e9c0       ??_C@_1GM@LFNCFCEN@?$AAr?$AAi?$AA?4?$AAb?$AAi?$AAt?$AAs?$AA_?$AAp?$AAe?$AAr?$AA_?$AAc?$AAh?$AAa@ 00000001400de9c0     TextureManager.obj
 0003:0000ea44       ??_C@_02JDPG@rb@           00000001400dea44     TextureManager.obj
 0003:0000ea48       ??_C@_0M@JPDHFAGK@can?8t?5fopen@ 00000001400dea48     TextureManager.obj
 0003:0000ea58       ??_C@_1DO@MABJBNAJ@?$AAr?$AAe?$AAq?$AA_?$AAc?$AAo?$AAm?$AAp?$AA?5?$AA?$DO?$AA?$DN?$AA?5?$AA1?$AA?5?$AA?$CG@ 00000001400dea58     TextureManager.obj
 0003:0000eaa4       ??_C@_13COJANIEC@?$AA0@    00000001400deaa4     TextureManager.obj
 0003:0000eaa8       ??_C@_0M@MHDBFHD@unsupported@ 00000001400deaa8     TextureManager.obj
 0003:0000eab8       ??_C@_0O@DEFOLMLB@bad?5size?5list@ 00000001400deab8     TextureManager.obj
 0003:0000eac8       ??_C@_0BB@FOKGPEKG@bad?5code?5lengths@ 00000001400deac8     TextureManager.obj
 0003:0000eae0       ??_C@_1KE@JGKPJEBO@?$AA?$CI?$AA?$CI?$AA?$CI?$AAj?$AA?9?$AA?$DO?$AAc?$AAo?$AAd?$AAe?$AA_?$AAb?$AAu?$AAf?$AAf@ 00000001400deae0     TextureManager.obj
 0003:0000eba8       ??_C@_0BB@IIMLINA@bad?5huffman?5code@ 00000001400deba8     TextureManager.obj
 0003:0000ebc0       ??_C@_09IFDKCGFO@bad?5delta@ 00000001400debc0     TextureManager.obj
 0003:0000ebd0       ??_C@_0BG@PJBJDAGM@can?8t?5merge?5dc?5and?5ac@ 00000001400debd0     TextureManager.obj
 0003:0000ebf0       ??_C@_0BA@KLNDOKJD@expected?5marker@ 00000001400debf0     TextureManager.obj
 0003:0000ec08       ??_C@_0M@LPHNODCG@bad?5DRI?5len@ 00000001400dec08     TextureManager.obj
 0003:0000ec18       ??_C@_0N@BOFJCHAP@bad?5DQT?5type@ 00000001400dec18     TextureManager.obj
 0003:0000ec28       ??_C@_0O@CNHKKDIM@bad?5DQT?5table@ 00000001400dec28     TextureManager.obj
 0003:0000ec38       ??_C@_0P@JLGKOCGN@bad?5DHT?5header@ 00000001400dec38     TextureManager.obj
 0003:0000ec50       ??_C@_0M@CICAFFCH@bad?5COM?5len@ 00000001400dec50     TextureManager.obj
 0003:0000ec60       ??_C@_0M@EENLKPDI@bad?5APP?5len@ 00000001400dec60     TextureManager.obj
 0003:0000ec70       ??_C@_0P@NNGPHMMK@unknown?5marker@ 00000001400dec70     TextureManager.obj
 0003:0000ec88       ??_C@_0BI@DHFJCMBA@bad?5SOS?5component?5count@ 00000001400dec88     TextureManager.obj
 0003:0000eca8       ??_C@_0M@GNEHAHOH@bad?5SOS?5len@ 00000001400deca8     TextureManager.obj
 0003:0000ecb8       ??_C@_0M@NOCCBFAC@bad?5DC?5huff@ 00000001400decb8     TextureManager.obj
 0003:0000ecc8       ??_C@_0M@JGMCBLGG@bad?5AC?5huff@ 00000001400decc8     TextureManager.obj
 0003:0000ecd8       ??_C@_07EEJOMGGP@bad?5SOS@ 00000001400decd8     TextureManager.obj
 0003:0000ece8       ??_C@_0M@DOFMJEMP@bad?5SOF?5len@ 00000001400dece8     TextureManager.obj
 0003:0000ecf8       ??_C@_0L@BCINMEBJ@only?58?9bit@ 00000001400decf8     TextureManager.obj
 0003:0000ed08       ??_C@_0BB@LNEGOMA@no?5header?5height@ 00000001400ded08     TextureManager.obj
 0003:0000ed20       ??_C@_07BIDACDEF@0?5width@ 00000001400ded20     TextureManager.obj
 0003:0000ed30       ??_C@_09OJDLMMBJ@too?5large@ 00000001400ded30     TextureManager.obj
 0003:0000ed40       ??_C@_0BE@DAPHADHL@bad?5component?5count@ 00000001400ded40     TextureManager.obj
 0003:0000ed58       ??_C@_05BLPKENEJ@bad?5H@   00000001400ded58     TextureManager.obj
 0003:0000ed60       ??_C@_05MPLLHCJG@bad?5V@   00000001400ded60     TextureManager.obj
 0003:0000ed68       ??_C@_06LJIHDFHI@bad?5TQ@  00000001400ded68     TextureManager.obj
 0003:0000ed70       ??_C@_06CLMBLEP@no?5SOI@   00000001400ded70     TextureManager.obj
 0003:0000ed78       ??_C@_06IFCEAHIA@no?5SOF@  00000001400ded78     TextureManager.obj
 0003:0000ed80       ??_C@_0M@EPMOIECP@bad?5DNL?5len@ 00000001400ded80     TextureManager.obj
 0003:0000ed90       ??_C@_0P@PNCLKCLJ@bad?5DNL?5height@ 00000001400ded90     TextureManager.obj
 0003:0000eda8       ??_C@_0N@KBPNPPBJ@bad?5req_comp@ 00000001400deda8     TextureManager.obj
 0003:0000edb8       ??_C@_1BG@HKNLHECB@?$AAb?$AAi?$AAt?$AAs?$AA?5?$AA?$DM?$AA?$DN?$AA?5?$AA1?$AA6@ 00000001400dedb8     TextureManager.obj
 0003:0000edd8       ??_C@_09EOHLEIKL@bad?5sizes@ 00000001400dedd8     TextureManager.obj
 0003:0000ede8       ??_C@_0BA@MDNKOBMC@bad?5codelengths@ 00000001400dede8     TextureManager.obj
 0003:0000ee00       ??_C@_0BE@IBFIPFO@output?5buffer?5limit@ 00000001400dee00     TextureManager.obj
 0003:0000ee18       ??_C@_0P@CLDJCNKP@unexpected?5end@ 00000001400dee18     TextureManager.obj
 0003:0000ee30       ??_C@_08DIAPIMGJ@bad?5dist@ 00000001400dee30     TextureManager.obj
 0003:0000ee40       ??_C@_0N@IECDHMDI@zlib?5corrupt@ 00000001400dee40     TextureManager.obj
 0003:0000ee50       ??_C@_0BB@PIPBCKIA@read?5past?5buffer@ 00000001400dee50     TextureManager.obj
 0003:0000ee68       ??_C@_0BA@OBKOPAFL@bad?5zlib?5header@ 00000001400dee68     TextureManager.obj
 0003:0000ee80       ??_C@_0P@DOGMHEBI@no?5preset?5dict@ 00000001400dee80     TextureManager.obj
 0003:0000ee98       ??_C@_0BA@MCNBDLPD@bad?5compression@ 00000001400dee98     TextureManager.obj
 0003:0000eeb0       ??_C@_0M@DMDNBACF@bad?5png?5sig@ 00000001400deeb0     TextureManager.obj
 0003:0000eec0       ??_C@_1BG@FLOPDKAN@?$AAi?$AAm?$AAg?$AA_?$AAn?$AA?5?$AA?$DN?$AA?$DN?$AA?5?$AA3@ 00000001400deec0     TextureManager.obj
 0003:0000eee0       ??_C@_1FG@LGPEHEPM@?$AAo?$AAu?$AAt?$AA_?$AAn?$AA?5?$AA?$DN?$AA?$DN?$AA?5?$AAs?$AA?9?$AA?$DO?$AAi?$AAm?$AAg@ 00000001400deee0     TextureManager.obj
 0003:0000ef48       ??_C@_0BC@BHMPBBMG@not?5enough?5pixels@ 00000001400def48     TextureManager.obj
 0003:0000ef60       ??_C@_0P@FBBCPGMN@invalid?5filter@ 00000001400def60     TextureManager.obj
 0003:0000ef78       ??_C@_1BG@OEFMLIPO@?$AAd?$AAe?$AAp?$AAt?$AAh?$AA?5?$AA?$DN?$AA?$DN?$AA?5?$AA1@ 00000001400def78     TextureManager.obj
 0003:0000ef98       ??_C@_1CG@MFAHHIFB@?$AAi?$AAm?$AAg?$AA_?$AAn?$AA?5?$AA?$CL?$AA?5?$AA1?$AA?5?$AA?$DN?$AA?$DN?$AA?5?$AAo?$AAu@ 00000001400def98     TextureManager.obj
 0003:0000efc8       ??_C@_1DC@BMIDKOPK@?$AAo?$AAu?$AAt?$AA_?$AAn?$AA?5?$AA?$DN?$AA?$DN?$AA?5?$AA2?$AA?5?$AA?$HM?$AA?$HM?$AA?5?$AAo@ 00000001400defc8     TextureManager.obj
 0003:0000f008       ??_C@_1CE@GKIDJEJM@?$AAs?$AA?9?$AA?$DO?$AAi?$AAm?$AAg?$AA_?$AAo?$AAu?$AAt?$AA_?$AAn?$AA?5?$AA?$DN?$AA?$DN@ 00000001400df008     TextureManager.obj
 0003:0000f038       ??_C@_0O@KBHBNJOK@multiple?5IHDR@ 00000001400df038     TextureManager.obj
 0003:0000f048       ??_C@_0N@POJLKMKK@bad?5IHDR?5len@ 00000001400df048     TextureManager.obj
 0003:0000f058       ??_C@_0BE@EJHIPKNO@1?12?14?18?116?9bit?5only@ 00000001400df058     TextureManager.obj
 0003:0000f070       ??_C@_09MBBNGCKB@bad?5ctype@ 00000001400df070     TextureManager.obj
 0003:0000f080       ??_C@_0BA@MDMBDDFG@bad?5comp?5method@ 00000001400df080     TextureManager.obj
 0003:0000f098       ??_C@_0BC@GHLIKKMD@bad?5filter?5method@ 00000001400df098     TextureManager.obj
 0003:0000f0b0       ??_C@_0BF@JCGDPBAA@bad?5interlace?5method@ 00000001400df0b0     TextureManager.obj
 0003:0000f0d0       ??_C@_0O@FNFBHCOO@0?9pixel?5image@ 00000001400df0d0     TextureManager.obj
 0003:0000f0e0       ??_C@_0P@JEAFOMAF@first?5not?5IHDR@ 00000001400df0e0     TextureManager.obj
 0003:0000f0f8       ??_C@_0N@JCPAJAKB@invalid?5PLTE@ 00000001400df0f8     TextureManager.obj
 0003:0000f108       ??_C@_0BA@PCPJHDKJ@tRNS?5after?5IDAT@ 00000001400df108     TextureManager.obj
 0003:0000f120       ??_C@_0BB@CEDNNLBG@tRNS?5before?5PLTE@ 00000001400df120     TextureManager.obj
 0003:0000f138       ??_C@_0N@KDLCCKCH@bad?5tRNS?5len@ 00000001400df138     TextureManager.obj
 0003:0000f148       ??_C@_0BA@ENDPGCHB@tRNS?5with?5alpha@ 00000001400df148     TextureManager.obj
 0003:0000f160       ??_C@_07CKIELOEH@no?5PLTE@ 00000001400df160     TextureManager.obj
 0003:0000f170       ??_C@_0BA@PLHGLONG@IDAT?5size?5limit@ 00000001400df170     TextureManager.obj
 0003:0000f188       ??_C@_09MNNCNKEO@outofdata@ 00000001400df188     TextureManager.obj
 0003:0000f198       ??_C@_07MLPECBNA@no?5IDAT@ 00000001400df198     TextureManager.obj
 0003:0000f1a8       ??_C@_0BF@NOEEEFMF@bad?5bits_per_channel@ 00000001400df1a8     TextureManager.obj
 0003:0000f1c8       ??_C@_1BA@EKLGALLJ@?$AAv?$AA?5?$AA?$DM?$AA?5?$AA2?$AA5?$AA6@ 00000001400df1c8     TextureManager.obj
 0003:0000f1e0       ??_C@_1CO@LIFEKNEP@?$AAb?$AAi?$AAt?$AAs?$AA?5?$AA?$DO?$AA?$DN?$AA?5?$AA0?$AA?5?$AA?$CG?$AA?$CG?$AA?5?$AAb?$AAi@ 00000001400df1e0     TextureManager.obj
 0003:0000f218       ??_C@_07IANEBNLB@not?5BMP@ 00000001400df218     TextureManager.obj
 0003:0000f228       ??_C@_07IEJCHBDI@bad?5BMP@ 00000001400df228     TextureManager.obj
 0003:0000f238       ??_C@_0M@KHBIBJBG@unknown?5BMP@ 00000001400df238     TextureManager.obj
 0003:0000f248       ??_C@_07IMHMNOIB@BMP?5RLE@ 00000001400df248     TextureManager.obj
 0003:0000f258       ??_C@_0N@ODCBCBFN@BMP?5JPEG?1PNG@ 00000001400df258     TextureManager.obj
 0003:0000f268       ??_C@_0L@PJHPAMCH@bad?5header@ 00000001400df268     TextureManager.obj
 0003:0000f278       ??_C@_0L@JDPIFELH@bad?5offset@ 00000001400df278     TextureManager.obj
 0003:0000f288       ??_C@_07MALOAKCI@invalid@  00000001400df288     TextureManager.obj
 0003:0000f298       ??_C@_07JNJHIMGH@bad?5bpp@ 00000001400df298     TextureManager.obj
 0003:0000f2a8       ??_C@_09DAEBACAB@bad?5masks@ 00000001400df2a8     TextureManager.obj
 0003:0000f2b8       ??_C@_0L@DMAPJJO@bad?5format@ 00000001400df2b8     TextureManager.obj
 0003:0000f2c8       ??_C@_0M@ILLOCNCO@bad?5palette@ 00000001400df2c8     TextureManager.obj
 0003:0000f2d8       ??_C@_1CK@GOOINIO@?$AAt?$AAg?$AAa?$AA_?$AAc?$AAo?$AAm?$AAp?$AA?5?$AA?$DN?$AA?$DN?$AA?5?$AAS?$AAT?$AAB@ 00000001400df2d8     TextureManager.obj
 0003:0000f310       ??_C@_07ECNCNLIK@not?5PSD@ 00000001400df310     TextureManager.obj
 0003:0000f320       ??_C@_0O@CHBCDKKC@wrong?5version@ 00000001400df320     TextureManager.obj
 0003:0000f330       ??_C@_0BE@PJBNGDBE@wrong?5channel?5count@ 00000001400df330     TextureManager.obj
 0003:0000f348       ??_C@_0BG@NOLDLPP@unsupported?5bit?5depth@ 00000001400df348     TextureManager.obj
 0003:0000f368       ??_C@_0BD@IOGGBMNK@wrong?5color?5format@ 00000001400df368     TextureManager.obj
 0003:0000f380       ??_C@_07DPPMCAKL@corrupt@  00000001400df380     TextureManager.obj
 0003:0000f38c       ??_C@_04KBFEPHFH@S?$IA?v4@ 00000001400df38c     TextureManager.obj
 0003:0000f394       ??_C@_04ELNJHLFH@PICT@     00000001400df394     TextureManager.obj
 0003:0000f3a0       ??_C@_08GGMBIFE@bad?5file@ 00000001400df3a0     TextureManager.obj
 0003:0000f3b0       ??_C@_07KMJLPAII@not?5GIF@ 00000001400df3b0     TextureManager.obj
 0003:0000f3c0       ??_C@_0O@MGDACKOJ@no?5clear?5code@ 00000001400df3c0     TextureManager.obj
 0003:0000f3d0       ??_C@_0P@GJNJCPDJ@too?5many?5codes@ 00000001400df3d0     TextureManager.obj
 0003:0000f3e8       ??_C@_0BH@LOKBIIOJ@illegal?5code?5in?5raster@ 00000001400df3e8     TextureManager.obj
 0003:0000f408       ??_C@_0BF@GIAALCNJ@bad?5Image?5Descriptor@ 00000001400df408     TextureManager.obj
 0003:0000f428       ??_C@_0BE@NAMJKDNF@missing?5color?5table@ 00000001400df428     TextureManager.obj
 0003:0000f440       ??_C@_0N@DJABBOOH@unknown?5code@ 00000001400df440     TextureManager.obj
 0003:0000f450       ??_C@_0M@HOIDFNFN@?$CD?$DPRADIANCE?6@ 00000001400df450     TextureManager.obj
 0003:0000f460       ??_C@_07KFDJIKCK@?$CD?$DPRGBE?6@ 00000001400df460     TextureManager.obj
 0003:0000f470       ??_C@_0L@NCPEAJBD@?$CD?$DPRADIANCE@ 00000001400df470     TextureManager.obj
 0003:0000f480       ??_C@_06NDOKKIDJ@?$CD?$DPRGBE@ 00000001400df480     TextureManager.obj
 0003:0000f488       ??_C@_07NCIOKENI@not?5HDR@ 00000001400df488     TextureManager.obj
 0003:0000f498       ??_C@_0BH@JFGBLLKC@FORMAT?$DN32?9bit_rle_rgbe@ 00000001400df498     TextureManager.obj
 0003:0000f4b8       ??_C@_0BD@NKJFFLKL@unsupported?5format@ 00000001400df4b8     TextureManager.obj
 0003:0000f4d0       ??_C@_03HKAKGGJN@?9Y?5@    00000001400df4d0     TextureManager.obj
 0003:0000f4d8       ??_C@_0BI@DCNDPIOH@unsupported?5data?5layout@ 00000001400df4d8     TextureManager.obj
 0003:0000f4f4       ??_C@_03FOKDFDHG@?$CLX?5@  00000001400df4f4     TextureManager.obj
 0003:0000f4f8       ??_C@_0CA@JBEOCDFN@invalid?5decoded?5scanline?5length@ 00000001400df4f8     TextureManager.obj
 0003:0000f520       ??_C@_07IDKIDMGJ@bad?5PNM@ 00000001400df520     TextureManager.obj
 0003:0000f530       ??_C@_0BH@OBINMOBC@integer?5parse?5overflow@ 00000001400df530     TextureManager.obj
 0003:0000f550       ??_C@_0O@MKGNGALN@invalid?5width@ 00000001400df550     TextureManager.obj
 0003:0000f560       ??_C@_0BC@CNFMOKHC@max?5value?5?$DO?565535@ 00000001400df560     TextureManager.obj
 0003:0000f578       ??_C@_0BJ@INAOFKII@Texture?5already?5loaded?3?5@ 00000001400df578     TextureManager.obj
 0003:0000f598       ??_C@_0BE@NDBJHBOP@Loaded?5texture?3?5?$CFs?6@ 00000001400df598     TextureManager.obj
 0003:0000f5b0       ??_C@_0CF@BEKBPFIN@Width?3?5?$CFd?0?5Height?3?5?$CFd?0?5Channels@ 00000001400df5b0     TextureManager.obj
 0003:0000f5e0       ??_C@_0BJ@CIFGPOJC@Failed?5to?5load?5texture?3?5@ 00000001400df5e0     TextureManager.obj
 0003:0000f600       ??_C@_0BP@OLDKBHLM@map?1set?5iterators?5incompatible@ 00000001400df600     TextureManager.obj
 0003:0000f630       ??_C@_0GA@NHPPEDEL@C?3?2Program?5Files?2Microsoft?5Visu@ 00000001400df630     TextureManager.obj
 0003:0000f6b0       ??_C@_1MA@NJFEKPAH@?$AAC?$AA?3?$AA?2?$AAP?$AAr?$AAo?$AAg?$AAr?$AAa?$AAm?$AA?5?$AAF?$AAi?$AAl?$AAe@ 00000001400df6b0     TextureManager.obj
 0003:0000f7a0       ??_C@_1EC@JLIDLCDH@?$AA?$CC?$AAm?$AAa?$AAp?$AA?1?$AAs?$AAe?$AAt?$AA?5?$AAi?$AAt?$AAe?$AAr?$AAa?$AAt@ 00000001400df7a0     TextureManager.obj
 0003:0000f7f8       ??_7?$_Ref_count_obj2@VTexture2DArray@@@std@@6B@ 00000001400df7f8     TextureManager.obj
 0003:0000f820       ??_C@_0BD@FEEMDEPI@invalid?5comparator@ 00000001400df820     TextureManager.obj
 0003:0000f838       ??_C@_1CK@NDNHPKPI@?$AA?$CC?$AAi?$AAn?$AAv?$AAa?$AAl?$AAi?$AAd?$AA?5?$AAc?$AAo?$AAm?$AAp?$AAa?$AAr@ 00000001400df838     TextureManager.obj
 0003:0000f86c       __real@3f000000            00000001400df86c     TextureManager.obj
 0003:0000f870       __real@437f0000            00000001400df870     TextureManager.obj
 0003:0000f874       __real@477fff00            00000001400df874     TextureManager.obj
 0003:0000f880       __xmm@00000200000002000000020000000200 00000001400df880     TextureManager.obj
 0003:0000f8a0       __xmm@00080008000800080008000800080008 00000001400df8a0     TextureManager.obj
 0003:0000f8c0       __xmm@00ff00ff00ff00ff00ff00ff00ff00ff 00000001400df8c0     TextureManager.obj
 0003:0000f8e0       __xmm@01010000010100000101000001010000 00000001400df8e0     TextureManager.obj
 0003:0000f900       __xmm@08a914e808a914e808a914e808a914e8 00000001400df900     TextureManager.obj
 0003:0000f920       __xmm@11c8e09e11c8e09e11c8e09e11c8e09e 00000001400df920     TextureManager.obj
 0003:0000f940       __xmm@11c8f9c311c8f9c311c8f9c311c8f9c3 00000001400df940     TextureManager.obj
 0003:0000f960       __xmm@12d0046b12d0046b12d0046b12d0046b 00000001400df960     TextureManager.obj
 0003:0000f980       __xmm@166f166f166f166f166f166f166f166f 00000001400df980     TextureManager.obj
 0003:0000f9a0       __xmm@1c5a1c5a1c5a1c5a1c5a1c5a1c5a1c5a 00000001400df9a0     TextureManager.obj
 0003:0000f9c0       __xmm@80808080808080808080808080808080 00000001400df9c0     TextureManager.obj
 0003:0000f9e0       __xmm@e09ee565e09ee565e09ee565e09ee565 00000001400df9e0     TextureManager.obj
 0003:0000fa00       __xmm@e9cf12d0e9cf12d0e9cf12d0e9cf12d0 00000001400dfa00     TextureManager.obj
 0003:0000fa20       __xmm@eb1a08a9eb1a08a9eb1a08a9eb1a08a9 00000001400dfa20     TextureManager.obj
 0003:0000fa40       __xmm@f493f493f493f493f493f493f493f493 00000001400dfa40     TextureManager.obj
 0003:0000fa60       __xmm@f9c31a9df9c31a9df9c31a9df9c31a9d 00000001400dfa60     TextureManager.obj
 0003:0000fa80       __xmm@fa7efa7efa7efa7efa7efa7efa7efa7e 00000001400dfa80     TextureManager.obj
 0003:0000fc98       __real@0000000000000000    00000001400dfc98     glfw3:window.obj
 0003:0000fca8       __real@7fefffffffffffff    00000001400dfca8     glfw3:window.obj
 0003:0000ff00       __real@4000000000000000    00000001400dff00     glfw3:input.obj
 0003:0000ff10       __real@42112e0be8240000    00000001400dff10     glfw3:input.obj
 0003:0000ff20       __real@43e0000000000000    00000001400dff20     glfw3:input.obj
 0003:0000ff30       __real@ffefffffffffffff    00000001400dff30     glfw3:input.obj
 0003:00010cbc       __real@41cb3333            00000001400e0cbc     glfw3:win32_monitor.obj
 0003:00010cc0       __real@42c00000            00000001400e0cc0     glfw3:win32_monitor.obj
 0003:00010fa4       __real@7f7fffff            00000001400e0fa4     glfw3:monitor.obj
 0003:000126d8       __real@405e000000000000    00000001400e26d8     glfw3:win32_window.obj
 0003:000126e8       __real@408f400000000000    00000001400e26e8     glfw3:win32_window.obj
 0003:00012ed4       __real@42ff0000            00000001400e2ed4     glfw3:win32_joystick.obj
 0003:00012ed8       __real@46ffff00            00000001400e2ed8     glfw3:win32_joystick.obj
 0003:00013a98       ??_7type_info@@6B@         00000001400e3a98     MSVCRTD:std_type_info_static.obj
 0003:00013ba0       ??_C@_0NN@JMPELKLB@The?5value?5of?5ESP?5was?5not?5proper@ 00000001400e3ba0     MSVCRTD:error.obj
 0003:00013cb0       ??_C@_0BBN@ELNNILBE@A?5cast?5to?5a?5smaller?5data?5type?5h@ 00000001400e3cb0     MSVCRTD:error.obj
 0003:00013e08       ??_C@_0BN@BPOGFMJL@Stack?5memory?5was?5corrupted?$AN?6@ 00000001400e3e08     MSVCRTD:error.obj
 0003:00013e30       ??_C@_0DG@DAJCDLPN@A?5local?5variable?5was?5used?5befor@ 00000001400e3e30     MSVCRTD:error.obj
 0003:00013e70       ??_C@_0CM@JMIDGKLA@Stack?5memory?5around?5_alloca?5was@ 00000001400e3e70     MSVCRTD:error.obj
 0003:00013ea8       ??_C@_0BO@CHIONIOI@Unknown?5Runtime?5Check?5Error?$AN?6@ 00000001400e3ea8     MSVCRTD:error.obj
 0003:00013ed0       ??_C@_1GM@CNOOJIHC@?$AAR?$AAu?$AAn?$AAt?$AAi?$AAm?$AAe?$AA?5?$AAC?$AAh?$AAe?$AAc?$AAk?$AA?5?$AAE@ 00000001400e3ed0     MSVCRTD:error.obj
 0003:00013f60       ??_C@_1EA@NFKNIFJP@?$AAR?$AAu?$AAn?$AA?9?$AAT?$AAi?$AAm?$AAe?$AA?5?$AAC?$AAh?$AAe?$AAc?$AAk?$AA?5@ 00000001400e3f60     MSVCRTD:error.obj
 0003:00013fb0       ??_C@_0BB@PFFGGCJP@Unknown?5Filename@ 00000001400e3fb0     MSVCRTD:error.obj
 0003:00013fc8       ??_C@_0BE@GNBOBNCK@Unknown?5Module?5Name@ 00000001400e3fc8     MSVCRTD:error.obj
 0003:00013fe0       ??_C@_0CA@IODNCDPG@Run?9Time?5Check?5Failure?5?$CD?$CFd?5?9?5?$CFs@ 00000001400e3fe0     MSVCRTD:error.obj
 0003:00014008       ??_C@_0CG@IAFNJNEE@Stack?5corrupted?5near?5unknown?5va@ 00000001400e4008     MSVCRTD:error.obj
 0003:00014038       ??_C@_05MKKEDADM@?$CF?42X?5@ 00000001400e4038     MSVCRTD:error.obj
 0003:00014040       ??_C@_0EJ@LJKNEOLN@Stack?5area?5around?5_alloca?5memor@ 00000001400e4040     MSVCRTD:error.obj
 0003:00014098       ??_C@_01EEMJAFIK@?6@       00000001400e4098     MSVCRTD:error.obj
 0003:0001409c       ??_C@_02LLMPMKNF@?$DO?5@   00000001400e409c     MSVCRTD:error.obj
 0003:000140a0       ??_C@_08OMAHNMHJ@?6Data?3?5?$DM@ 00000001400e40a0     MSVCRTD:error.obj
 0003:000140b0       ??_C@_0CK@DKGBICFE@?6Allocation?5number?5within?5this?5@ 00000001400e40b0     MSVCRTD:error.obj
 0003:000140e8       ??_C@_07DFDJCKFN@?6Size?3?5@ 00000001400e40e8     MSVCRTD:error.obj
 0003:000140f8       ??_C@_0N@MHFFIMFG@?6Address?3?50x@ 00000001400e40f8     MSVCRTD:error.obj
 0003:00014110       ??_C@_0EI@CLEPFNGI@Stack?5area?5around?5_alloca?5memor@ 00000001400e4110     MSVCRTD:error.obj
 0003:00014168       ??_C@_0BK@ODNDAGKB@?$CFs?$CFs?$CFp?$CFs?$CFzd?$CFs?$CFd?$CFs?$CFs?$CFs?$CFs?$CFs@ 00000001400e4168     MSVCRTD:error.obj
 0003:00014188       ??_C@_0DE@OHJBPMBP@A?5variable?5is?5being?5used?5withou@ 00000001400e4188     MSVCRTD:error.obj
 0003:000141f8       ??_C@_0BJ@HEGAHDFO@Stack?5pointer?5corruption@ 00000001400e41f8     MSVCRTD:userapi.obj
 0003:00014218       ??_C@_0CK@FEGOIOPB@Cast?5to?5smaller?5type?5causing?5lo@ 00000001400e4218     MSVCRTD:userapi.obj
 0003:00014250       ??_C@_0BI@CIGMDCBH@Stack?5memory?5corruption@ 00000001400e4250     MSVCRTD:userapi.obj
 0003:00014270       ??_C@_0CK@CNLNOEPB@Local?5variable?5used?5before?5init@ 00000001400e4270     MSVCRTD:userapi.obj
 0003:000142a8       ??_C@_0BP@OGBCLIBO@Stack?5around?5_alloca?5corrupted@ 00000001400e42a8     MSVCRTD:userapi.obj
 0003:000142d0       ??_C@_0P@GHFPNOJB@bad?5allocation@ 00000001400e42d0     MSVCRTD:throw_bad_alloc.obj
 0003:00014350       ??_C@_1EI@MLPKHBGE@?$AAa?$AAp?$AAi?$AA?9?$AAm?$AAs?$AA?9?$AAw?$AAi?$AAn?$AA?9?$AAc?$AAo?$AAr?$AAe@ 00000001400e4350     MSVCRTD:pdblkup.obj
 0003:000143a8       ??_C@_1BK@JHLNAEJL@?$AAa?$AAd?$AAv?$AAa?$AAp?$AAi?$AA3?$AA2?$AA?4?$AAd?$AAl?$AAl@ 00000001400e43a8     MSVCRTD:pdblkup.obj
 0003:000143c8       ??_C@_0O@COHOBMLB@RegOpenKeyExW@ 00000001400e43c8     MSVCRTD:pdblkup.obj
 0003:000143d8       ??_C@_0BB@GLNAEDBD@RegQueryValueExW@ 00000001400e43d8     MSVCRTD:pdblkup.obj
 0003:000143f0       ??_C@_0M@HLOHPNFA@RegCloseKey@ 00000001400e43f0     MSVCRTD:pdblkup.obj
 0003:00014400       ??_C@_1HE@EBEAGLFB@?$AAS?$AAO?$AAF?$AAT?$AAW?$AAA?$AAR?$AAE?$AA?2?$AAW?$AAo?$AAw?$AA6?$AA4?$AA3@ 00000001400e4400     MSVCRTD:pdblkup.obj
 0003:00014490       ??_C@_1BG@EABPBLLF@?$AAP?$AAr?$AAo?$AAd?$AAu?$AAc?$AAt?$AAD?$AAi?$AAr@ 00000001400e4490     MSVCRTD:pdblkup.obj
 0003:000144d8       ??_C@_1BC@JINFINNJ@?$AAM?$AAS?$AAP?$AAD?$AAB?$AA1?$AA4?$AA0@ 00000001400e44d8     MSVCRTD:pdblkup.obj
 0003:000144f0       ??_C@_0BB@KCIACLNC@PDBOpenValidate5@ 00000001400e44f0     MSVCRTD:pdblkup.obj
 0003:00014504       ??_C@_01KDCPPGHE@r@        00000001400e4504     MSVCRTD:pdblkup.obj
 0003:00014508       ??_C@_0DK@PCBCHJKC@D?3?2a?2_work?21?2s?2src?2vctools?2crt?2@ 00000001400e4508     msvcprtd:locale0_implib.obj
 0003:00014550       _load_config_used          00000001400e4550     MSVCRTD:loadcfg.obj
 0003:00014e80       __CastGuardVftablesStart   00000001400e4e80     MSVCRTD:guard_support.obj
 0003:00015080       __CastGuardVftablesEnd     00000001400e5080     MSVCRTD:guard_support.obj
 0003:00015220       _tls_used                  00000001400e5220     MSVCRTD:tlssup.obj
 0003:00015350       ??_R4Camera@@6B@           00000001400e5350     Camera.obj
 0003:00015380       ??_R3Camera@@8             00000001400e5380     Camera.obj
 0003:00015398       ??_R2Camera@@8             00000001400e5398     Camera.obj
 0003:000153b0       ??_R1A@?0A@EA@Camera@@8    00000001400e53b0     Camera.obj
 0003:000153e0       ??_R1A@?0A@EA@GameObject@@8 00000001400e53e0     Camera.obj
 0003:00015410       ??_R3GameObject@@8         00000001400e5410     Camera.obj
 0003:00015428       ??_R2GameObject@@8         00000001400e5428     Camera.obj
 0003:00015438       ??_R4exception@std@@6B@    00000001400e5438     Chunk.obj
 0003:00015468       ??_R3exception@std@@8      00000001400e5468     Chunk.obj
 0003:00015480       ??_R2exception@std@@8      00000001400e5480     Chunk.obj
 0003:00015490       ??_R1A@?0A@EA@exception@std@@8 00000001400e5490     Chunk.obj
 0003:000154c0       ??_R4runtime_error@std@@6B@ 00000001400e54c0     Chunk.obj
 0003:000154f0       ??_R3runtime_error@std@@8  00000001400e54f0     Chunk.obj
 0003:00015508       ??_R2runtime_error@std@@8  00000001400e5508     Chunk.obj
 0003:00015520       ??_R1A@?0A@EA@runtime_error@std@@8 00000001400e5520     Chunk.obj
 0003:00015550       ??_R4Chunk@@6B@            00000001400e5550     Chunk.obj
 0003:00015580       ??_R3Chunk@@8              00000001400e5580     Chunk.obj
 0003:00015598       ??_R2Chunk@@8              00000001400e5598     Chunk.obj
 0003:000155b0       ??_R1A@?0A@EA@Chunk@@8     00000001400e55b0     Chunk.obj
 0003:000155e0       ??_R4?$basic_stringbuf@DU?$char_traits@D@std@@V?$allocator@D@2@@std@@6B@ 00000001400e55e0     FileUtils.obj
 0003:00015610       ??_R3?$basic_stringbuf@DU?$char_traits@D@std@@V?$allocator@D@2@@std@@8 00000001400e5610     FileUtils.obj
 0003:00015628       ??_R2?$basic_stringbuf@DU?$char_traits@D@std@@V?$allocator@D@2@@std@@8 00000001400e5628     FileUtils.obj
 0003:00015640       ??_R1A@?0A@EA@?$basic_stringbuf@DU?$char_traits@D@std@@V?$allocator@D@2@@std@@8 00000001400e5640     FileUtils.obj
 0003:00015670       ??_R1A@?0A@EA@?$basic_streambuf@DU?$char_traits@D@std@@@std@@8 00000001400e5670     FileUtils.obj
 0003:000156a0       ??_R3?$basic_streambuf@DU?$char_traits@D@std@@@std@@8 00000001400e56a0     FileUtils.obj
 0003:000156b8       ??_R2?$basic_streambuf@DU?$char_traits@D@std@@@std@@8 00000001400e56b8     FileUtils.obj
 0003:000156c8       ??_R4?$basic_stringstream@DU?$char_traits@D@std@@V?$allocator@D@2@@std@@6B@ 00000001400e56c8     FileUtils.obj
 0003:000156f8       ??_R3?$basic_stringstream@DU?$char_traits@D@std@@V?$allocator@D@2@@std@@8 00000001400e56f8     FileUtils.obj
 0003:00015710       ??_R2?$basic_stringstream@DU?$char_traits@D@std@@V?$allocator@D@2@@std@@8 00000001400e5710     FileUtils.obj
 0003:00015778       ??_R1A@?0A@EA@?$basic_stringstream@DU?$char_traits@D@std@@V?$allocator@D@2@@std@@8 00000001400e5778     FileUtils.obj
 0003:000157a8       ??_R1A@?0A@EA@?$basic_iostream@DU?$char_traits@D@std@@@std@@8 00000001400e57a8     FileUtils.obj
 0003:000157d8       ??_R3?$basic_iostream@DU?$char_traits@D@std@@@std@@8 00000001400e57d8     FileUtils.obj
 0003:000157f0       ??_R2?$basic_iostream@DU?$char_traits@D@std@@@std@@8 00000001400e57f0     FileUtils.obj
 0003:00015850       ??_R1A@?0A@EA@?$basic_istream@DU?$char_traits@D@std@@@std@@8 00000001400e5850     FileUtils.obj
 0003:00015880       ??_R3?$basic_istream@DU?$char_traits@D@std@@@std@@8 00000001400e5880     FileUtils.obj
 0003:00015898       ??_R2?$basic_istream@DU?$char_traits@D@std@@@std@@8 00000001400e5898     FileUtils.obj
 0003:000158c8       ??_R1A@A@3FA@?$basic_ios@DU?$char_traits@D@std@@@std@@8 00000001400e58c8     FileUtils.obj
 0003:000158f8       ??_R3?$basic_ios@DU?$char_traits@D@std@@@std@@8 00000001400e58f8     FileUtils.obj
 0003:00015910       ??_R2?$basic_ios@DU?$char_traits@D@std@@@std@@8 00000001400e5910     FileUtils.obj
 0003:00015938       ??_R1A@?0A@EA@?$basic_ios@DU?$char_traits@D@std@@@std@@8 00000001400e5938     FileUtils.obj
 0003:00015968       ??_R1A@?0A@EA@ios_base@std@@8 00000001400e5968     FileUtils.obj
 0003:00015998       ??_R3ios_base@std@@8       00000001400e5998     FileUtils.obj
 0003:000159b0       ??_R2ios_base@std@@8       00000001400e59b0     FileUtils.obj
 0003:000159c8       ??_R17?0A@EA@?$_Iosb@H@std@@8 00000001400e59c8     FileUtils.obj
 0003:000159f8       ??_R3?$_Iosb@H@std@@8      00000001400e59f8     FileUtils.obj
 0003:00015a10       ??_R2?$_Iosb@H@std@@8      00000001400e5a10     FileUtils.obj
 0003:00015a20       ??_R1A@?0A@EA@?$_Iosb@H@std@@8 00000001400e5a20     FileUtils.obj
 0003:00015a50       ??_R1A@A@3EA@ios_base@std@@8 00000001400e5a50     FileUtils.obj
 0003:00015a80       ??_R17A@3EA@?$_Iosb@H@std@@8 00000001400e5a80     FileUtils.obj
 0003:00015ab0       ??_R1BA@?0A@EA@?$basic_ostream@DU?$char_traits@D@std@@@std@@8 00000001400e5ab0     FileUtils.obj
 0003:00015ae0       ??_R3?$basic_ostream@DU?$char_traits@D@std@@@std@@8 00000001400e5ae0     FileUtils.obj
 0003:00015af8       ??_R2?$basic_ostream@DU?$char_traits@D@std@@@std@@8 00000001400e5af8     FileUtils.obj
 0003:00015b28       ??_R1A@?0A@EA@?$basic_ostream@DU?$char_traits@D@std@@@std@@8 00000001400e5b28     FileUtils.obj
 0003:00015b58       ??_R4?$basic_filebuf@DU?$char_traits@D@std@@@std@@6B@ 00000001400e5b58     FileUtils.obj
 0003:00015b88       ??_R3?$basic_filebuf@DU?$char_traits@D@std@@@std@@8 00000001400e5b88     FileUtils.obj
 0003:00015ba0       ??_R2?$basic_filebuf@DU?$char_traits@D@std@@@std@@8 00000001400e5ba0     FileUtils.obj
 0003:00015bb8       ??_R1A@?0A@EA@?$basic_filebuf@DU?$char_traits@D@std@@@std@@8 00000001400e5bb8     FileUtils.obj
 0003:00015be8       ??_R4?$basic_ifstream@DU?$char_traits@D@std@@@std@@6B@ 00000001400e5be8     FileUtils.obj
 0003:00015c18       ??_R3?$basic_ifstream@DU?$char_traits@D@std@@@std@@8 00000001400e5c18     FileUtils.obj
 0003:00015c30       ??_R2?$basic_ifstream@DU?$char_traits@D@std@@@std@@8 00000001400e5c30     FileUtils.obj
 0003:00015c68       ??_R1A@?0A@EA@?$basic_ifstream@DU?$char_traits@D@std@@@std@@8 00000001400e5c68     FileUtils.obj
 0003:00015c98       ??_R4bad_array_new_length@std@@6B@ 00000001400e5c98     FileUtils.obj
 0003:00015cc8       ??_R3bad_array_new_length@std@@8 00000001400e5cc8     FileUtils.obj
 0003:00015ce0       ??_R2bad_array_new_length@std@@8 00000001400e5ce0     FileUtils.obj
 0003:00015d08       ??_R1A@?0A@EA@bad_array_new_length@std@@8 00000001400e5d08     FileUtils.obj
 0003:00015d38       ??_R1A@?0A@EA@bad_alloc@std@@8 00000001400e5d38     FileUtils.obj
 0003:00015d68       ??_R3bad_alloc@std@@8      00000001400e5d68     FileUtils.obj
 0003:00015d80       ??_R2bad_alloc@std@@8      00000001400e5d80     FileUtils.obj
 0003:00015d98       ??_R4bad_alloc@std@@6B@    00000001400e5d98     FileUtils.obj
 0003:00015dc8       ??_R4bad_cast@std@@6B@     00000001400e5dc8     FileUtils.obj
 0003:00015df8       ??_R3bad_cast@std@@8       00000001400e5df8     FileUtils.obj
 0003:00015e10       ??_R2bad_cast@std@@8       00000001400e5e10     FileUtils.obj
 0003:00015e28       ??_R1A@?0A@EA@bad_cast@std@@8 00000001400e5e28     FileUtils.obj
 0003:00015e58       ??_R3_Ref_count_base@std@@8 00000001400e5e58     Game.obj
 0003:00015e70       ??_R2_Ref_count_base@std@@8 00000001400e5e70     Game.obj
 0003:00015e80       ??_R1A@?0A@EA@_Ref_count_base@std@@8 00000001400e5e80     Game.obj
 0003:00015eb0       ??_R4?$_Ref_count_obj2@VChunk@@@std@@6B@ 00000001400e5eb0     Game.obj
 0003:00015ee0       ??_R3?$_Ref_count_obj2@VChunk@@@std@@8 00000001400e5ee0     Game.obj
 0003:00015ef8       ??_R2?$_Ref_count_obj2@VChunk@@@std@@8 00000001400e5ef8     Game.obj
 0003:00015f10       ??_R1A@?0A@EA@?$_Ref_count_obj2@VChunk@@@std@@8 00000001400e5f10     Game.obj
 0003:00015f40       ??_R4GameObject@@6B@       00000001400e5f40     GameObject.obj
 0003:00015f70       ??_R4?$_Ref_count_obj2@VShaderProgram@@@std@@6B@ 00000001400e5f70     ShaderManager.obj
 0003:00015fa0       ??_R3?$_Ref_count_obj2@VShaderProgram@@@std@@8 00000001400e5fa0     ShaderManager.obj
 0003:00015fb8       ??_R2?$_Ref_count_obj2@VShaderProgram@@@std@@8 00000001400e5fb8     ShaderManager.obj
 0003:00015fd0       ??_R1A@?0A@EA@?$_Ref_count_obj2@VShaderProgram@@@std@@8 00000001400e5fd0     ShaderManager.obj
 0003:00016000       ??_R4?$_Ref_count_obj2@VTexture2DArray@@@std@@6B@ 00000001400e6000     TextureManager.obj
 0003:00016030       ??_R3?$_Ref_count_obj2@VTexture2DArray@@@std@@8 00000001400e6030     TextureManager.obj
 0003:00016048       ??_R2?$_Ref_count_obj2@VTexture2DArray@@@std@@8 00000001400e6048     TextureManager.obj
 0003:00016060       ??_R1A@?0A@EA@?$_Ref_count_obj2@VTexture2DArray@@@std@@8 00000001400e6060     TextureManager.obj
 0003:00016090       ??_R4type_info@@6B@        00000001400e6090     MSVCRTD:std_type_info_static.obj
 0003:000160c0       ??_R3type_info@@8          00000001400e60c0     MSVCRTD:std_type_info_static.obj
 0003:000160d8       ??_R2type_info@@8          00000001400e60d8     MSVCRTD:std_type_info_static.obj
 0003:000160e8       ??_R1A@?0A@EA@type_info@@8 00000001400e60e8     MSVCRTD:std_type_info_static.obj
 0003:00016400       __rtc_iaa                  00000001400e6400     MSVCRTD:initsect.obj
 0003:00016860       __rtc_izz                  00000001400e6860     MSVCRTD:initsect.obj
 0003:00016970       __rtc_taa                  00000001400e6970     MSVCRTD:initsect.obj
 0003:00016dd0       __rtc_tzz                  00000001400e6dd0     MSVCRTD:initsect.obj
 0003:00020290       _CT??_R0?AVexception@std@@@8??0exception@std@@QEAA@AEBV01@@Z24 00000001400f0290     Chunk.obj
 0003:000202b8       _CT??_R0?AVruntime_error@std@@@8??0runtime_error@std@@QEAA@AEBV01@@Z24 00000001400f02b8     Chunk.obj
 0003:000202e0       _TI2?AVruntime_error@std@@ 00000001400f02e0     Chunk.obj
 0003:00020300       _CTA2?AVruntime_error@std@@ 00000001400f0300     Chunk.obj
 0003:00020318       _TI3?AVbad_array_new_length@std@@ 00000001400f0318     FileUtils.obj
 0003:00020338       _CTA3?AVbad_array_new_length@std@@ 00000001400f0338     FileUtils.obj
 0003:00020358       _CT??_R0?AVbad_array_new_length@std@@@8??0bad_array_new_length@std@@QEAA@AEBV01@@Z24 00000001400f0358     FileUtils.obj
 0003:00020380       _CT??_R0?AVbad_alloc@std@@@8??0bad_alloc@std@@QEAA@AEBV01@@Z24 00000001400f0380     FileUtils.obj
 0003:000203a8       _TI2?AVbad_cast@std@@      00000001400f03a8     FileUtils.obj
 0003:000203c8       _CTA2?AVbad_cast@std@@     00000001400f03c8     FileUtils.obj
 0003:000203e0       _CT??_R0?AVbad_cast@std@@@8??0bad_cast@std@@QEAA@AEBV01@@Z24 00000001400f03e0     FileUtils.obj
 0003:00020408       _TI2?AVbad_alloc@std@@     00000001400f0408     MSVCRTD:throw_bad_alloc.obj
 0003:00020428       _CTA2?AVbad_alloc@std@@    00000001400f0428     MSVCRTD:throw_bad_alloc.obj
 0004:00000000       ?__LINE__Var@?0??_Adjust_manually_vector_aligned@std@@YAXAEAPEAXAEA_K@Z@4JA 00000001400f1000     Chunk.obj
 0004:00000008       ?WINDOW_TITLE@@3PEBDEB     00000001400f1008     main.obj
 0004:000000d4       ?__LINE__Var@?0??stbi__load_and_postprocess_8bit@@YAPEAEPEAUstbi__context@@PEAH11H@Z@4JA 00000001400f10d4     TextureManager.obj
 0004:000000d8       ?__LINE__Var@?0??stbi__load_and_postprocess_16bit@@YAPEAGPEAUstbi__context@@PEAH11H@Z@4JA 00000001400f10d8     TextureManager.obj
 0004:000000dc       ?__LINE__Var@?0??stbi__convert_format@@YAPEAEPEAEHHII@Z@4JA 00000001400f10dc     TextureManager.obj
 0004:000000e0       ?__LINE__Var@?0??stbi__convert_format16@@YAPEAGPEAGHHII@Z@4JA 00000001400f10e0     TextureManager.obj
 0004:000000e4       ?__LINE__Var@?0??stbi__jpeg_huff_decode@@YAHPEAUstbi__jpeg@@PEAUstbi__huffman@@@Z@4JA 00000001400f10e4     TextureManager.obj
 0004:000000e8       ?__LINE__Var@?0??stbi__bit_reverse@@YAHHH@Z@4JA 00000001400f10e8     TextureManager.obj
 0004:000000ec       ?__LINE__Var@?0??stbi__create_png_alpha_expand8@@YAXPEAE0IH@Z@4JA 00000001400f10ec     TextureManager.obj
 0004:000000f0       ?__LINE__Var@?0??stbi__create_png_image_raw@@YAHPEAUstbi__png@@PEAEIHIIHH@Z@4JA 00000001400f10f0     TextureManager.obj
 0004:000000f4       ?__LINE__Var@?0??stbi__compute_transparency@@YAHPEAUstbi__png@@QEAEH@Z@4JA 00000001400f10f4     TextureManager.obj
 0004:000000f8       ?__LINE__Var@?0??stbi__compute_transparency16@@YAHPEAUstbi__png@@QEAGH@Z@4JA 00000001400f10f8     TextureManager.obj
 0004:000000fc       ?__LINE__Var@?0??stbi__de_iphone@@YAXPEAUstbi__png@@@Z@4JA 00000001400f10fc     TextureManager.obj
 0004:00000100       ?__LINE__Var@?0??stbi__shiftsigned@@YAHIHH@Z@4JA 00000001400f1100     TextureManager.obj
 0004:00000104       ?__LINE__Var@?0??stbi__tga_load@@YAPEAXPEAUstbi__context@@PEAH11HPEAUstbi__result_info@@@Z@4JA 00000001400f1104     TextureManager.obj
 0004:00002f50       _glfwDefaultMappings       00000001400f3f50     glfw3:input.obj
 0004:0002e0c0       __security_cookie          000000014011f0c0     MSVCRTD:gs_cookie.obj
 0004:0002e100       __security_cookie_complement 000000014011f100     MSVCRTD:gs_cookie.obj
 0004:0002e118       _fltused                   000000014011f118     MSVCRTD:fltused.obj
 0004:0002e11c       _Init_global_epoch         000000014011f11c     MSVCRTD:thread_safe_statics.obj
 0004:0002e120       __scrt_native_dllmain_reason 000000014011f120     MSVCRTD:utility.obj
 0004:0002e130       ?_RTC_ErrorLevels@@3PAHA   000000014011f130     MSVCRTD:error.obj
 0004:0002e148       __isa_inverted             000000014011f148     MSVCRTD:cpu_disp.obj
 0004:0002e150       __isa_available            000000014011f150     MSVCRTD:cpu_disp.obj
 0004:0002e154       __isa_enabled              000000014011f154     MSVCRTD:cpu_disp.obj
 0004:0002e158       __memset_fast_string_threshold 000000014011f158     MSVCRTD:cpu_disp.obj
 0004:0002e160       __memset_nt_threshold      000000014011f160     MSVCRTD:cpu_disp.obj
 0004:0002e170       __scrt_default_matherr     000000014011f170     MSVCRTD:matherr.obj
 0004:0002e180       __scrt_ucrt_dll_is_in_use  000000014011f180     MSVCRTD:ucrt_stubs.obj
 0004:0002e2b8       ??_R0?AVexception@std@@@8  000000014011f2b8     Chunk.obj
 0004:0002e2e8       ??_R0?AVruntime_error@std@@@8 000000014011f2e8     Chunk.obj
 0004:0002e318       ??_R0?AVbad_array_new_length@std@@@8 000000014011f318     FileUtils.obj
 0004:0002e350       ??_R0?AVbad_alloc@std@@@8  000000014011f350     FileUtils.obj
 0004:0002e380       ??_R0?AVbad_cast@std@@@8   000000014011f380     FileUtils.obj
 0004:0002e4b0       ??_R0?AVCamera@@@8         000000014011f4b0     Camera.obj
 0004:0002e4d8       ??_R0?AVGameObject@@@8     000000014011f4d8     Camera.obj
 0004:0002e500       ??_R0?AVChunk@@@8          000000014011f500     Chunk.obj
 0004:0002e530       ??_R0?AV?$basic_stringbuf@DU?$char_traits@D@std@@V?$allocator@D@2@@std@@@8 000000014011f530     FileUtils.obj
 0004:0002e5a0       ??_R0?AV?$basic_streambuf@DU?$char_traits@D@std@@@std@@@8 000000014011f5a0     FileUtils.obj
 0004:0002e600       ??_R0?AV?$basic_stringstream@DU?$char_traits@D@std@@V?$allocator@D@2@@std@@@8 000000014011f600     FileUtils.obj
 0004:0002e670       ??_R0?AV?$basic_iostream@DU?$char_traits@D@std@@@std@@@8 000000014011f670     FileUtils.obj
 0004:0002e6c0       ??_R0?AV?$basic_istream@DU?$char_traits@D@std@@@std@@@8 000000014011f6c0     FileUtils.obj
 0004:0002e710       ??_R0?AV?$basic_ios@DU?$char_traits@D@std@@@std@@@8 000000014011f710     FileUtils.obj
 0004:0002e760       ??_R0?AVios_base@std@@@8   000000014011f760     FileUtils.obj
 0004:0002e790       ??_R0?AV?$_Iosb@H@std@@@8  000000014011f790     FileUtils.obj
 0004:0002e7c0       ??_R0?AV?$basic_ostream@DU?$char_traits@D@std@@@std@@@8 000000014011f7c0     FileUtils.obj
 0004:0002e810       ??_R0?AV?$basic_filebuf@DU?$char_traits@D@std@@@std@@@8 000000014011f810     FileUtils.obj
 0004:0002e860       ??_R0?AV?$basic_ifstream@DU?$char_traits@D@std@@@std@@@8 000000014011f860     FileUtils.obj
 0004:0002e8b0       ??_R0?AV_Ref_count_base@std@@@8 000000014011f8b0     Game.obj
 0004:0002e8e8       ??_R0?AV?$_Ref_count_obj2@VChunk@@@std@@@8 000000014011f8e8     Game.obj
 0004:0002e928       ??_R0?AV?$_Ref_count_obj2@VShaderProgram@@@std@@@8 000000014011f928     ShaderManager.obj
 0004:0002e978       ??_R0?AV?$_Ref_count_obj2@VTexture2DArray@@@std@@@8 000000014011f978     TextureManager.obj
 0004:0002e9c8       ??_R0?AVtype_info@@@8      000000014011f9c8     MSVCRTD:std_type_info_static.obj
 0004:0002eb10       GLVersion                  000000014011fb10     glad.obj
 0004:0002eb18       GLAD_GL_VERSION_1_0        000000014011fb18     glad.obj
 0004:0002eb1c       GLAD_GL_VERSION_1_1        000000014011fb1c     glad.obj
 0004:0002eb20       glad_glCullFace            000000014011fb20     glad.obj
 0004:0002eb28       glad_glFrontFace           000000014011fb28     glad.obj
 0004:0002eb30       glad_glHint                000000014011fb30     glad.obj
 0004:0002eb38       glad_glLineWidth           000000014011fb38     glad.obj
 0004:0002eb40       glad_glPointSize           000000014011fb40     glad.obj
 0004:0002eb48       glad_glPolygonMode         000000014011fb48     glad.obj
 0004:0002eb50       glad_glScissor             000000014011fb50     glad.obj
 0004:0002eb58       glad_glTexParameterf       000000014011fb58     glad.obj
 0004:0002eb60       glad_glTexParameterfv      000000014011fb60     glad.obj
 0004:0002eb68       glad_glTexParameteri       000000014011fb68     glad.obj
 0004:0002eb70       glad_glTexParameteriv      000000014011fb70     glad.obj
 0004:0002eb78       glad_glTexImage1D          000000014011fb78     glad.obj
 0004:0002eb80       glad_glTexImage2D          000000014011fb80     glad.obj
 0004:0002eb88       glad_glDrawBuffer          000000014011fb88     glad.obj
 0004:0002eb90       glad_glClear               000000014011fb90     glad.obj
 0004:0002eb98       glad_glClearColor          000000014011fb98     glad.obj
 0004:0002eba0       glad_glClearStencil        000000014011fba0     glad.obj
 0004:0002eba8       glad_glClearDepth          000000014011fba8     glad.obj
 0004:0002ebb0       glad_glStencilMask         000000014011fbb0     glad.obj
 0004:0002ebb8       glad_glColorMask           000000014011fbb8     glad.obj
 0004:0002ebc0       glad_glDepthMask           000000014011fbc0     glad.obj
 0004:0002ebc8       glad_glDisable             000000014011fbc8     glad.obj
 0004:0002ebd0       glad_glEnable              000000014011fbd0     glad.obj
 0004:0002ebd8       glad_glFinish              000000014011fbd8     glad.obj
 0004:0002ebe0       glad_glFlush               000000014011fbe0     glad.obj
 0004:0002ebe8       glad_glBlendFunc           000000014011fbe8     glad.obj
 0004:0002ebf0       glad_glLogicOp             000000014011fbf0     glad.obj
 0004:0002ebf8       glad_glStencilFunc         000000014011fbf8     glad.obj
 0004:0002ec00       glad_glStencilOp           000000014011fc00     glad.obj
 0004:0002ec08       glad_glDepthFunc           000000014011fc08     glad.obj
 0004:0002ec10       glad_glPixelStoref         000000014011fc10     glad.obj
 0004:0002ec18       glad_glPixelStorei         000000014011fc18     glad.obj
 0004:0002ec20       glad_glReadBuffer          000000014011fc20     glad.obj
 0004:0002ec28       glad_glReadPixels          000000014011fc28     glad.obj
 0004:0002ec30       glad_glGetBooleanv         000000014011fc30     glad.obj
 0004:0002ec38       glad_glGetDoublev          000000014011fc38     glad.obj
 0004:0002ec40       glad_glGetError            000000014011fc40     glad.obj
 0004:0002ec48       glad_glGetFloatv           000000014011fc48     glad.obj
 0004:0002ec50       glad_glGetIntegerv         000000014011fc50     glad.obj
 0004:0002ec58       glad_glGetString           000000014011fc58     glad.obj
 0004:0002ec60       glad_glGetTexImage         000000014011fc60     glad.obj
 0004:0002ec68       glad_glGetTexParameterfv   000000014011fc68     glad.obj
 0004:0002ec70       glad_glGetTexParameteriv   000000014011fc70     glad.obj
 0004:0002ec78       glad_glGetTexLevelParameterfv 000000014011fc78     glad.obj
 0004:0002ec80       glad_glGetTexLevelParameteriv 000000014011fc80     glad.obj
 0004:0002ec88       glad_glIsEnabled           000000014011fc88     glad.obj
 0004:0002ec90       glad_glDepthRange          000000014011fc90     glad.obj
 0004:0002ec98       glad_glViewport            000000014011fc98     glad.obj
 0004:0002eca0       glad_glNewList             000000014011fca0     glad.obj
 0004:0002eca8       glad_glEndList             000000014011fca8     glad.obj
 0004:0002ecb0       glad_glCallList            000000014011fcb0     glad.obj
 0004:0002ecb8       glad_glCallLists           000000014011fcb8     glad.obj
 0004:0002ecc0       glad_glDeleteLists         000000014011fcc0     glad.obj
 0004:0002ecc8       glad_glGenLists            000000014011fcc8     glad.obj
 0004:0002ecd0       glad_glListBase            000000014011fcd0     glad.obj
 0004:0002ecd8       glad_glBegin               000000014011fcd8     glad.obj
 0004:0002ece0       glad_glBitmap              000000014011fce0     glad.obj
 0004:0002ece8       glad_glColor3b             000000014011fce8     glad.obj
 0004:0002ecf0       glad_glColor3bv            000000014011fcf0     glad.obj
 0004:0002ecf8       glad_glColor3d             000000014011fcf8     glad.obj
 0004:0002ed00       glad_glColor3dv            000000014011fd00     glad.obj
 0004:0002ed08       glad_glColor3f             000000014011fd08     glad.obj
 0004:0002ed10       glad_glColor3fv            000000014011fd10     glad.obj
 0004:0002ed18       glad_glColor3i             000000014011fd18     glad.obj
 0004:0002ed20       glad_glColor3iv            000000014011fd20     glad.obj
 0004:0002ed28       glad_glColor3s             000000014011fd28     glad.obj
 0004:0002ed30       glad_glColor3sv            000000014011fd30     glad.obj
 0004:0002ed38       glad_glColor3ub            000000014011fd38     glad.obj
 0004:0002ed40       glad_glColor3ubv           000000014011fd40     glad.obj
 0004:0002ed48       glad_glColor3ui            000000014011fd48     glad.obj
 0004:0002ed50       glad_glColor3uiv           000000014011fd50     glad.obj
 0004:0002ed58       glad_glColor3us            000000014011fd58     glad.obj
 0004:0002ed60       glad_glColor3usv           000000014011fd60     glad.obj
 0004:0002ed68       glad_glColor4b             000000014011fd68     glad.obj
 0004:0002ed70       glad_glColor4bv            000000014011fd70     glad.obj
 0004:0002ed78       glad_glColor4d             000000014011fd78     glad.obj
 0004:0002ed80       glad_glColor4dv            000000014011fd80     glad.obj
 0004:0002ed88       glad_glColor4f             000000014011fd88     glad.obj
 0004:0002ed90       glad_glColor4fv            000000014011fd90     glad.obj
 0004:0002ed98       glad_glColor4i             000000014011fd98     glad.obj
 0004:0002eda0       glad_glColor4iv            000000014011fda0     glad.obj
 0004:0002eda8       glad_glColor4s             000000014011fda8     glad.obj
 0004:0002edb0       glad_glColor4sv            000000014011fdb0     glad.obj
 0004:0002edb8       glad_glColor4ub            000000014011fdb8     glad.obj
 0004:0002edc0       glad_glColor4ubv           000000014011fdc0     glad.obj
 0004:0002edc8       glad_glColor4ui            000000014011fdc8     glad.obj
 0004:0002edd0       glad_glColor4uiv           000000014011fdd0     glad.obj
 0004:0002edd8       glad_glColor4us            000000014011fdd8     glad.obj
 0004:0002ede0       glad_glColor4usv           000000014011fde0     glad.obj
 0004:0002ede8       glad_glEdgeFlag            000000014011fde8     glad.obj
 0004:0002edf0       glad_glEdgeFlagv           000000014011fdf0     glad.obj
 0004:0002edf8       glad_glEnd                 000000014011fdf8     glad.obj
 0004:0002ee00       glad_glIndexd              000000014011fe00     glad.obj
 0004:0002ee08       glad_glIndexdv             000000014011fe08     glad.obj
 0004:0002ee10       glad_glIndexf              000000014011fe10     glad.obj
 0004:0002ee18       glad_glIndexfv             000000014011fe18     glad.obj
 0004:0002ee20       glad_glIndexi              000000014011fe20     glad.obj
 0004:0002ee28       glad_glIndexiv             000000014011fe28     glad.obj
 0004:0002ee30       glad_glIndexs              000000014011fe30     glad.obj
 0004:0002ee38       glad_glIndexsv             000000014011fe38     glad.obj
 0004:0002ee40       glad_glNormal3b            000000014011fe40     glad.obj
 0004:0002ee48       glad_glNormal3bv           000000014011fe48     glad.obj
 0004:0002ee50       glad_glNormal3d            000000014011fe50     glad.obj
 0004:0002ee58       glad_glNormal3dv           000000014011fe58     glad.obj
 0004:0002ee60       glad_glNormal3f            000000014011fe60     glad.obj
 0004:0002ee68       glad_glNormal3fv           000000014011fe68     glad.obj
 0004:0002ee70       glad_glNormal3i            000000014011fe70     glad.obj
 0004:0002ee78       glad_glNormal3iv           000000014011fe78     glad.obj
 0004:0002ee80       glad_glNormal3s            000000014011fe80     glad.obj
 0004:0002ee88       glad_glNormal3sv           000000014011fe88     glad.obj
 0004:0002ee90       glad_glRasterPos2d         000000014011fe90     glad.obj
 0004:0002ee98       glad_glRasterPos2dv        000000014011fe98     glad.obj
 0004:0002eea0       glad_glRasterPos2f         000000014011fea0     glad.obj
 0004:0002eea8       glad_glRasterPos2fv        000000014011fea8     glad.obj
 0004:0002eeb0       glad_glRasterPos2i         000000014011feb0     glad.obj
 0004:0002eeb8       glad_glRasterPos2iv        000000014011feb8     glad.obj
 0004:0002eec0       glad_glRasterPos2s         000000014011fec0     glad.obj
 0004:0002eec8       glad_glRasterPos2sv        000000014011fec8     glad.obj
 0004:0002eed0       glad_glRasterPos3d         000000014011fed0     glad.obj
 0004:0002eed8       glad_glRasterPos3dv        000000014011fed8     glad.obj
 0004:0002eee0       glad_glRasterPos3f         000000014011fee0     glad.obj
 0004:0002eee8       glad_glRasterPos3fv        000000014011fee8     glad.obj
 0004:0002eef0       glad_glRasterPos3i         000000014011fef0     glad.obj
 0004:0002eef8       glad_glRasterPos3iv        000000014011fef8     glad.obj
 0004:0002ef00       glad_glRasterPos3s         000000014011ff00     glad.obj
 0004:0002ef08       glad_glRasterPos3sv        000000014011ff08     glad.obj
 0004:0002ef10       glad_glRasterPos4d         000000014011ff10     glad.obj
 0004:0002ef18       glad_glRasterPos4dv        000000014011ff18     glad.obj
 0004:0002ef20       glad_glRasterPos4f         000000014011ff20     glad.obj
 0004:0002ef28       glad_glRasterPos4fv        000000014011ff28     glad.obj
 0004:0002ef30       glad_glRasterPos4i         000000014011ff30     glad.obj
 0004:0002ef38       glad_glRasterPos4iv        000000014011ff38     glad.obj
 0004:0002ef40       glad_glRasterPos4s         000000014011ff40     glad.obj
 0004:0002ef48       glad_glRasterPos4sv        000000014011ff48     glad.obj
 0004:0002ef50       glad_glRectd               000000014011ff50     glad.obj
 0004:0002ef58       glad_glRectdv              000000014011ff58     glad.obj
 0004:0002ef60       glad_glRectf               000000014011ff60     glad.obj
 0004:0002ef68       glad_glRectfv              000000014011ff68     glad.obj
 0004:0002ef70       glad_glRecti               000000014011ff70     glad.obj
 0004:0002ef78       glad_glRectiv              000000014011ff78     glad.obj
 0004:0002ef80       glad_glRects               000000014011ff80     glad.obj
 0004:0002ef88       glad_glRectsv              000000014011ff88     glad.obj
 0004:0002ef90       glad_glTexCoord1d          000000014011ff90     glad.obj
 0004:0002ef98       glad_glTexCoord1dv         000000014011ff98     glad.obj
 0004:0002efa0       glad_glTexCoord1f          000000014011ffa0     glad.obj
 0004:0002efa8       glad_glTexCoord1fv         000000014011ffa8     glad.obj
 0004:0002efb0       glad_glTexCoord1i          000000014011ffb0     glad.obj
 0004:0002efb8       glad_glTexCoord1iv         000000014011ffb8     glad.obj
 0004:0002efc0       glad_glTexCoord1s          000000014011ffc0     glad.obj
 0004:0002efc8       glad_glTexCoord1sv         000000014011ffc8     glad.obj
 0004:0002efd0       glad_glTexCoord2d          000000014011ffd0     glad.obj
 0004:0002efd8       glad_glTexCoord2dv         000000014011ffd8     glad.obj
 0004:0002efe0       glad_glTexCoord2f          000000014011ffe0     glad.obj
 0004:0002efe8       glad_glTexCoord2fv         000000014011ffe8     glad.obj
 0004:0002eff0       glad_glTexCoord2i          000000014011fff0     glad.obj
 0004:0002eff8       glad_glTexCoord2iv         000000014011fff8     glad.obj
 0004:0002f000       glad_glTexCoord2s          0000000140120000     glad.obj
 0004:0002f008       glad_glTexCoord2sv         0000000140120008     glad.obj
 0004:0002f010       glad_glTexCoord3d          0000000140120010     glad.obj
 0004:0002f018       glad_glTexCoord3dv         0000000140120018     glad.obj
 0004:0002f020       glad_glTexCoord3f          0000000140120020     glad.obj
 0004:0002f028       glad_glTexCoord3fv         0000000140120028     glad.obj
 0004:0002f030       glad_glTexCoord3i          0000000140120030     glad.obj
 0004:0002f038       glad_glTexCoord3iv         0000000140120038     glad.obj
 0004:0002f040       glad_glTexCoord3s          0000000140120040     glad.obj
 0004:0002f048       glad_glTexCoord3sv         0000000140120048     glad.obj
 0004:0002f050       glad_glTexCoord4d          0000000140120050     glad.obj
 0004:0002f058       glad_glTexCoord4dv         0000000140120058     glad.obj
 0004:0002f060       glad_glTexCoord4f          0000000140120060     glad.obj
 0004:0002f068       glad_glTexCoord4fv         0000000140120068     glad.obj
 0004:0002f070       glad_glTexCoord4i          0000000140120070     glad.obj
 0004:0002f078       glad_glTexCoord4iv         0000000140120078     glad.obj
 0004:0002f080       glad_glTexCoord4s          0000000140120080     glad.obj
 0004:0002f088       glad_glTexCoord4sv         0000000140120088     glad.obj
 0004:0002f090       glad_glVertex2d            0000000140120090     glad.obj
 0004:0002f098       glad_glVertex2dv           0000000140120098     glad.obj
 0004:0002f0a0       glad_glVertex2f            00000001401200a0     glad.obj
 0004:0002f0a8       glad_glVertex2fv           00000001401200a8     glad.obj
 0004:0002f0b0       glad_glVertex2i            00000001401200b0     glad.obj
 0004:0002f0b8       glad_glVertex2iv           00000001401200b8     glad.obj
 0004:0002f0c0       glad_glVertex2s            00000001401200c0     glad.obj
 0004:0002f0c8       glad_glVertex2sv           00000001401200c8     glad.obj
 0004:0002f0d0       glad_glVertex3d            00000001401200d0     glad.obj
 0004:0002f0d8       glad_glVertex3dv           00000001401200d8     glad.obj
 0004:0002f0e0       glad_glVertex3f            00000001401200e0     glad.obj
 0004:0002f0e8       glad_glVertex3fv           00000001401200e8     glad.obj
 0004:0002f0f0       glad_glVertex3i            00000001401200f0     glad.obj
 0004:0002f0f8       glad_glVertex3iv           00000001401200f8     glad.obj
 0004:0002f100       glad_glVertex3s            0000000140120100     glad.obj
 0004:0002f108       glad_glVertex3sv           0000000140120108     glad.obj
 0004:0002f110       glad_glVertex4d            0000000140120110     glad.obj
 0004:0002f118       glad_glVertex4dv           0000000140120118     glad.obj
 0004:0002f120       glad_glVertex4f            0000000140120120     glad.obj
 0004:0002f128       glad_glVertex4fv           0000000140120128     glad.obj
 0004:0002f130       glad_glVertex4i            0000000140120130     glad.obj
 0004:0002f138       glad_glVertex4iv           0000000140120138     glad.obj
 0004:0002f140       glad_glVertex4s            0000000140120140     glad.obj
 0004:0002f148       glad_glVertex4sv           0000000140120148     glad.obj
 0004:0002f150       glad_glClipPlane           0000000140120150     glad.obj
 0004:0002f158       glad_glColorMaterial       0000000140120158     glad.obj
 0004:0002f160       glad_glFogf                0000000140120160     glad.obj
 0004:0002f168       glad_glFogfv               0000000140120168     glad.obj
 0004:0002f170       glad_glFogi                0000000140120170     glad.obj
 0004:0002f178       glad_glFogiv               0000000140120178     glad.obj
 0004:0002f180       glad_glLightf              0000000140120180     glad.obj
 0004:0002f188       glad_glLightfv             0000000140120188     glad.obj
 0004:0002f190       glad_glLighti              0000000140120190     glad.obj
 0004:0002f198       glad_glLightiv             0000000140120198     glad.obj
 0004:0002f1a0       glad_glLightModelf         00000001401201a0     glad.obj
 0004:0002f1a8       glad_glLightModelfv        00000001401201a8     glad.obj
 0004:0002f1b0       glad_glLightModeli         00000001401201b0     glad.obj
 0004:0002f1b8       glad_glLightModeliv        00000001401201b8     glad.obj
 0004:0002f1c0       glad_glLineStipple         00000001401201c0     glad.obj
 0004:0002f1c8       glad_glMaterialf           00000001401201c8     glad.obj
 0004:0002f1d0       glad_glMaterialfv          00000001401201d0     glad.obj
 0004:0002f1d8       glad_glMateriali           00000001401201d8     glad.obj
 0004:0002f1e0       glad_glMaterialiv          00000001401201e0     glad.obj
 0004:0002f1e8       glad_glPolygonStipple      00000001401201e8     glad.obj
 0004:0002f1f0       glad_glShadeModel          00000001401201f0     glad.obj
 0004:0002f1f8       glad_glTexEnvf             00000001401201f8     glad.obj
 0004:0002f200       glad_glTexEnvfv            0000000140120200     glad.obj
 0004:0002f208       glad_glTexEnvi             0000000140120208     glad.obj
 0004:0002f210       glad_glTexEnviv            0000000140120210     glad.obj
 0004:0002f218       glad_glTexGend             0000000140120218     glad.obj
 0004:0002f220       glad_glTexGendv            0000000140120220     glad.obj
 0004:0002f228       glad_glTexGenf             0000000140120228     glad.obj
 0004:0002f230       glad_glTexGenfv            0000000140120230     glad.obj
 0004:0002f238       glad_glTexGeni             0000000140120238     glad.obj
 0004:0002f240       glad_glTexGeniv            0000000140120240     glad.obj
 0004:0002f248       glad_glFeedbackBuffer      0000000140120248     glad.obj
 0004:0002f250       glad_glSelectBuffer        0000000140120250     glad.obj
 0004:0002f258       glad_glRenderMode          0000000140120258     glad.obj
 0004:0002f260       glad_glInitNames           0000000140120260     glad.obj
 0004:0002f268       glad_glLoadName            0000000140120268     glad.obj
 0004:0002f270       glad_glPassThrough         0000000140120270     glad.obj
 0004:0002f278       glad_glPopName             0000000140120278     glad.obj
 0004:0002f280       glad_glPushName            0000000140120280     glad.obj
 0004:0002f288       glad_glClearAccum          0000000140120288     glad.obj
 0004:0002f290       glad_glClearIndex          0000000140120290     glad.obj
 0004:0002f298       glad_glIndexMask           0000000140120298     glad.obj
 0004:0002f2a0       glad_glAccum               00000001401202a0     glad.obj
 0004:0002f2a8       glad_glPopAttrib           00000001401202a8     glad.obj
 0004:0002f2b0       glad_glPushAttrib          00000001401202b0     glad.obj
 0004:0002f2b8       glad_glMap1d               00000001401202b8     glad.obj
 0004:0002f2c0       glad_glMap1f               00000001401202c0     glad.obj
 0004:0002f2c8       glad_glMap2d               00000001401202c8     glad.obj
 0004:0002f2d0       glad_glMap2f               00000001401202d0     glad.obj
 0004:0002f2d8       glad_glMapGrid1d           00000001401202d8     glad.obj
 0004:0002f2e0       glad_glMapGrid1f           00000001401202e0     glad.obj
 0004:0002f2e8       glad_glMapGrid2d           00000001401202e8     glad.obj
 0004:0002f2f0       glad_glMapGrid2f           00000001401202f0     glad.obj
 0004:0002f2f8       glad_glEvalCoord1d         00000001401202f8     glad.obj
 0004:0002f300       glad_glEvalCoord1dv        0000000140120300     glad.obj
 0004:0002f308       glad_glEvalCoord1f         0000000140120308     glad.obj
 0004:0002f310       glad_glEvalCoord1fv        0000000140120310     glad.obj
 0004:0002f318       glad_glEvalCoord2d         0000000140120318     glad.obj
 0004:0002f320       glad_glEvalCoord2dv        0000000140120320     glad.obj
 0004:0002f328       glad_glEvalCoord2f         0000000140120328     glad.obj
 0004:0002f330       glad_glEvalCoord2fv        0000000140120330     glad.obj
 0004:0002f338       glad_glEvalMesh1           0000000140120338     glad.obj
 0004:0002f340       glad_glEvalPoint1          0000000140120340     glad.obj
 0004:0002f348       glad_glEvalMesh2           0000000140120348     glad.obj
 0004:0002f350       glad_glEvalPoint2          0000000140120350     glad.obj
 0004:0002f358       glad_glAlphaFunc           0000000140120358     glad.obj
 0004:0002f360       glad_glPixelZoom           0000000140120360     glad.obj
 0004:0002f368       glad_glPixelTransferf      0000000140120368     glad.obj
 0004:0002f370       glad_glPixelTransferi      0000000140120370     glad.obj
 0004:0002f378       glad_glPixelMapfv          0000000140120378     glad.obj
 0004:0002f380       glad_glPixelMapuiv         0000000140120380     glad.obj
 0004:0002f388       glad_glPixelMapusv         0000000140120388     glad.obj
 0004:0002f390       glad_glCopyPixels          0000000140120390     glad.obj
 0004:0002f398       glad_glDrawPixels          0000000140120398     glad.obj
 0004:0002f3a0       glad_glGetClipPlane        00000001401203a0     glad.obj
 0004:0002f3a8       glad_glGetLightfv          00000001401203a8     glad.obj
 0004:0002f3b0       glad_glGetLightiv          00000001401203b0     glad.obj
 0004:0002f3b8       glad_glGetMapdv            00000001401203b8     glad.obj
 0004:0002f3c0       glad_glGetMapfv            00000001401203c0     glad.obj
 0004:0002f3c8       glad_glGetMapiv            00000001401203c8     glad.obj
 0004:0002f3d0       glad_glGetMaterialfv       00000001401203d0     glad.obj
 0004:0002f3d8       glad_glGetMaterialiv       00000001401203d8     glad.obj
 0004:0002f3e0       glad_glGetPixelMapfv       00000001401203e0     glad.obj
 0004:0002f3e8       glad_glGetPixelMapuiv      00000001401203e8     glad.obj
 0004:0002f3f0       glad_glGetPixelMapusv      00000001401203f0     glad.obj
 0004:0002f3f8       glad_glGetPolygonStipple   00000001401203f8     glad.obj
 0004:0002f400       glad_glGetTexEnvfv         0000000140120400     glad.obj
 0004:0002f408       glad_glGetTexEnviv         0000000140120408     glad.obj
 0004:0002f410       glad_glGetTexGendv         0000000140120410     glad.obj
 0004:0002f418       glad_glGetTexGenfv         0000000140120418     glad.obj
 0004:0002f420       glad_glGetTexGeniv         0000000140120420     glad.obj
 0004:0002f428       glad_glIsList              0000000140120428     glad.obj
 0004:0002f430       glad_glFrustum             0000000140120430     glad.obj
 0004:0002f438       glad_glLoadIdentity        0000000140120438     glad.obj
 0004:0002f440       glad_glLoadMatrixf         0000000140120440     glad.obj
 0004:0002f448       glad_glLoadMatrixd         0000000140120448     glad.obj
 0004:0002f450       glad_glMatrixMode          0000000140120450     glad.obj
 0004:0002f458       glad_glMultMatrixf         0000000140120458     glad.obj
 0004:0002f460       glad_glMultMatrixd         0000000140120460     glad.obj
 0004:0002f468       glad_glOrtho               0000000140120468     glad.obj
 0004:0002f470       glad_glPopMatrix           0000000140120470     glad.obj
 0004:0002f478       glad_glPushMatrix          0000000140120478     glad.obj
 0004:0002f480       glad_glRotated             0000000140120480     glad.obj
 0004:0002f488       glad_glRotatef             0000000140120488     glad.obj
 0004:0002f490       glad_glScaled              0000000140120490     glad.obj
 0004:0002f498       glad_glScalef              0000000140120498     glad.obj
 0004:0002f4a0       glad_glTranslated          00000001401204a0     glad.obj
 0004:0002f4a8       glad_glTranslatef          00000001401204a8     glad.obj
 0004:0002f4b0       glad_glDrawArrays          00000001401204b0     glad.obj
 0004:0002f4b8       glad_glDrawElements        00000001401204b8     glad.obj
 0004:0002f4c0       glad_glGetPointerv         00000001401204c0     glad.obj
 0004:0002f4c8       glad_glPolygonOffset       00000001401204c8     glad.obj
 0004:0002f4d0       glad_glCopyTexImage1D      00000001401204d0     glad.obj
 0004:0002f4d8       glad_glCopyTexImage2D      00000001401204d8     glad.obj
 0004:0002f4e0       glad_glCopyTexSubImage1D   00000001401204e0     glad.obj
 0004:0002f4e8       glad_glCopyTexSubImage2D   00000001401204e8     glad.obj
 0004:0002f4f0       glad_glTexSubImage1D       00000001401204f0     glad.obj
 0004:0002f4f8       glad_glTexSubImage2D       00000001401204f8     glad.obj
 0004:0002f500       glad_glBindTexture         0000000140120500     glad.obj
 0004:0002f508       glad_glDeleteTextures      0000000140120508     glad.obj
 0004:0002f510       glad_glGenTextures         0000000140120510     glad.obj
 0004:0002f518       glad_glIsTexture           0000000140120518     glad.obj
 0004:0002f520       glad_glArrayElement        0000000140120520     glad.obj
 0004:0002f528       glad_glColorPointer        0000000140120528     glad.obj
 0004:0002f530       glad_glDisableClientState  0000000140120530     glad.obj
 0004:0002f538       glad_glEdgeFlagPointer     0000000140120538     glad.obj
 0004:0002f540       glad_glEnableClientState   0000000140120540     glad.obj
 0004:0002f548       glad_glIndexPointer        0000000140120548     glad.obj
 0004:0002f550       glad_glInterleavedArrays   0000000140120550     glad.obj
 0004:0002f558       glad_glNormalPointer       0000000140120558     glad.obj
 0004:0002f560       glad_glTexCoordPointer     0000000140120560     glad.obj
 0004:0002f568       glad_glVertexPointer       0000000140120568     glad.obj
 0004:0002f570       glad_glAreTexturesResident 0000000140120570     glad.obj
 0004:0002f578       glad_glPrioritizeTextures  0000000140120578     glad.obj
 0004:0002f580       glad_glIndexub             0000000140120580     glad.obj
 0004:0002f588       glad_glIndexubv            0000000140120588     glad.obj
 0004:0002f590       glad_glPopClientAttrib     0000000140120590     glad.obj
 0004:0002f598       glad_glPushClientAttrib    0000000140120598     glad.obj
 0004:0002f5a0       GLAD_GL_VERSION_1_2        00000001401205a0     glad.obj
 0004:0002f5a4       GLAD_GL_VERSION_1_3        00000001401205a4     glad.obj
 0004:0002f5a8       glad_glDrawRangeElements   00000001401205a8     glad.obj
 0004:0002f5b0       glad_glTexImage3D          00000001401205b0     glad.obj
 0004:0002f5b8       glad_glTexSubImage3D       00000001401205b8     glad.obj
 0004:0002f5c0       glad_glCopyTexSubImage3D   00000001401205c0     glad.obj
 0004:0002f5c8       glad_glActiveTexture       00000001401205c8     glad.obj
 0004:0002f5d0       glad_glSampleCoverage      00000001401205d0     glad.obj
 0004:0002f5d8       glad_glCompressedTexImage3D 00000001401205d8     glad.obj
 0004:0002f5e0       glad_glCompressedTexImage2D 00000001401205e0     glad.obj
 0004:0002f5e8       glad_glCompressedTexImage1D 00000001401205e8     glad.obj
 0004:0002f5f0       glad_glCompressedTexSubImage3D 00000001401205f0     glad.obj
 0004:0002f5f8       glad_glCompressedTexSubImage2D 00000001401205f8     glad.obj
 0004:0002f600       glad_glCompressedTexSubImage1D 0000000140120600     glad.obj
 0004:0002f608       glad_glGetCompressedTexImage 0000000140120608     glad.obj
 0004:0002f610       glad_glClientActiveTexture 0000000140120610     glad.obj
 0004:0002f618       glad_glMultiTexCoord1d     0000000140120618     glad.obj
 0004:0002f620       glad_glMultiTexCoord1dv    0000000140120620     glad.obj
 0004:0002f628       glad_glMultiTexCoord1f     0000000140120628     glad.obj
 0004:0002f630       glad_glMultiTexCoord1fv    0000000140120630     glad.obj
 0004:0002f638       glad_glMultiTexCoord1i     0000000140120638     glad.obj
 0004:0002f640       glad_glMultiTexCoord1iv    0000000140120640     glad.obj
 0004:0002f648       glad_glMultiTexCoord1s     0000000140120648     glad.obj
 0004:0002f650       glad_glMultiTexCoord1sv    0000000140120650     glad.obj
 0004:0002f658       glad_glMultiTexCoord2d     0000000140120658     glad.obj
 0004:0002f660       glad_glMultiTexCoord2dv    0000000140120660     glad.obj
 0004:0002f668       glad_glMultiTexCoord2f     0000000140120668     glad.obj
 0004:0002f670       glad_glMultiTexCoord2fv    0000000140120670     glad.obj
 0004:0002f678       glad_glMultiTexCoord2i     0000000140120678     glad.obj
 0004:0002f680       glad_glMultiTexCoord2iv    0000000140120680     glad.obj
 0004:0002f688       glad_glMultiTexCoord2s     0000000140120688     glad.obj
 0004:0002f690       glad_glMultiTexCoord2sv    0000000140120690     glad.obj
 0004:0002f698       glad_glMultiTexCoord3d     0000000140120698     glad.obj
 0004:0002f6a0       glad_glMultiTexCoord3dv    00000001401206a0     glad.obj
 0004:0002f6a8       glad_glMultiTexCoord3f     00000001401206a8     glad.obj
 0004:0002f6b0       glad_glMultiTexCoord3fv    00000001401206b0     glad.obj
 0004:0002f6b8       glad_glMultiTexCoord3i     00000001401206b8     glad.obj
 0004:0002f6c0       glad_glMultiTexCoord3iv    00000001401206c0     glad.obj
 0004:0002f6c8       glad_glMultiTexCoord3s     00000001401206c8     glad.obj
 0004:0002f6d0       glad_glMultiTexCoord3sv    00000001401206d0     glad.obj
 0004:0002f6d8       glad_glMultiTexCoord4d     00000001401206d8     glad.obj
 0004:0002f6e0       glad_glMultiTexCoord4dv    00000001401206e0     glad.obj
 0004:0002f6e8       glad_glMultiTexCoord4f     00000001401206e8     glad.obj
 0004:0002f6f0       glad_glMultiTexCoord4fv    00000001401206f0     glad.obj
 0004:0002f6f8       glad_glMultiTexCoord4i     00000001401206f8     glad.obj
 0004:0002f700       glad_glMultiTexCoord4iv    0000000140120700     glad.obj
 0004:0002f708       glad_glMultiTexCoord4s     0000000140120708     glad.obj
 0004:0002f710       glad_glMultiTexCoord4sv    0000000140120710     glad.obj
 0004:0002f718       glad_glLoadTransposeMatrixf 0000000140120718     glad.obj
 0004:0002f720       glad_glLoadTransposeMatrixd 0000000140120720     glad.obj
 0004:0002f728       glad_glMultTransposeMatrixf 0000000140120728     glad.obj
 0004:0002f730       glad_glMultTransposeMatrixd 0000000140120730     glad.obj
 0004:0002f738       GLAD_GL_VERSION_1_4        0000000140120738     glad.obj
 0004:0002f73c       GLAD_GL_VERSION_1_5        000000014012073c     glad.obj
 0004:0002f740       glad_glBlendFuncSeparate   0000000140120740     glad.obj
 0004:0002f748       glad_glMultiDrawArrays     0000000140120748     glad.obj
 0004:0002f750       glad_glMultiDrawElements   0000000140120750     glad.obj
 0004:0002f758       glad_glPointParameterf     0000000140120758     glad.obj
 0004:0002f760       glad_glPointParameterfv    0000000140120760     glad.obj
 0004:0002f768       glad_glPointParameteri     0000000140120768     glad.obj
 0004:0002f770       glad_glPointParameteriv    0000000140120770     glad.obj
 0004:0002f778       glad_glFogCoordf           0000000140120778     glad.obj
 0004:0002f780       glad_glFogCoordfv          0000000140120780     glad.obj
 0004:0002f788       glad_glFogCoordd           0000000140120788     glad.obj
 0004:0002f790       glad_glFogCoorddv          0000000140120790     glad.obj
 0004:0002f798       glad_glFogCoordPointer     0000000140120798     glad.obj
 0004:0002f7a0       glad_glSecondaryColor3b    00000001401207a0     glad.obj
 0004:0002f7a8       glad_glSecondaryColor3bv   00000001401207a8     glad.obj
 0004:0002f7b0       glad_glSecondaryColor3d    00000001401207b0     glad.obj
 0004:0002f7b8       glad_glSecondaryColor3dv   00000001401207b8     glad.obj
 0004:0002f7c0       glad_glSecondaryColor3f    00000001401207c0     glad.obj
 0004:0002f7c8       glad_glSecondaryColor3fv   00000001401207c8     glad.obj
 0004:0002f7d0       glad_glSecondaryColor3i    00000001401207d0     glad.obj
 0004:0002f7d8       glad_glSecondaryColor3iv   00000001401207d8     glad.obj
 0004:0002f7e0       glad_glSecondaryColor3s    00000001401207e0     glad.obj
 0004:0002f7e8       glad_glSecondaryColor3sv   00000001401207e8     glad.obj
 0004:0002f7f0       glad_glSecondaryColor3ub   00000001401207f0     glad.obj
 0004:0002f7f8       glad_glSecondaryColor3ubv  00000001401207f8     glad.obj
 0004:0002f800       glad_glSecondaryColor3ui   0000000140120800     glad.obj
 0004:0002f808       glad_glSecondaryColor3uiv  0000000140120808     glad.obj
 0004:0002f810       glad_glSecondaryColor3us   0000000140120810     glad.obj
 0004:0002f818       glad_glSecondaryColor3usv  0000000140120818     glad.obj
 0004:0002f820       glad_glSecondaryColorPointer 0000000140120820     glad.obj
 0004:0002f828       glad_glWindowPos2d         0000000140120828     glad.obj
 0004:0002f830       glad_glWindowPos2dv        0000000140120830     glad.obj
 0004:0002f838       glad_glWindowPos2f         0000000140120838     glad.obj
 0004:0002f840       glad_glWindowPos2fv        0000000140120840     glad.obj
 0004:0002f848       glad_glWindowPos2i         0000000140120848     glad.obj
 0004:0002f850       glad_glWindowPos2iv        0000000140120850     glad.obj
 0004:0002f858       glad_glWindowPos2s         0000000140120858     glad.obj
 0004:0002f860       glad_glWindowPos2sv        0000000140120860     glad.obj
 0004:0002f868       glad_glWindowPos3d         0000000140120868     glad.obj
 0004:0002f870       glad_glWindowPos3dv        0000000140120870     glad.obj
 0004:0002f878       glad_glWindowPos3f         0000000140120878     glad.obj
 0004:0002f880       glad_glWindowPos3fv        0000000140120880     glad.obj
 0004:0002f888       glad_glWindowPos3i         0000000140120888     glad.obj
 0004:0002f890       glad_glWindowPos3iv        0000000140120890     glad.obj
 0004:0002f898       glad_glWindowPos3s         0000000140120898     glad.obj
 0004:0002f8a0       glad_glWindowPos3sv        00000001401208a0     glad.obj
 0004:0002f8a8       glad_glBlendColor          00000001401208a8     glad.obj
 0004:0002f8b0       glad_glBlendEquation       00000001401208b0     glad.obj
 0004:0002f8b8       glad_glGenQueries          00000001401208b8     glad.obj
 0004:0002f8c0       glad_glDeleteQueries       00000001401208c0     glad.obj
 0004:0002f8c8       glad_glIsQuery             00000001401208c8     glad.obj
 0004:0002f8d0       glad_glBeginQuery          00000001401208d0     glad.obj
 0004:0002f8d8       glad_glEndQuery            00000001401208d8     glad.obj
 0004:0002f8e0       glad_glGetQueryiv          00000001401208e0     glad.obj
 0004:0002f8e8       glad_glGetQueryObjectiv    00000001401208e8     glad.obj
 0004:0002f8f0       glad_glGetQueryObjectuiv   00000001401208f0     glad.obj
 0004:0002f8f8       glad_glBindBuffer          00000001401208f8     glad.obj
 0004:0002f900       glad_glDeleteBuffers       0000000140120900     glad.obj
 0004:0002f908       glad_glGenBuffers          0000000140120908     glad.obj
 0004:0002f910       glad_glIsBuffer            0000000140120910     glad.obj
 0004:0002f918       glad_glBufferData          0000000140120918     glad.obj
 0004:0002f920       glad_glBufferSubData       0000000140120920     glad.obj
 0004:0002f928       glad_glGetBufferSubData    0000000140120928     glad.obj
 0004:0002f930       glad_glMapBuffer           0000000140120930     glad.obj
 0004:0002f938       glad_glUnmapBuffer         0000000140120938     glad.obj
 0004:0002f940       glad_glGetBufferParameteriv 0000000140120940     glad.obj
 0004:0002f948       glad_glGetBufferPointerv   0000000140120948     glad.obj
 0004:0002f950       GLAD_GL_VERSION_2_0        0000000140120950     glad.obj
 0004:0002f954       GLAD_GL_VERSION_2_1        0000000140120954     glad.obj
 0004:0002f958       glad_glBlendEquationSeparate 0000000140120958     glad.obj
 0004:0002f960       glad_glDrawBuffers         0000000140120960     glad.obj
 0004:0002f968       glad_glStencilOpSeparate   0000000140120968     glad.obj
 0004:0002f970       glad_glStencilFuncSeparate 0000000140120970     glad.obj
 0004:0002f978       glad_glStencilMaskSeparate 0000000140120978     glad.obj
 0004:0002f980       glad_glAttachShader        0000000140120980     glad.obj
 0004:0002f988       glad_glBindAttribLocation  0000000140120988     glad.obj
 0004:0002f990       glad_glCompileShader       0000000140120990     glad.obj
 0004:0002f998       glad_glCreateProgram       0000000140120998     glad.obj
 0004:0002f9a0       glad_glCreateShader        00000001401209a0     glad.obj
 0004:0002f9a8       glad_glDeleteProgram       00000001401209a8     glad.obj
 0004:0002f9b0       glad_glDeleteShader        00000001401209b0     glad.obj
 0004:0002f9b8       glad_glDetachShader        00000001401209b8     glad.obj
 0004:0002f9c0       glad_glDisableVertexAttribArray 00000001401209c0     glad.obj
 0004:0002f9c8       glad_glEnableVertexAttribArray 00000001401209c8     glad.obj
 0004:0002f9d0       glad_glGetActiveAttrib     00000001401209d0     glad.obj
 0004:0002f9d8       glad_glGetActiveUniform    00000001401209d8     glad.obj
 0004:0002f9e0       glad_glGetAttachedShaders  00000001401209e0     glad.obj
 0004:0002f9e8       glad_glGetAttribLocation   00000001401209e8     glad.obj
 0004:0002f9f0       glad_glGetProgramiv        00000001401209f0     glad.obj
 0004:0002f9f8       glad_glGetProgramInfoLog   00000001401209f8     glad.obj
 0004:0002fa00       glad_glGetShaderiv         0000000140120a00     glad.obj
 0004:0002fa08       glad_glGetShaderInfoLog    0000000140120a08     glad.obj
 0004:0002fa10       glad_glGetShaderSource     0000000140120a10     glad.obj
 0004:0002fa18       glad_glGetUniformLocation  0000000140120a18     glad.obj
 0004:0002fa20       glad_glGetUniformfv        0000000140120a20     glad.obj
 0004:0002fa28       glad_glGetUniformiv        0000000140120a28     glad.obj
 0004:0002fa30       glad_glGetVertexAttribdv   0000000140120a30     glad.obj
 0004:0002fa38       glad_glGetVertexAttribfv   0000000140120a38     glad.obj
 0004:0002fa40       glad_glGetVertexAttribiv   0000000140120a40     glad.obj
 0004:0002fa48       glad_glGetVertexAttribPointerv 0000000140120a48     glad.obj
 0004:0002fa50       glad_glIsProgram           0000000140120a50     glad.obj
 0004:0002fa58       glad_glIsShader            0000000140120a58     glad.obj
 0004:0002fa60       glad_glLinkProgram         0000000140120a60     glad.obj
 0004:0002fa68       glad_glShaderSource        0000000140120a68     glad.obj
 0004:0002fa70       glad_glUseProgram          0000000140120a70     glad.obj
 0004:0002fa78       glad_glUniform1f           0000000140120a78     glad.obj
 0004:0002fa80       glad_glUniform2f           0000000140120a80     glad.obj
 0004:0002fa88       glad_glUniform3f           0000000140120a88     glad.obj
 0004:0002fa90       glad_glUniform4f           0000000140120a90     glad.obj
 0004:0002fa98       glad_glUniform1i           0000000140120a98     glad.obj
 0004:0002faa0       glad_glUniform2i           0000000140120aa0     glad.obj
 0004:0002faa8       glad_glUniform3i           0000000140120aa8     glad.obj
 0004:0002fab0       glad_glUniform4i           0000000140120ab0     glad.obj
 0004:0002fab8       glad_glUniform1fv          0000000140120ab8     glad.obj
 0004:0002fac0       glad_glUniform2fv          0000000140120ac0     glad.obj
 0004:0002fac8       glad_glUniform3fv          0000000140120ac8     glad.obj
 0004:0002fad0       glad_glUniform4fv          0000000140120ad0     glad.obj
 0004:0002fad8       glad_glUniform1iv          0000000140120ad8     glad.obj
 0004:0002fae0       glad_glUniform2iv          0000000140120ae0     glad.obj
 0004:0002fae8       glad_glUniform3iv          0000000140120ae8     glad.obj
 0004:0002faf0       glad_glUniform4iv          0000000140120af0     glad.obj
 0004:0002faf8       glad_glUniformMatrix2fv    0000000140120af8     glad.obj
 0004:0002fb00       glad_glUniformMatrix3fv    0000000140120b00     glad.obj
 0004:0002fb08       glad_glUniformMatrix4fv    0000000140120b08     glad.obj
 0004:0002fb10       glad_glValidateProgram     0000000140120b10     glad.obj
 0004:0002fb18       glad_glVertexAttrib1d      0000000140120b18     glad.obj
 0004:0002fb20       glad_glVertexAttrib1dv     0000000140120b20     glad.obj
 0004:0002fb28       glad_glVertexAttrib1f      0000000140120b28     glad.obj
 0004:0002fb30       glad_glVertexAttrib1fv     0000000140120b30     glad.obj
 0004:0002fb38       glad_glVertexAttrib1s      0000000140120b38     glad.obj
 0004:0002fb40       glad_glVertexAttrib1sv     0000000140120b40     glad.obj
 0004:0002fb48       glad_glVertexAttrib2d      0000000140120b48     glad.obj
 0004:0002fb50       glad_glVertexAttrib2dv     0000000140120b50     glad.obj
 0004:0002fb58       glad_glVertexAttrib2f      0000000140120b58     glad.obj
 0004:0002fb60       glad_glVertexAttrib2fv     0000000140120b60     glad.obj
 0004:0002fb68       glad_glVertexAttrib2s      0000000140120b68     glad.obj
 0004:0002fb70       glad_glVertexAttrib2sv     0000000140120b70     glad.obj
 0004:0002fb78       glad_glVertexAttrib3d      0000000140120b78     glad.obj
 0004:0002fb80       glad_glVertexAttrib3dv     0000000140120b80     glad.obj
 0004:0002fb88       glad_glVertexAttrib3f      0000000140120b88     glad.obj
 0004:0002fb90       glad_glVertexAttrib3fv     0000000140120b90     glad.obj
 0004:0002fb98       glad_glVertexAttrib3s      0000000140120b98     glad.obj
 0004:0002fba0       glad_glVertexAttrib3sv     0000000140120ba0     glad.obj
 0004:0002fba8       glad_glVertexAttrib4Nbv    0000000140120ba8     glad.obj
 0004:0002fbb0       glad_glVertexAttrib4Niv    0000000140120bb0     glad.obj
 0004:0002fbb8       glad_glVertexAttrib4Nsv    0000000140120bb8     glad.obj
 0004:0002fbc0       glad_glVertexAttrib4Nub    0000000140120bc0     glad.obj
 0004:0002fbc8       glad_glVertexAttrib4Nubv   0000000140120bc8     glad.obj
 0004:0002fbd0       glad_glVertexAttrib4Nuiv   0000000140120bd0     glad.obj
 0004:0002fbd8       glad_glVertexAttrib4Nusv   0000000140120bd8     glad.obj
 0004:0002fbe0       glad_glVertexAttrib4bv     0000000140120be0     glad.obj
 0004:0002fbe8       glad_glVertexAttrib4d      0000000140120be8     glad.obj
 0004:0002fbf0       glad_glVertexAttrib4dv     0000000140120bf0     glad.obj
 0004:0002fbf8       glad_glVertexAttrib4f      0000000140120bf8     glad.obj
 0004:0002fc00       glad_glVertexAttrib4fv     0000000140120c00     glad.obj
 0004:0002fc08       glad_glVertexAttrib4iv     0000000140120c08     glad.obj
 0004:0002fc10       glad_glVertexAttrib4s      0000000140120c10     glad.obj
 0004:0002fc18       glad_glVertexAttrib4sv     0000000140120c18     glad.obj
 0004:0002fc20       glad_glVertexAttrib4ubv    0000000140120c20     glad.obj
 0004:0002fc28       glad_glVertexAttrib4uiv    0000000140120c28     glad.obj
 0004:0002fc30       glad_glVertexAttrib4usv    0000000140120c30     glad.obj
 0004:0002fc38       glad_glVertexAttribPointer 0000000140120c38     glad.obj
 0004:0002fc40       glad_glUniformMatrix2x3fv  0000000140120c40     glad.obj
 0004:0002fc48       glad_glUniformMatrix3x2fv  0000000140120c48     glad.obj
 0004:0002fc50       glad_glUniformMatrix2x4fv  0000000140120c50     glad.obj
 0004:0002fc58       glad_glUniformMatrix4x2fv  0000000140120c58     glad.obj
 0004:0002fc60       glad_glUniformMatrix3x4fv  0000000140120c60     glad.obj
 0004:0002fc68       glad_glUniformMatrix4x3fv  0000000140120c68     glad.obj
 0004:0002fc70       GLAD_GL_VERSION_3_0        0000000140120c70     glad.obj
 0004:0002fc74       GLAD_GL_VERSION_3_1        0000000140120c74     glad.obj
 0004:0002fc78       glad_glColorMaski          0000000140120c78     glad.obj
 0004:0002fc80       glad_glGetBooleani_v       0000000140120c80     glad.obj
 0004:0002fc88       glad_glGetIntegeri_v       0000000140120c88     glad.obj
 0004:0002fc90       glad_glEnablei             0000000140120c90     glad.obj
 0004:0002fc98       glad_glDisablei            0000000140120c98     glad.obj
 0004:0002fca0       glad_glIsEnabledi          0000000140120ca0     glad.obj
 0004:0002fca8       glad_glBeginTransformFeedback 0000000140120ca8     glad.obj
 0004:0002fcb0       glad_glEndTransformFeedback 0000000140120cb0     glad.obj
 0004:0002fcb8       glad_glBindBufferRange     0000000140120cb8     glad.obj
 0004:0002fcc0       glad_glBindBufferBase      0000000140120cc0     glad.obj
 0004:0002fcc8       glad_glTransformFeedbackVaryings 0000000140120cc8     glad.obj
 0004:0002fcd0       glad_glGetTransformFeedbackVarying 0000000140120cd0     glad.obj
 0004:0002fcd8       glad_glClampColor          0000000140120cd8     glad.obj
 0004:0002fce0       glad_glBeginConditionalRender 0000000140120ce0     glad.obj
 0004:0002fce8       glad_glEndConditionalRender 0000000140120ce8     glad.obj
 0004:0002fcf0       glad_glVertexAttribIPointer 0000000140120cf0     glad.obj
 0004:0002fcf8       glad_glGetVertexAttribIiv  0000000140120cf8     glad.obj
 0004:0002fd00       glad_glGetVertexAttribIuiv 0000000140120d00     glad.obj
 0004:0002fd08       glad_glVertexAttribI1i     0000000140120d08     glad.obj
 0004:0002fd10       glad_glVertexAttribI2i     0000000140120d10     glad.obj
 0004:0002fd18       glad_glVertexAttribI3i     0000000140120d18     glad.obj
 0004:0002fd20       glad_glVertexAttribI4i     0000000140120d20     glad.obj
 0004:0002fd28       glad_glVertexAttribI1ui    0000000140120d28     glad.obj
 0004:0002fd30       glad_glVertexAttribI2ui    0000000140120d30     glad.obj
 0004:0002fd38       glad_glVertexAttribI3ui    0000000140120d38     glad.obj
 0004:0002fd40       glad_glVertexAttribI4ui    0000000140120d40     glad.obj
 0004:0002fd48       glad_glVertexAttribI1iv    0000000140120d48     glad.obj
 0004:0002fd50       glad_glVertexAttribI2iv    0000000140120d50     glad.obj
 0004:0002fd58       glad_glVertexAttribI3iv    0000000140120d58     glad.obj
 0004:0002fd60       glad_glVertexAttribI4iv    0000000140120d60     glad.obj
 0004:0002fd68       glad_glVertexAttribI1uiv   0000000140120d68     glad.obj
 0004:0002fd70       glad_glVertexAttribI2uiv   0000000140120d70     glad.obj
 0004:0002fd78       glad_glVertexAttribI3uiv   0000000140120d78     glad.obj
 0004:0002fd80       glad_glVertexAttribI4uiv   0000000140120d80     glad.obj
 0004:0002fd88       glad_glVertexAttribI4bv    0000000140120d88     glad.obj
 0004:0002fd90       glad_glVertexAttribI4sv    0000000140120d90     glad.obj
 0004:0002fd98       glad_glVertexAttribI4ubv   0000000140120d98     glad.obj
 0004:0002fda0       glad_glVertexAttribI4usv   0000000140120da0     glad.obj
 0004:0002fda8       glad_glGetUniformuiv       0000000140120da8     glad.obj
 0004:0002fdb0       glad_glBindFragDataLocation 0000000140120db0     glad.obj
 0004:0002fdb8       glad_glGetFragDataLocation 0000000140120db8     glad.obj
 0004:0002fdc0       glad_glUniform1ui          0000000140120dc0     glad.obj
 0004:0002fdc8       glad_glUniform2ui          0000000140120dc8     glad.obj
 0004:0002fdd0       glad_glUniform3ui          0000000140120dd0     glad.obj
 0004:0002fdd8       glad_glUniform4ui          0000000140120dd8     glad.obj
 0004:0002fde0       glad_glUniform1uiv         0000000140120de0     glad.obj
 0004:0002fde8       glad_glUniform2uiv         0000000140120de8     glad.obj
 0004:0002fdf0       glad_glUniform3uiv         0000000140120df0     glad.obj
 0004:0002fdf8       glad_glUniform4uiv         0000000140120df8     glad.obj
 0004:0002fe00       glad_glTexParameterIiv     0000000140120e00     glad.obj
 0004:0002fe08       glad_glTexParameterIuiv    0000000140120e08     glad.obj
 0004:0002fe10       glad_glGetTexParameterIiv  0000000140120e10     glad.obj
 0004:0002fe18       glad_glGetTexParameterIuiv 0000000140120e18     glad.obj
 0004:0002fe20       glad_glClearBufferiv       0000000140120e20     glad.obj
 0004:0002fe28       glad_glClearBufferuiv      0000000140120e28     glad.obj
 0004:0002fe30       glad_glClearBufferfv       0000000140120e30     glad.obj
 0004:0002fe38       glad_glClearBufferfi       0000000140120e38     glad.obj
 0004:0002fe40       glad_glGetStringi          0000000140120e40     glad.obj
 0004:0002fe48       glad_glIsRenderbuffer      0000000140120e48     glad.obj
 0004:0002fe50       glad_glBindRenderbuffer    0000000140120e50     glad.obj
 0004:0002fe58       glad_glDeleteRenderbuffers 0000000140120e58     glad.obj
 0004:0002fe60       glad_glGenRenderbuffers    0000000140120e60     glad.obj
 0004:0002fe68       glad_glRenderbufferStorage 0000000140120e68     glad.obj
 0004:0002fe70       glad_glGetRenderbufferParameteriv 0000000140120e70     glad.obj
 0004:0002fe78       glad_glIsFramebuffer       0000000140120e78     glad.obj
 0004:0002fe80       glad_glBindFramebuffer     0000000140120e80     glad.obj
 0004:0002fe88       glad_glDeleteFramebuffers  0000000140120e88     glad.obj
 0004:0002fe90       glad_glGenFramebuffers     0000000140120e90     glad.obj
 0004:0002fe98       glad_glCheckFramebufferStatus 0000000140120e98     glad.obj
 0004:0002fea0       glad_glFramebufferTexture1D 0000000140120ea0     glad.obj
 0004:0002fea8       glad_glFramebufferTexture2D 0000000140120ea8     glad.obj
 0004:0002feb0       glad_glFramebufferTexture3D 0000000140120eb0     glad.obj
 0004:0002feb8       glad_glFramebufferRenderbuffer 0000000140120eb8     glad.obj
 0004:0002fec0       glad_glGetFramebufferAttachmentParameteriv 0000000140120ec0     glad.obj
 0004:0002fec8       glad_glGenerateMipmap      0000000140120ec8     glad.obj
 0004:0002fed0       glad_glBlitFramebuffer     0000000140120ed0     glad.obj
 0004:0002fed8       glad_glRenderbufferStorageMultisample 0000000140120ed8     glad.obj
 0004:0002fee0       glad_glFramebufferTextureLayer 0000000140120ee0     glad.obj
 0004:0002fee8       glad_glMapBufferRange      0000000140120ee8     glad.obj
 0004:0002fef0       glad_glFlushMappedBufferRange 0000000140120ef0     glad.obj
 0004:0002fef8       glad_glBindVertexArray     0000000140120ef8     glad.obj
 0004:0002ff00       glad_glDeleteVertexArrays  0000000140120f00     glad.obj
 0004:0002ff08       glad_glGenVertexArrays     0000000140120f08     glad.obj
 0004:0002ff10       glad_glIsVertexArray       0000000140120f10     glad.obj
 0004:0002ff18       glad_glDrawArraysInstanced 0000000140120f18     glad.obj
 0004:0002ff20       glad_glDrawElementsInstanced 0000000140120f20     glad.obj
 0004:0002ff28       glad_glTexBuffer           0000000140120f28     glad.obj
 0004:0002ff30       glad_glPrimitiveRestartIndex 0000000140120f30     glad.obj
 0004:0002ff38       glad_glCopyBufferSubData   0000000140120f38     glad.obj
 0004:0002ff40       glad_glGetUniformIndices   0000000140120f40     glad.obj
 0004:0002ff48       glad_glGetActiveUniformsiv 0000000140120f48     glad.obj
 0004:0002ff50       glad_glGetActiveUniformName 0000000140120f50     glad.obj
 0004:0002ff58       glad_glGetUniformBlockIndex 0000000140120f58     glad.obj
 0004:0002ff60       glad_glGetActiveUniformBlockiv 0000000140120f60     glad.obj
 0004:0002ff68       glad_glGetActiveUniformBlockName 0000000140120f68     glad.obj
 0004:0002ff70       glad_glUniformBlockBinding 0000000140120f70     glad.obj
 0004:0002ff78       GLAD_GL_VERSION_3_2        0000000140120f78     glad.obj
 0004:0002ff7c       GLAD_GL_VERSION_3_3        0000000140120f7c     glad.obj
 0004:0002ff80       glad_glDrawElementsBaseVertex 0000000140120f80     glad.obj
 0004:0002ff88       glad_glDrawRangeElementsBaseVertex 0000000140120f88     glad.obj
 0004:0002ff90       glad_glDrawElementsInstancedBaseVertex 0000000140120f90     glad.obj
 0004:0002ff98       glad_glMultiDrawElementsBaseVertex 0000000140120f98     glad.obj
 0004:0002ffa0       glad_glProvokingVertex     0000000140120fa0     glad.obj
 0004:0002ffa8       glad_glFenceSync           0000000140120fa8     glad.obj
 0004:0002ffb0       glad_glIsSync              0000000140120fb0     glad.obj
 0004:0002ffb8       glad_glDeleteSync          0000000140120fb8     glad.obj
 0004:0002ffc0       glad_glClientWaitSync      0000000140120fc0     glad.obj
 0004:0002ffc8       glad_glWaitSync            0000000140120fc8     glad.obj
 0004:0002ffd0       glad_glGetInteger64v       0000000140120fd0     glad.obj
 0004:0002ffd8       glad_glGetSynciv           0000000140120fd8     glad.obj
 0004:0002ffe0       glad_glGetInteger64i_v     0000000140120fe0     glad.obj
 0004:0002ffe8       glad_glGetBufferParameteri64v 0000000140120fe8     glad.obj
 0004:0002fff0       glad_glFramebufferTexture  0000000140120ff0     glad.obj
 0004:0002fff8       glad_glTexImage2DMultisample 0000000140120ff8     glad.obj
 0004:00030000       glad_glTexImage3DMultisample 0000000140121000     glad.obj
 0004:00030008       glad_glGetMultisamplefv    0000000140121008     glad.obj
 0004:00030010       glad_glSampleMaski         0000000140121010     glad.obj
 0004:00030018       glad_glBindFragDataLocationIndexed 0000000140121018     glad.obj
 0004:00030020       glad_glGetFragDataIndex    0000000140121020     glad.obj
 0004:00030028       glad_glGenSamplers         0000000140121028     glad.obj
 0004:00030030       glad_glDeleteSamplers      0000000140121030     glad.obj
 0004:00030038       glad_glIsSampler           0000000140121038     glad.obj
 0004:00030040       glad_glBindSampler         0000000140121040     glad.obj
 0004:00030048       glad_glSamplerParameteri   0000000140121048     glad.obj
 0004:00030050       glad_glSamplerParameteriv  0000000140121050     glad.obj
 0004:00030058       glad_glSamplerParameterf   0000000140121058     glad.obj
 0004:00030060       glad_glSamplerParameterfv  0000000140121060     glad.obj
 0004:00030068       glad_glSamplerParameterIiv 0000000140121068     glad.obj
 0004:00030070       glad_glSamplerParameterIuiv 0000000140121070     glad.obj
 0004:00030078       glad_glGetSamplerParameteriv 0000000140121078     glad.obj
 0004:00030080       glad_glGetSamplerParameterIiv 0000000140121080     glad.obj
 0004:00030088       glad_glGetSamplerParameterfv 0000000140121088     glad.obj
 0004:00030090       glad_glGetSamplerParameterIuiv 0000000140121090     glad.obj
 0004:00030098       glad_glQueryCounter        0000000140121098     glad.obj
 0004:000300a0       glad_glGetQueryObjecti64v  00000001401210a0     glad.obj
 0004:000300a8       glad_glGetQueryObjectui64v 00000001401210a8     glad.obj
 0004:000300b0       glad_glVertexAttribDivisor 00000001401210b0     glad.obj
 0004:000300b8       glad_glVertexAttribP1ui    00000001401210b8     glad.obj
 0004:000300c0       glad_glVertexAttribP1uiv   00000001401210c0     glad.obj
 0004:000300c8       glad_glVertexAttribP2ui    00000001401210c8     glad.obj
 0004:000300d0       glad_glVertexAttribP2uiv   00000001401210d0     glad.obj
 0004:000300d8       glad_glVertexAttribP3ui    00000001401210d8     glad.obj
 0004:000300e0       glad_glVertexAttribP3uiv   00000001401210e0     glad.obj
 0004:000300e8       glad_glVertexAttribP4ui    00000001401210e8     glad.obj
 0004:000300f0       glad_glVertexAttribP4uiv   00000001401210f0     glad.obj
 0004:000300f8       glad_glVertexP2ui          00000001401210f8     glad.obj
 0004:00030100       glad_glVertexP2uiv         0000000140121100     glad.obj
 0004:00030108       glad_glVertexP3ui          0000000140121108     glad.obj
 0004:00030110       glad_glVertexP3uiv         0000000140121110     glad.obj
 0004:00030118       glad_glVertexP4ui          0000000140121118     glad.obj
 0004:00030120       glad_glVertexP4uiv         0000000140121120     glad.obj
 0004:00030128       glad_glTexCoordP1ui        0000000140121128     glad.obj
 0004:00030130       glad_glTexCoordP1uiv       0000000140121130     glad.obj
 0004:00030138       glad_glTexCoordP2ui        0000000140121138     glad.obj
 0004:00030140       glad_glTexCoordP2uiv       0000000140121140     glad.obj
 0004:00030148       glad_glTexCoordP3ui        0000000140121148     glad.obj
 0004:00030150       glad_glTexCoordP3uiv       0000000140121150     glad.obj
 0004:00030158       glad_glTexCoordP4ui        0000000140121158     glad.obj
 0004:00030160       glad_glTexCoordP4uiv       0000000140121160     glad.obj
 0004:00030168       glad_glMultiTexCoordP1ui   0000000140121168     glad.obj
 0004:00030170       glad_glMultiTexCoordP1uiv  0000000140121170     glad.obj
 0004:00030178       glad_glMultiTexCoordP2ui   0000000140121178     glad.obj
 0004:00030180       glad_glMultiTexCoordP2uiv  0000000140121180     glad.obj
 0004:00030188       glad_glMultiTexCoordP3ui   0000000140121188     glad.obj
 0004:00030190       glad_glMultiTexCoordP3uiv  0000000140121190     glad.obj
 0004:00030198       glad_glMultiTexCoordP4ui   0000000140121198     glad.obj
 0004:000301a0       glad_glMultiTexCoordP4uiv  00000001401211a0     glad.obj
 0004:000301a8       glad_glNormalP3ui          00000001401211a8     glad.obj
 0004:000301b0       glad_glNormalP3uiv         00000001401211b0     glad.obj
 0004:000301b8       glad_glColorP3ui           00000001401211b8     glad.obj
 0004:000301c0       glad_glColorP3uiv          00000001401211c0     glad.obj
 0004:000301c8       glad_glColorP4ui           00000001401211c8     glad.obj
 0004:000301d0       glad_glColorP4uiv          00000001401211d0     glad.obj
 0004:000301d8       glad_glSecondaryColorP3ui  00000001401211d8     glad.obj
 0004:000301e0       glad_glSecondaryColorP3uiv 00000001401211e0     glad.obj
 0004:000306b8       ?_Stinit@?1??_Init@?$basic_filebuf@DU?$char_traits@D@std@@@std@@IEAAXPEAU_iobuf@@W4_Initfl@23@@Z@4U_Mbstatet@@A 00000001401216b8     FileUtils.obj
 0004:000306c8       ?_Psave@?$_Facetptr@V?$codecvt@DDU_Mbstatet@@@std@@@std@@2PEBVfacet@locale@2@EB 00000001401216c8     FileUtils.obj
 0004:00030c60       ?game@@3VGame@@A           0000000140121c60     main.obj
 0004:00030cb8       ?_instance@ShaderManager@@0PEAV1@EA 0000000140121cb8     ShaderManager.obj
 0004:00030cc8       ?_instance@TextureManager@@0PEAV1@EA 0000000140121cc8     TextureManager.obj
 0004:00030ce0       ?_OptionsStorage@?1??__local_stdio_printf_options@@9@4_KA 0000000140121ce0     TextureManager.obj
 0004:00030cf0       _glfw                      0000000140121cf0     glfw3:init.obj
 0004:00034084       _tls_index                 0000000140125084     MSVCRTD:tlssup.obj
 0004:00034088       __scrt_current_native_startup_state 0000000140125088     MSVCRTD:utility.obj
 0004:00034090       __scrt_native_startup_lock 0000000140125090     MSVCRTD:utility.obj
 0004:0003477c       __avx10_version            000000014012577c     MSVCRTD:cpu_disp.obj
 0004:00034780       __favor                    0000000140125780     MSVCRTD:cpu_disp.obj
 0004:00034788       __scrt_debugger_hook_flag  0000000140125788     MSVCRTD:utility_desktop.obj
 0004:00034790       __castguard_check_failure_user_handled_fptr 0000000140125790     MSVCRTD:guard_support.obj
 0004:000347a0       ?__type_info_root_node@@3U__type_info_node@@A 00000001401257a0     MSVCRTD:tncleanup.obj
 0004:000347b8       ?_OptionsStorage@?1??__local_stdio_scanf_options@@9@4_KA 00000001401257b8     MSVCRTD:default_local_stdio_options.obj
 0004:000347e8       ?_OptionsStorage@?1??__local_stdio_scanf_options@@9@9 00000001401257e8     <common>
 0004:00034800       ?_OptionsStorage@?1??__local_stdio_printf_options@@9@9 0000000140125800     <common>
 0004:00034818       __dyn_tls_dtor_callback    0000000140125818     <common>
 0004:00034830       __dyn_tls_init_callback    0000000140125830     <common>
 0004:00034844       __DebuggerCurrentSteppingThreadId 0000000140125844     <common>
 0006:00000000       __imp_CreateDCW            000000014012e000     gdi32:GDI32.dll
 0006:00000008       __imp_GetDeviceCaps        000000014012e008     gdi32:GDI32.dll
 0006:00000010       __imp_GetDeviceGammaRamp   000000014012e010     gdi32:GDI32.dll
 0006:00000018       __imp_SetDeviceGammaRamp   000000014012e018     gdi32:GDI32.dll
 0006:00000020       __imp_CreateBitmap         000000014012e020     gdi32:GDI32.dll
 0006:00000028       __imp_CreateRectRgn        000000014012e028     gdi32:GDI32.dll
 0006:00000030       __imp_DeleteObject         000000014012e030     gdi32:GDI32.dll
 0006:00000038       __imp_CreateDIBSection     000000014012e038     gdi32:GDI32.dll
 0006:00000040       __imp_ChoosePixelFormat    000000014012e040     gdi32:GDI32.dll
 0006:00000048       __imp_DescribePixelFormat  000000014012e048     gdi32:GDI32.dll
 0006:00000050       __imp_SetPixelFormat       000000014012e050     gdi32:GDI32.dll
 0006:00000058       __imp_SwapBuffers          000000014012e058     gdi32:GDI32.dll
 0006:00000060       __imp_DeleteDC             000000014012e060     gdi32:GDI32.dll
 0006:00000068       \177GDI32_NULL_THUNK_DATA  000000014012e068     gdi32:GDI32.dll
 0006:000000d0       __imp_LeaveCriticalSection 000000014012e0d0     kernel32:KERNEL32.dll
 0006:000000d8       __imp_DeleteCriticalSection 000000014012e0d8     kernel32:KERNEL32.dll
 0006:000000e0       __imp_TlsAlloc             000000014012e0e0     kernel32:KERNEL32.dll
 0006:000000e8       __imp_TlsGetValue          000000014012e0e8     kernel32:KERNEL32.dll
 0006:000000f0       __imp_TlsSetValue          000000014012e0f0     kernel32:KERNEL32.dll
 0006:000000f8       __imp_TlsFree              000000014012e0f8     kernel32:KERNEL32.dll
 0006:00000100       __imp_GlobalAlloc          000000014012e100     kernel32:KERNEL32.dll
 0006:00000108       __imp_GlobalUnlock         000000014012e108     kernel32:KERNEL32.dll
 0006:00000110       __imp_GlobalLock           000000014012e110     kernel32:KERNEL32.dll
 0006:00000118       __imp_GlobalFree           000000014012e118     kernel32:KERNEL32.dll
 0006:00000120       __imp_SetThreadExecutionState 000000014012e120     kernel32:KERNEL32.dll
 0006:00000128       __imp_GetProcessHeap       000000014012e128     kernel32:KERNEL32.dll
 0006:00000130       __imp_HeapFree             000000014012e130     kernel32:KERNEL32.dll
 0006:00000138       __imp_HeapAlloc            000000014012e138     kernel32:KERNEL32.dll
 0006:00000140       __imp_InitializeSListHead  000000014012e140     kernel32:KERNEL32.dll
 0006:00000148       __imp_GetSystemTimeAsFileTime 000000014012e148     kernel32:KERNEL32.dll
 0006:00000150       __imp_InitializeCriticalSection 000000014012e150     kernel32:KERNEL32.dll
 0006:00000158       __imp_GetStartupInfoW      000000014012e158     kernel32:KERNEL32.dll
 0006:00000160       __imp_RaiseException       000000014012e160     kernel32:KERNEL32.dll
 0006:00000168       __imp_IsDebuggerPresent    000000014012e168     kernel32:KERNEL32.dll
 0006:00000170       __imp_IsProcessorFeaturePresent 000000014012e170     kernel32:KERNEL32.dll
 0006:00000178       __imp_TerminateProcess     000000014012e178     kernel32:KERNEL32.dll
 0006:00000180       __imp_GetCurrentProcess    000000014012e180     kernel32:KERNEL32.dll
 0006:00000188       __imp_SetUnhandledExceptionFilter 000000014012e188     kernel32:KERNEL32.dll
 0006:00000190       __imp_UnhandledExceptionFilter 000000014012e190     kernel32:KERNEL32.dll
 0006:00000198       __imp_RtlVirtualUnwind     000000014012e198     kernel32:KERNEL32.dll
 0006:000001a0       __imp_RtlLookupFunctionEntry 000000014012e1a0     kernel32:KERNEL32.dll
 0006:000001a8       __imp_RtlCaptureContext    000000014012e1a8     kernel32:KERNEL32.dll
 0006:000001b0       __imp_SleepConditionVariableSRW 000000014012e1b0     kernel32:KERNEL32.dll
 0006:000001b8       __imp_WakeAllConditionVariable 000000014012e1b8     kernel32:KERNEL32.dll
 0006:000001c0       __imp_AcquireSRWLockExclusive 000000014012e1c0     kernel32:KERNEL32.dll
 0006:000001c8       __imp_ReleaseSRWLockExclusive 000000014012e1c8     kernel32:KERNEL32.dll
 0006:000001d0       __imp_GetCurrentThreadId   000000014012e1d0     kernel32:KERNEL32.dll
 0006:000001d8       __imp_VirtualQuery         000000014012e1d8     kernel32:KERNEL32.dll
 0006:000001e0       __imp_EnterCriticalSection 000000014012e1e0     kernel32:KERNEL32.dll
 0006:000001e8       __imp_QueryPerformanceFrequency 000000014012e1e8     kernel32:KERNEL32.dll
 0006:000001f0       __imp_QueryPerformanceCounter 000000014012e1f0     kernel32:KERNEL32.dll
 0006:000001f8       __imp_WideCharToMultiByte  000000014012e1f8     kernel32:KERNEL32.dll
 0006:00000200       __imp_MultiByteToWideChar  000000014012e200     kernel32:KERNEL32.dll
 0006:00000208       __imp_FormatMessageW       000000014012e208     kernel32:KERNEL32.dll
 0006:00000210       __imp_LoadLibraryA         000000014012e210     kernel32:KERNEL32.dll
 0006:00000218       __imp_GetModuleHandleW     000000014012e218     kernel32:KERNEL32.dll
 0006:00000220       __imp_GetLastError         000000014012e220     kernel32:KERNEL32.dll
 0006:00000228       __imp_VerSetConditionMask  000000014012e228     kernel32:KERNEL32.dll
 0006:00000230       __imp_LoadLibraryW         000000014012e230     kernel32:KERNEL32.dll
 0006:00000238       __imp_GetProcAddress       000000014012e238     kernel32:KERNEL32.dll
 0006:00000240       __imp_GetCurrentProcessId  000000014012e240     kernel32:KERNEL32.dll
 0006:00000248       __imp_FreeLibrary          000000014012e248     kernel32:KERNEL32.dll
 0006:00000250       \177KERNEL32_NULL_THUNK_DATA 000000014012e250     kernel32:KERNEL32.dll
 0006:000002f0       __imp_?xsputn@?$basic_streambuf@DU?$char_traits@D@std@@@std@@MEAA_JPEBD_J@Z 000000014012e2f0     msvcprtd:MSVCP140D.dll
 0006:000002f8       __imp_?out@?$codecvt@DDU_Mbstatet@@@std@@QEBAHAEAU_Mbstatet@@PEBD1AEAPEBDPEAD3AEAPEAD@Z 000000014012e2f8     msvcprtd:MSVCP140D.dll
 0006:00000300       __imp_?_Xbad_alloc@std@@YAXXZ 000000014012e300     msvcprtd:MSVCP140D.dll
 0006:00000308       __imp_??6?$basic_ostream@DU?$char_traits@D@std@@@std@@QEAAAEAV01@_K@Z 000000014012e308     msvcprtd:MSVCP140D.dll
 0006:00000310       __imp_??6?$basic_ostream@DU?$char_traits@D@std@@@std@@QEAAAEAV01@H@Z 000000014012e310     msvcprtd:MSVCP140D.dll
 0006:00000318       __imp_?cout@std@@3V?$basic_ostream@DU?$char_traits@D@std@@@1@A 000000014012e318     msvcprtd:MSVCP140D.dll
 0006:00000320       __imp_?id@?$codecvt@DDU_Mbstatet@@@std@@2V0locale@2@A 000000014012e320     msvcprtd:MSVCP140D.dll
 0006:00000328       __imp_?_Lock@?$basic_streambuf@DU?$char_traits@D@std@@@std@@UEAAXXZ 000000014012e328     msvcprtd:MSVCP140D.dll
 0006:00000330       __imp_?_Unlock@?$basic_streambuf@DU?$char_traits@D@std@@@std@@UEAAXXZ 000000014012e330     msvcprtd:MSVCP140D.dll
 0006:00000338       __imp_?showmanyc@?$basic_streambuf@DU?$char_traits@D@std@@@std@@MEAA_JXZ 000000014012e338     msvcprtd:MSVCP140D.dll
 0006:00000340       __imp_?uflow@?$basic_streambuf@DU?$char_traits@D@std@@@std@@MEAAHXZ 000000014012e340     msvcprtd:MSVCP140D.dll
 0006:00000348       __imp_?setbuf@?$basic_streambuf@DU?$char_traits@D@std@@@std@@MEAAPEAV12@PEAD_J@Z 000000014012e348     msvcprtd:MSVCP140D.dll
 0006:00000350       __imp_?sync@?$basic_streambuf@DU?$char_traits@D@std@@@std@@MEAAHXZ 000000014012e350     msvcprtd:MSVCP140D.dll
 0006:00000358       __imp_?imbue@?$basic_streambuf@DU?$char_traits@D@std@@@std@@MEAAXAEBVlocale@2@@Z 000000014012e358     msvcprtd:MSVCP140D.dll
 0006:00000360       __imp_?_Fiopen@std@@YAPEAU_iobuf@@PEBDHH@Z 000000014012e360     msvcprtd:MSVCP140D.dll
 0006:00000368       __imp_??1?$basic_iostream@DU?$char_traits@D@std@@@std@@UEAA@XZ 000000014012e368     msvcprtd:MSVCP140D.dll
 0006:00000370       __imp_??0?$basic_iostream@DU?$char_traits@D@std@@@std@@QEAA@PEAV?$basic_streambuf@DU?$char_traits@D@std@@@1@@Z 000000014012e370     msvcprtd:MSVCP140D.dll
 0006:00000378       __imp_??1?$basic_istream@DU?$char_traits@D@std@@@std@@UEAA@XZ 000000014012e378     msvcprtd:MSVCP140D.dll
 0006:00000380       __imp_??0?$basic_istream@DU?$char_traits@D@std@@@std@@QEAA@PEAV?$basic_streambuf@DU?$char_traits@D@std@@@1@_N@Z 000000014012e380     msvcprtd:MSVCP140D.dll
 0006:00000388       __imp_?flush@?$basic_ostream@DU?$char_traits@D@std@@@std@@QEAAAEAV12@XZ 000000014012e388     msvcprtd:MSVCP140D.dll
 0006:00000390       __imp_?put@?$basic_ostream@DU?$char_traits@D@std@@@std@@QEAAAEAV12@D@Z 000000014012e390     msvcprtd:MSVCP140D.dll
 0006:00000398       __imp_??6?$basic_ostream@DU?$char_traits@D@std@@@std@@QEAAAEAV01@PEAV?$basic_streambuf@DU?$char_traits@D@std@@@1@@Z 000000014012e398     msvcprtd:MSVCP140D.dll
 0006:000003a0       __imp_??6?$basic_ostream@DU?$char_traits@D@std@@@std@@QEAAAEAV01@P6AAEAV01@AEAV01@@Z@Z 000000014012e3a0     msvcprtd:MSVCP140D.dll
 0006:000003a8       __imp_?_Osfx@?$basic_ostream@DU?$char_traits@D@std@@@std@@QEAAXXZ 000000014012e3a8     msvcprtd:MSVCP140D.dll
 0006:000003b0       __imp_??0?$basic_ios@DU?$char_traits@D@std@@@std@@IEAA@XZ 000000014012e3b0     msvcprtd:MSVCP140D.dll
 0006:000003b8       __imp_?widen@?$basic_ios@DU?$char_traits@D@std@@@std@@QEBADD@Z 000000014012e3b8     msvcprtd:MSVCP140D.dll
 0006:000003c0       __imp_?fill@?$basic_ios@DU?$char_traits@D@std@@@std@@QEBADXZ 000000014012e3c0     msvcprtd:MSVCP140D.dll
 0006:000003c8       __imp_?rdbuf@?$basic_ios@DU?$char_traits@D@std@@@std@@QEBAPEAV?$basic_streambuf@DU?$char_traits@D@std@@@2@XZ 000000014012e3c8     msvcprtd:MSVCP140D.dll
 0006:000003d0       __imp_?tie@?$basic_ios@DU?$char_traits@D@std@@@std@@QEBAPEAV?$basic_ostream@DU?$char_traits@D@std@@@2@XZ 000000014012e3d0     msvcprtd:MSVCP140D.dll
 0006:000003d8       __imp_?setstate@?$basic_ios@DU?$char_traits@D@std@@@std@@QEAAXH_N@Z 000000014012e3d8     msvcprtd:MSVCP140D.dll
 0006:000003e0       __imp_?clear@?$basic_ios@DU?$char_traits@D@std@@@std@@QEAAXH_N@Z 000000014012e3e0     msvcprtd:MSVCP140D.dll
 0006:000003e8       __imp_??1?$basic_ios@DU?$char_traits@D@std@@@std@@UEAA@XZ 000000014012e3e8     msvcprtd:MSVCP140D.dll
 0006:000003f0       __imp_?xsgetn@?$basic_streambuf@DU?$char_traits@D@std@@@std@@MEAA_JPEAD_J@Z 000000014012e3f0     msvcprtd:MSVCP140D.dll
 0006:000003f8       __imp_?_Init@?$basic_streambuf@DU?$char_traits@D@std@@@std@@IEAAXPEAPEAD0PEAH001@Z 000000014012e3f8     msvcprtd:MSVCP140D.dll
 0006:00000400       __imp_?_Init@?$basic_streambuf@DU?$char_traits@D@std@@@std@@IEAAXXZ 000000014012e400     msvcprtd:MSVCP140D.dll
 0006:00000408       __imp_?_Pnavail@?$basic_streambuf@DU?$char_traits@D@std@@@std@@IEBA_JXZ 000000014012e408     msvcprtd:MSVCP140D.dll
 0006:00000410       __imp_?_Pninc@?$basic_streambuf@DU?$char_traits@D@std@@@std@@IEAAPEADXZ 000000014012e410     msvcprtd:MSVCP140D.dll
 0006:00000418       __imp_?setp@?$basic_streambuf@DU?$char_traits@D@std@@@std@@IEAAXPEAD00@Z 000000014012e418     msvcprtd:MSVCP140D.dll
 0006:00000420       __imp_?setp@?$basic_streambuf@DU?$char_traits@D@std@@@std@@IEAAXPEAD0@Z 000000014012e420     msvcprtd:MSVCP140D.dll
 0006:00000428       __imp_?pbump@?$basic_streambuf@DU?$char_traits@D@std@@@std@@IEAAXH@Z 000000014012e428     msvcprtd:MSVCP140D.dll
 0006:00000430       __imp_?_Gnavail@?$basic_streambuf@DU?$char_traits@D@std@@@std@@IEBA_JXZ 000000014012e430     msvcprtd:MSVCP140D.dll
 0006:00000438       __imp_?_Gninc@?$basic_streambuf@DU?$char_traits@D@std@@@std@@IEAAPEADXZ 000000014012e438     msvcprtd:MSVCP140D.dll
 0006:00000440       __imp_?_Gndec@?$basic_streambuf@DU?$char_traits@D@std@@@std@@IEAAPEADXZ 000000014012e440     msvcprtd:MSVCP140D.dll
 0006:00000448       __imp_?epptr@?$basic_streambuf@DU?$char_traits@D@std@@@std@@IEBAPEADXZ 000000014012e448     msvcprtd:MSVCP140D.dll
 0006:00000450       __imp_?setg@?$basic_streambuf@DU?$char_traits@D@std@@@std@@IEAAXPEAD00@Z 000000014012e450     msvcprtd:MSVCP140D.dll
 0006:00000458       __imp_?gbump@?$basic_streambuf@DU?$char_traits@D@std@@@std@@IEAAXH@Z 000000014012e458     msvcprtd:MSVCP140D.dll
 0006:00000460       __imp_?egptr@?$basic_streambuf@DU?$char_traits@D@std@@@std@@IEBAPEADXZ 000000014012e460     msvcprtd:MSVCP140D.dll
 0006:00000468       __imp_?pptr@?$basic_streambuf@DU?$char_traits@D@std@@@std@@IEBAPEADXZ 000000014012e468     msvcprtd:MSVCP140D.dll
 0006:00000470       __imp_?pbase@?$basic_streambuf@DU?$char_traits@D@std@@@std@@IEBAPEADXZ 000000014012e470     msvcprtd:MSVCP140D.dll
 0006:00000478       __imp_?gptr@?$basic_streambuf@DU?$char_traits@D@std@@@std@@IEBAPEADXZ 000000014012e478     msvcprtd:MSVCP140D.dll
 0006:00000480       __imp_?eback@?$basic_streambuf@DU?$char_traits@D@std@@@std@@IEBAPEADXZ 000000014012e480     msvcprtd:MSVCP140D.dll
 0006:00000488       __imp_?sputn@?$basic_streambuf@DU?$char_traits@D@std@@@std@@QEAA_JPEBD_J@Z 000000014012e488     msvcprtd:MSVCP140D.dll
 0006:00000490       __imp_?sputc@?$basic_streambuf@DU?$char_traits@D@std@@@std@@QEAAHD@Z 000000014012e490     msvcprtd:MSVCP140D.dll
 0006:00000498       __imp_?getloc@?$basic_streambuf@DU?$char_traits@D@std@@@std@@QEBA?AVlocale@2@XZ 000000014012e498     msvcprtd:MSVCP140D.dll
 0006:000004a0       __imp_??1?$basic_streambuf@DU?$char_traits@D@std@@@std@@UEAA@XZ 000000014012e4a0     msvcprtd:MSVCP140D.dll
 0006:000004a8       __imp_??0?$basic_streambuf@DU?$char_traits@D@std@@@std@@IEAA@XZ 000000014012e4a8     msvcprtd:MSVCP140D.dll
 0006:000004b0       __imp_?width@ios_base@std@@QEAA_J_J@Z 000000014012e4b0     msvcprtd:MSVCP140D.dll
 0006:000004b8       __imp_?width@ios_base@std@@QEBA_JXZ 000000014012e4b8     msvcprtd:MSVCP140D.dll
 0006:000004c0       __imp_?flags@ios_base@std@@QEBAHXZ 000000014012e4c0     msvcprtd:MSVCP140D.dll
 0006:000004c8       __imp_?fail@ios_base@std@@QEBA_NXZ 000000014012e4c8     msvcprtd:MSVCP140D.dll
 0006:000004d0       __imp_?good@ios_base@std@@QEBA_NXZ 000000014012e4d0     msvcprtd:MSVCP140D.dll
 0006:000004d8       __imp_?_Getcat@?$codecvt@DDU_Mbstatet@@@std@@SA_KPEAPEBVfacet@locale@2@PEBV42@@Z 000000014012e4d8     msvcprtd:MSVCP140D.dll
 0006:000004e0       __imp_??0_Lockit@std@@QEAA@H@Z 000000014012e4e0     msvcprtd:MSVCP140D.dll
 0006:000004e8       __imp_??1_Lockit@std@@QEAA@XZ 000000014012e4e8     msvcprtd:MSVCP140D.dll
 0006:000004f0       __imp_?_Xlength_error@std@@YAXPEBD@Z 000000014012e4f0     msvcprtd:MSVCP140D.dll
 0006:000004f8       __imp_?_Xout_of_range@std@@YAXPEBD@Z 000000014012e4f8     msvcprtd:MSVCP140D.dll
 0006:00000500       __imp_?uncaught_exception@std@@YA_NXZ 000000014012e500     msvcprtd:MSVCP140D.dll
 0006:00000508       __imp_??Bid@locale@std@@QEAA_KXZ 000000014012e508     msvcprtd:MSVCP140D.dll
 0006:00000510       __imp_?_Getgloballocale@locale@std@@CAPEAV_Locimp@12@XZ 000000014012e510     msvcprtd:MSVCP140D.dll
 0006:00000518       __imp_?always_noconv@codecvt_base@std@@QEBA_NXZ 000000014012e518     msvcprtd:MSVCP140D.dll
 0006:00000520       __imp_?in@?$codecvt@DDU_Mbstatet@@@std@@QEBAHAEAU_Mbstatet@@PEBD1AEAPEBDPEAD3AEAPEAD@Z 000000014012e520     msvcprtd:MSVCP140D.dll
 0006:00000528       __imp_?unshift@?$codecvt@DDU_Mbstatet@@@std@@QEBAHAEAU_Mbstatet@@PEAD1AEAPEAD@Z 000000014012e528     msvcprtd:MSVCP140D.dll
 0006:00000530       \177MSVCP140D_NULL_THUNK_DATA 000000014012e530     msvcprtd:MSVCP140D.dll
 0006:000005f8       __imp_DragAcceptFiles      000000014012e5f8     shell32:SHELL32.dll
 0006:00000600       __imp_DragFinish           000000014012e600     shell32:SHELL32.dll
 0006:00000608       __imp_DragQueryPoint       000000014012e608     shell32:SHELL32.dll
 0006:00000610       __imp_DragQueryFileW       000000014012e610     shell32:SHELL32.dll
 0006:00000618       \177SHELL32_NULL_THUNK_DATA 000000014012e618     shell32:SHELL32.dll
 0006:00000670       __imp_PostMessageW         000000014012e670     user32:USER32.dll
 0006:00000678       __imp_WaitMessage          000000014012e678     user32:USER32.dll
 0006:00000680       __imp_DefWindowProcW       000000014012e680     user32:USER32.dll
 0006:00000688       __imp_UnregisterClassW     000000014012e688     user32:USER32.dll
 0006:00000690       __imp_RegisterClassExW     000000014012e690     user32:USER32.dll
 0006:00000698       __imp_GetLayeredWindowAttributes 000000014012e698     user32:USER32.dll
 0006:000006a0       __imp_SetLayeredWindowAttributes 000000014012e6a0     user32:USER32.dll
 0006:000006a8       __imp_FlashWindow          000000014012e6a8     user32:USER32.dll
 0006:000006b0       __imp_MoveWindow           000000014012e6b0     user32:USER32.dll
 0006:000006b8       __imp_SetWindowPos         000000014012e6b8     user32:USER32.dll
 0006:000006c0       __imp_GetWindowPlacement   000000014012e6c0     user32:USER32.dll
 0006:000006c8       __imp_SetWindowPlacement   000000014012e6c8     user32:USER32.dll
 0006:000006d0       __imp_IsWindowVisible      000000014012e6d0     user32:USER32.dll
 0006:000006d8       __imp_IsIconic             000000014012e6d8     user32:USER32.dll
 0006:000006e0       __imp_IsZoomed             000000014012e6e0     user32:USER32.dll
 0006:000006e8       __imp_GetRawInputDeviceList 000000014012e6e8     user32:USER32.dll
 0006:000006f0       __imp_GetRawInputDeviceInfoA 000000014012e6f0     user32:USER32.dll
 0006:000006f8       __imp_RegisterRawInputDevices 000000014012e6f8     user32:USER32.dll
 0006:00000700       __imp_GetRawInputData      000000014012e700     user32:USER32.dll
 0006:00000708       __imp_MonitorFromWindow    000000014012e708     user32:USER32.dll
 0006:00000710       __imp_CreateIconIndirect   000000014012e710     user32:USER32.dll
 0006:00000718       __imp_LoadImageW           000000014012e718     user32:USER32.dll
 0006:00000720       __imp_DestroyIcon          000000014012e720     user32:USER32.dll
 0006:00000728       __imp_LoadCursorW          000000014012e728     user32:USER32.dll
 0006:00000730       __imp_GetClassLongPtrW     000000014012e730     user32:USER32.dll
 0006:00000738       __imp_SendMessageW         000000014012e738     user32:USER32.dll
 0006:00000740       __imp_SetWindowLongW       000000014012e740     user32:USER32.dll
 0006:00000748       __imp_GetWindowLongW       000000014012e748     user32:USER32.dll
 0006:00000750       __imp_PtInRect             000000014012e750     user32:USER32.dll
 0006:00000758       __imp_SetRect              000000014012e758     user32:USER32.dll
 0006:00000760       __imp_ClipCursor           000000014012e760     user32:USER32.dll
 0006:00000768       __imp_WindowFromPoint      000000014012e768     user32:USER32.dll
 0006:00000770       __imp_ScreenToClient       000000014012e770     user32:USER32.dll
 0006:00000778       __imp_ClientToScreen       000000014012e778     user32:USER32.dll
 0006:00000780       __imp_GetCursorPos         000000014012e780     user32:USER32.dll
 0006:00000788       __imp_SetCursor            000000014012e788     user32:USER32.dll
 0006:00000790       __imp_SetCursorPos         000000014012e790     user32:USER32.dll
 0006:00000798       __imp_AdjustWindowRectEx   000000014012e798     user32:USER32.dll
 0006:000007a0       __imp_GetWindowRect        000000014012e7a0     user32:USER32.dll
 0006:000007a8       __imp_GetClientRect        000000014012e7a8     user32:USER32.dll
 0006:000007b0       __imp_SetWindowTextW       000000014012e7b0     user32:USER32.dll
 0006:000007b8       __imp_RemovePropW          000000014012e7b8     user32:USER32.dll
 0006:000007c0       __imp_GetPropW             000000014012e7c0     user32:USER32.dll
 0006:000007c8       __imp_SetPropW             000000014012e7c8     user32:USER32.dll
 0006:000007d0       __imp_SetForegroundWindow  000000014012e7d0     user32:USER32.dll
 0006:000007d8       __imp_GetSystemMetrics     000000014012e7d8     user32:USER32.dll
 0006:000007e0       __imp_MsgWaitForMultipleObjects 000000014012e7e0     user32:USER32.dll
 0006:000007e8       __imp_ReleaseCapture       000000014012e7e8     user32:USER32.dll
 0006:000007f0       __imp_SetCapture           000000014012e7f0     user32:USER32.dll
 0006:000007f8       __imp_GetKeyState          000000014012e7f8     user32:USER32.dll
 0006:00000800       __imp_GetActiveWindow      000000014012e800     user32:USER32.dll
 0006:00000808       __imp_SetFocus             000000014012e808     user32:USER32.dll
 0006:00000810       __imp_EmptyClipboard       000000014012e810     user32:USER32.dll
 0006:00000818       __imp_GetClipboardData     000000014012e818     user32:USER32.dll
 0006:00000820       __imp_SetClipboardData     000000014012e820     user32:USER32.dll
 0006:00000828       __imp_CloseClipboard       000000014012e828     user32:USER32.dll
 0006:00000830       __imp_OpenClipboard        000000014012e830     user32:USER32.dll
 0006:00000838       __imp_TranslateMessage     000000014012e838     user32:USER32.dll
 0006:00000840       __imp_DispatchMessageW     000000014012e840     user32:USER32.dll
 0006:00000848       __imp_PeekMessageW         000000014012e848     user32:USER32.dll
 0006:00000850       __imp_RegisterDeviceNotificationW 000000014012e850     user32:USER32.dll
 0006:00000858       __imp_UnregisterDeviceNotification 000000014012e858     user32:USER32.dll
 0006:00000860       __imp_CreateWindowExW      000000014012e860     user32:USER32.dll
 0006:00000868       __imp_DestroyWindow        000000014012e868     user32:USER32.dll
 0006:00000870       __imp_ShowWindow           000000014012e870     user32:USER32.dll
 0006:00000878       __imp_ToUnicode            000000014012e878     user32:USER32.dll
 0006:00000880       __imp_MapVirtualKeyW       000000014012e880     user32:USER32.dll
 0006:00000888       __imp_SystemParametersInfoW 000000014012e888     user32:USER32.dll
 0006:00000890       __imp_GetDC                000000014012e890     user32:USER32.dll
 0006:00000898       __imp_ReleaseDC            000000014012e898     user32:USER32.dll
 0006:000008a0       __imp_ChangeDisplaySettingsExW 000000014012e8a0     user32:USER32.dll
 0006:000008a8       __imp_EnumDisplaySettingsW 000000014012e8a8     user32:USER32.dll
 0006:000008b0       __imp_EnumDisplaySettingsExW 000000014012e8b0     user32:USER32.dll
 0006:000008b8       __imp_EnumDisplayDevicesW  000000014012e8b8     user32:USER32.dll
 0006:000008c0       __imp_GetMonitorInfoW      000000014012e8c0     user32:USER32.dll
 0006:000008c8       __imp_EnumDisplayMonitors  000000014012e8c8     user32:USER32.dll
 0006:000008d0       __imp_TrackMouseEvent      000000014012e8d0     user32:USER32.dll
 0006:000008d8       __imp_GetMessageTime       000000014012e8d8     user32:USER32.dll
 0006:000008e0       __imp_BringWindowToTop     000000014012e8e0     user32:USER32.dll
 0006:000008e8       \177USER32_NULL_THUNK_DATA 000000014012e8e8     user32:USER32.dll
 0006:000009b8       __imp_memset               000000014012e9b8     vcruntimed:VCRUNTIME140D.dll
 0006:000009c0       __imp___std_exception_copy 000000014012e9c0     vcruntimed:VCRUNTIME140D.dll
 0006:000009c8       __imp___std_exception_destroy 000000014012e9c8     vcruntimed:VCRUNTIME140D.dll
 0006:000009d0       __imp__CxxThrowException   000000014012e9d0     vcruntimed:VCRUNTIME140D.dll
 0006:000009d8       __imp_memmove              000000014012e9d8     vcruntimed:VCRUNTIME140D.dll
 0006:000009e0       __imp__purecall            000000014012e9e0     vcruntimed:VCRUNTIME140D.dll
 0006:000009e8       __imp_memcmp               000000014012e9e8     vcruntimed:VCRUNTIME140D.dll
 0006:000009f0       __imp_strstr               000000014012e9f0     vcruntimed:VCRUNTIME140D.dll
 0006:000009f8       __imp___C_specific_handler 000000014012e9f8     vcruntimed:VCRUNTIME140D.dll
 0006:00000a00       __imp___C_specific_handler_noexcept 000000014012ea00     vcruntimed:VCRUNTIME140D.dll
 0006:00000a08       __imp___current_exception  000000014012ea08     vcruntimed:VCRUNTIME140D.dll
 0006:00000a10       __imp___current_exception_context 000000014012ea10     vcruntimed:VCRUNTIME140D.dll
 0006:00000a18       __imp___std_type_info_destroy_list 000000014012ea18     vcruntimed:VCRUNTIME140D.dll
 0006:00000a20       __imp___vcrt_GetModuleFileNameW 000000014012ea20     vcruntimed:VCRUNTIME140D.dll
 0006:00000a28       __imp___vcrt_GetModuleHandleW 000000014012ea28     vcruntimed:VCRUNTIME140D.dll
 0006:00000a30       __imp___vcrt_LoadLibraryExW 000000014012ea30     vcruntimed:VCRUNTIME140D.dll
 0006:00000a38       __imp_memcpy               000000014012ea38     vcruntimed:VCRUNTIME140D.dll
 0006:00000a40       \177VCRUNTIME140D_NULL_THUNK_DATA 000000014012ea40     vcruntimed:VCRUNTIME140D.dll
 0006:00000ab0       __imp___CxxFrameHandler4   000000014012eab0     vcruntimed:VCRUNTIME140_1D.dll
 0006:00000ab8       \177VCRUNTIME140_1D_NULL_THUNK_DATA 000000014012eab8     vcruntimed:VCRUNTIME140_1D.dll
 0006:00000b10       __imp_ungetc               000000014012eb10     ucrtd:ucrtbased.dll
 0006:00000b18       __imp__lock_file           000000014012eb18     ucrtd:ucrtbased.dll
 0006:00000b20       __imp__unlock_file         000000014012eb20     ucrtd:ucrtbased.dll
 0006:00000b28       __imp_tanf                 000000014012eb28     ucrtd:ucrtbased.dll
 0006:00000b30       __imp_srand                000000014012eb30     ucrtd:ucrtbased.dll
 0006:00000b38       __imp__time64              000000014012eb38     ucrtd:ucrtbased.dll
 0006:00000b40       __imp_rand                 000000014012eb40     ucrtd:ucrtbased.dll
 0006:00000b48       __imp_ceilf                000000014012eb48     ucrtd:ucrtbased.dll
 0006:00000b50       __imp_abs                  000000014012eb50     ucrtd:ucrtbased.dll
 0006:00000b58       __imp_ldexp                000000014012eb58     ucrtd:ucrtbased.dll
 0006:00000b60       __imp_powf                 000000014012eb60     ucrtd:ucrtbased.dll
 0006:00000b68       __imp_realloc              000000014012eb68     ucrtd:ucrtbased.dll
 0006:00000b70       __imp__lrotl               000000014012eb70     ucrtd:ucrtbased.dll
 0006:00000b78       __imp_strtol               000000014012eb78     ucrtd:ucrtbased.dll
 0006:00000b80       __imp___acrt_iob_func      000000014012eb80     ucrtd:ucrtbased.dll
 0006:00000b88       __imp_fopen_s              000000014012eb88     ucrtd:ucrtbased.dll
 0006:00000b90       __imp_feof                 000000014012eb90     ucrtd:ucrtbased.dll
 0006:00000b98       __imp_ferror               000000014012eb98     ucrtd:ucrtbased.dll
 0006:00000ba0       __imp_fseek                000000014012eba0     ucrtd:ucrtbased.dll
 0006:00000ba8       __imp_ftell                000000014012eba8     ucrtd:ucrtbased.dll
 0006:00000bb0       __imp___stdio_common_vfprintf 000000014012ebb0     ucrtd:ucrtbased.dll
 0006:00000bb8       __imp_strcmp               000000014012ebb8     ucrtd:ucrtbased.dll
 0006:00000bc0       __imp_strcpy               000000014012ebc0     ucrtd:ucrtbased.dll
 0006:00000bc8       __imp_calloc               000000014012ebc8     ucrtd:ucrtbased.dll
 0006:00000bd0       __imp___stdio_common_vsprintf 000000014012ebd0     ucrtd:ucrtbased.dll
 0006:00000bd8       __imp_strncpy              000000014012ebd8     ucrtd:ucrtbased.dll
 0006:00000be0       __imp_strcspn              000000014012ebe0     ucrtd:ucrtbased.dll
 0006:00000be8       __imp_strspn               000000014012ebe8     ucrtd:ucrtbased.dll
 0006:00000bf0       __imp_strtoul              000000014012ebf0     ucrtd:ucrtbased.dll
 0006:00000bf8       __imp_wcscmp               000000014012ebf8     ucrtd:ucrtbased.dll
 0006:00000c00       __imp_wcscpy               000000014012ec00     ucrtd:ucrtbased.dll
 0006:00000c08       __imp_qsort                000000014012ec08     ucrtd:ucrtbased.dll
 0006:00000c10       __imp__CrtDbgReportW       000000014012ec10     ucrtd:ucrtbased.dll
 0006:00000c18       __imp_fwrite               000000014012ec18     ucrtd:ucrtbased.dll
 0006:00000c20       __imp__seh_filter_dll      000000014012ec20     ucrtd:ucrtbased.dll
 0006:00000c28       __imp__configure_narrow_argv 000000014012ec28     ucrtd:ucrtbased.dll
 0006:00000c30       __imp__initialize_narrow_environment 000000014012ec30     ucrtd:ucrtbased.dll
 0006:00000c38       __imp__initialize_onexit_table 000000014012ec38     ucrtd:ucrtbased.dll
 0006:00000c40       __imp__register_onexit_function 000000014012ec40     ucrtd:ucrtbased.dll
 0006:00000c48       __imp__execute_onexit_table 000000014012ec48     ucrtd:ucrtbased.dll
 0006:00000c50       __imp__crt_atexit          000000014012ec50     ucrtd:ucrtbased.dll
 0006:00000c58       __imp__crt_at_quick_exit   000000014012ec58     ucrtd:ucrtbased.dll
 0006:00000c60       __imp__cexit               000000014012ec60     ucrtd:ucrtbased.dll
 0006:00000c68       __imp__seh_filter_exe      000000014012ec68     ucrtd:ucrtbased.dll
 0006:00000c70       __imp__set_app_type        000000014012ec70     ucrtd:ucrtbased.dll
 0006:00000c78       __imp___setusermatherr     000000014012ec78     ucrtd:ucrtbased.dll
 0006:00000c80       __imp__get_initial_narrow_environment 000000014012ec80     ucrtd:ucrtbased.dll
 0006:00000c88       __imp__initterm            000000014012ec88     ucrtd:ucrtbased.dll
 0006:00000c90       __imp__initterm_e          000000014012ec90     ucrtd:ucrtbased.dll
 0006:00000c98       __imp__exit                000000014012ec98     ucrtd:ucrtbased.dll
 0006:00000ca0       __imp__set_fmode           000000014012eca0     ucrtd:ucrtbased.dll
 0006:00000ca8       __imp___p___argc           000000014012eca8     ucrtd:ucrtbased.dll
 0006:00000cb0       __imp___p___argv           000000014012ecb0     ucrtd:ucrtbased.dll
 0006:00000cb8       __imp__c_exit              000000014012ecb8     ucrtd:ucrtbased.dll
 0006:00000cc0       __imp__register_thread_local_exe_atexit_callback 000000014012ecc0     ucrtd:ucrtbased.dll
 0006:00000cc8       __imp__configthreadlocale  000000014012ecc8     ucrtd:ucrtbased.dll
 0006:00000cd0       __imp__set_new_mode        000000014012ecd0     ucrtd:ucrtbased.dll
 0006:00000cd8       __imp___p__commode         000000014012ecd8     ucrtd:ucrtbased.dll
 0006:00000ce0       __imp_strcpy_s             000000014012ece0     ucrtd:ucrtbased.dll
 0006:00000ce8       __imp_strcat_s             000000014012ece8     ucrtd:ucrtbased.dll
 0006:00000cf0       __imp___stdio_common_vsprintf_s 000000014012ecf0     ucrtd:ucrtbased.dll
 0006:00000cf8       __imp__free_dbg            000000014012ecf8     ucrtd:ucrtbased.dll
 0006:00000d00       __imp_terminate            000000014012ed00     ucrtd:ucrtbased.dll
 0006:00000d08       __imp__wmakepath_s         000000014012ed08     ucrtd:ucrtbased.dll
 0006:00000d10       __imp__wsplitpath_s        000000014012ed10     ucrtd:ucrtbased.dll
 0006:00000d18       __imp_wcscpy_s             000000014012ed18     ucrtd:ucrtbased.dll
 0006:00000d20       __imp__malloc_dbg          000000014012ed20     ucrtd:ucrtbased.dll
 0006:00000d28       __imp__fseeki64            000000014012ed28     ucrtd:ucrtbased.dll
 0006:00000d30       __imp___stdio_common_vsscanf 000000014012ed30     ucrtd:ucrtbased.dll
 0006:00000d38       __imp_setvbuf              000000014012ed38     ucrtd:ucrtbased.dll
 0006:00000d40       __imp_fsetpos              000000014012ed40     ucrtd:ucrtbased.dll
 0006:00000d48       __imp_fread                000000014012ed48     ucrtd:ucrtbased.dll
 0006:00000d50       __imp_fputc                000000014012ed50     ucrtd:ucrtbased.dll
 0006:00000d58       __imp_free                 000000014012ed58     ucrtd:ucrtbased.dll
 0006:00000d60       __imp_fgetc                000000014012ed60     ucrtd:ucrtbased.dll
 0006:00000d68       __imp_fflush               000000014012ed68     ucrtd:ucrtbased.dll
 0006:00000d70       __imp_fclose               000000014012ed70     ucrtd:ucrtbased.dll
 0006:00000d78       __imp__get_stream_buffer_pointers 000000014012ed78     ucrtd:ucrtbased.dll
 0006:00000d80       __imp_exit                 000000014012ed80     ucrtd:ucrtbased.dll
 0006:00000d88       __imp__CrtDbgReport        000000014012ed88     ucrtd:ucrtbased.dll
 0006:00000d90       __imp__invalid_parameter   000000014012ed90     ucrtd:ucrtbased.dll
 0006:00000d98       __imp__wassert             000000014012ed98     ucrtd:ucrtbased.dll
 0006:00000da0       __imp_sqrtf                000000014012eda0     ucrtd:ucrtbased.dll
 0006:00000da8       __imp_sinf                 000000014012eda8     ucrtd:ucrtbased.dll
 0006:00000db0       __imp_cosf                 000000014012edb0     ucrtd:ucrtbased.dll
 0006:00000db8       __imp_strncmp              000000014012edb8     ucrtd:ucrtbased.dll
 0006:00000dc0       __imp_strlen               000000014012edc0     ucrtd:ucrtbased.dll
 0006:00000dc8       __imp__callnewh            000000014012edc8     ucrtd:ucrtbased.dll
 0006:00000dd0       __imp_malloc               000000014012edd0     ucrtd:ucrtbased.dll
 0006:00000dd8       __imp_fgetpos              000000014012edd8     ucrtd:ucrtbased.dll
 0006:00000de0       \177ucrtbased_NULL_THUNK_DATA 000000014012ede0     ucrtd:ucrtbased.dll
 0006:00000ec8       __IMPORT_DESCRIPTOR_KERNEL32 000000014012eec8     kernel32:KERNEL32.dll
 0006:00000edc       __IMPORT_DESCRIPTOR_USER32 000000014012eedc     user32:USER32.dll
 0006:00000ef0       __IMPORT_DESCRIPTOR_GDI32  000000014012eef0     gdi32:GDI32.dll
 0006:00000f04       __IMPORT_DESCRIPTOR_SHELL32 000000014012ef04     shell32:SHELL32.dll
 0006:00000f18       __IMPORT_DESCRIPTOR_MSVCP140D 000000014012ef18     msvcprtd:MSVCP140D.dll
 0006:00000f2c       __IMPORT_DESCRIPTOR_VCRUNTIME140D 000000014012ef2c     vcruntimed:VCRUNTIME140D.dll
 0006:00000f40       __IMPORT_DESCRIPTOR_VCRUNTIME140_1D 000000014012ef40     vcruntimed:VCRUNTIME140_1D.dll
 0006:00000f54       __IMPORT_DESCRIPTOR_ucrtbased 000000014012ef54     ucrtd:ucrtbased.dll
 0006:00000f68       __NULL_IMPORT_DESCRIPTOR   000000014012ef68     kernel32:KERNEL32.dll
 0008:00000000       _tls_start                 0000000140135000     MSVCRTD:tlssup.obj
 0008:00000130       _Init_thread_epoch         0000000140135130     MSVCRTD:thread_safe_statics.obj
 0008:00000235       _tls_end                   0000000140135235     MSVCRTD:tlssup.obj
 0009:00000000       __guard_check_icall_fptr   0000000140136000     MSVCRTD:guard_support.obj
 0009:00000010       __guard_xfg_check_icall_fptr 0000000140136010     MSVCRTD:guard_support.obj
 0009:00000020       __guard_dispatch_icall_fptr 0000000140136020     MSVCRTD:guard_support.obj
 0009:00000030       __guard_xfg_dispatch_icall_fptr 0000000140136030     MSVCRTD:guard_support.obj
 0009:00000040       __guard_xfg_table_dispatch_icall_fptr 0000000140136040     MSVCRTD:guard_support.obj
 0009:00000050       __castguard_check_failure_os_handled_fptr 0000000140136050     MSVCRTD:guard_support.obj
 0009:00000060       __guard_memcpy_fptr        0000000140136060     vcruntimed:softmemtag.obj

 entry point at        0002:00001653

 Static symbols

 0000:00000000       _volmd                     0000000140000000     Camera.obj
 0000:00000000       _volmd                     0000000140000000     Camera.obj
 0000:00000000       _volmd                     0000000140000000     Camera.obj
 0000:00000000       _volmd                     0000000140000000     Camera.obj
 0000:00000000       _volmd                     0000000140000000     Camera.obj
 0003:fff30000       $unwind$??$?0HHHM@?$vec@$03M$0A@@glm@@QEAA@HHHM@Z 0000000140000000     Chunk.obj
 0003:fff30000       $unwind$??$?0HHMH@?$vec@$03M$0A@@glm@@QEAA@HHMH@Z 0000000140000000     Chunk.obj
 0003:fff30000       $unwind$??$?0HMHH@?$vec@$03M$0A@@glm@@QEAA@HMHH@Z 0000000140000000     Chunk.obj
 0003:fff30000       $unwind$??$?0MHHH@?$vec@$03M$0A@@glm@@QEAA@MHHH@Z 0000000140000000     Chunk.obj
 0003:fff30000       $unwind$??$?HM$0A@@glm@@YA?AU?$vec@$02M$0A@@0@AEBU10@0@Z 0000000140000000     Chunk.obj
 0003:fff30000       $unwind$??0?$mat@$03$03M$0A@@glm@@QEAA@AEBM@Z 0000000140000000     Chunk.obj
 0003:fff30000       $unwind$??0?$vec@$02M$0A@@glm@@QEAA@MMM@Z 0000000140000000     Chunk.obj
 0003:fff30000       $unwind$??A?$mat@$03$03M$0A@@glm@@QEAAAEAU?$vec@$03M$0A@@1@H@Z 0000000140000000     Chunk.obj
 0003:fff30000       $unwind$?__empty_global_delete@@YAXPEAX@Z 0000000140000000     Chunk.obj
